
new.elf:     file format elf32-littlearm

Sections:
Idx Name          Size      VMA       LMA       File off  Algn
  0 .isr_vector   00000198  08008000  08008000  00008000  2**0
                  CONTENTS, ALLOC, LOAD, READONLY, DATA
  1 .text         0000ab94  080081a0  080081a0  000081a0  2**4
                  CONTENTS, ALLOC, LOAD, READONLY, CODE
  2 .rodata       00004378  08012d38  08012d38  00012d38  2**3
                  CONTENTS, ALLOC, LOAD, READONLY, DATA
  3 .ARM.extab    00000000  080170b0  080170b0  00020240  2**0
                  CONTENTS
  4 .ARM          00000008  080170b0  080170b0  000170b0  2**2
                  CONTENTS, ALLOC, LOAD, READONLY, DATA
  5 .preinit_array 00000000  080170b8  080170b8  00020240  2**0
                  CONTENTS, ALLOC, LOAD, DATA
  6 .init_array   00000004  080170b8  080170b8  000170b8  2**2
                  CONTENTS, ALLOC, LOAD, DATA
  7 .fini_array   00000004  080170bc  080170bc  000170bc  2**2
                  CONTENTS, ALLOC, LOAD, DATA
  8 .data         00000240  20000000  080170c0  00020000  2**2
                  CONTENTS, ALLOC, LOAD, DATA
  9 .bss          00001268  20000240  08017300  00020240  2**2
                  ALLOC
 10 ._user_heap_stack 00001400  200014a8  08017300  000214a8  2**0
                  ALLOC
 11 .ARM.attributes 00000030  00000000  00000000  00020240  2**0
                  CONTENTS, READONLY
 12 .comment      00000053  00000000  00000000  00020270  2**0
                  CONTENTS, READONLY
 13 .debug_frame  000015f0  00000000  00000000  000202c4  2**2
                  CONTENTS, READONLY, DEBUGGING, OCTETS

Disassembly of section .text:

080081a0 <__do_global_dtors_aux>:
 80081a0:	b510      	push	{r4, lr}
 80081a2:	4c05      	ldr	r4, [pc, #20]	; (80081b8 <__do_global_dtors_aux+0x18>)
 80081a4:	7823      	ldrb	r3, [r4, #0]
 80081a6:	b933      	cbnz	r3, 80081b6 <__do_global_dtors_aux+0x16>
 80081a8:	4b04      	ldr	r3, [pc, #16]	; (80081bc <__do_global_dtors_aux+0x1c>)
 80081aa:	b113      	cbz	r3, 80081b2 <__do_global_dtors_aux+0x12>
 80081ac:	4804      	ldr	r0, [pc, #16]	; (80081c0 <__do_global_dtors_aux+0x20>)
 80081ae:	f3af 8000 	nop.w
 80081b2:	2301      	movs	r3, #1
 80081b4:	7023      	strb	r3, [r4, #0]
 80081b6:	bd10      	pop	{r4, pc}
 80081b8:	20000240 	.word	0x20000240
 80081bc:	00000000 	.word	0x00000000
 80081c0:	08012d1c 	.word	0x08012d1c

080081c4 <frame_dummy>:
 80081c4:	b508      	push	{r3, lr}
 80081c6:	4b03      	ldr	r3, [pc, #12]	; (80081d4 <frame_dummy+0x10>)
 80081c8:	b11b      	cbz	r3, 80081d2 <frame_dummy+0xe>
 80081ca:	4903      	ldr	r1, [pc, #12]	; (80081d8 <frame_dummy+0x14>)
 80081cc:	4803      	ldr	r0, [pc, #12]	; (80081dc <frame_dummy+0x18>)
 80081ce:	f3af 8000 	nop.w
 80081d2:	bd08      	pop	{r3, pc}
 80081d4:	00000000 	.word	0x00000000
 80081d8:	20000244 	.word	0x20000244
 80081dc:	08012d1c 	.word	0x08012d1c

080081e0 <strlen>:
 80081e0:	4603      	mov	r3, r0
 80081e2:	f813 2b01 	ldrb.w	r2, [r3], #1
 80081e6:	2a00      	cmp	r2, #0
 80081e8:	d1fb      	bne.n	80081e2 <strlen+0x2>
 80081ea:	1a18      	subs	r0, r3, r0
 80081ec:	3801      	subs	r0, #1
 80081ee:	4770      	bx	lr

080081f0 <memchr>:
 80081f0:	f001 01ff 	and.w	r1, r1, #255	; 0xff
 80081f4:	2a10      	cmp	r2, #16
 80081f6:	db2b      	blt.n	8008250 <memchr+0x60>
 80081f8:	f010 0f07 	tst.w	r0, #7
 80081fc:	d008      	beq.n	8008210 <memchr+0x20>
 80081fe:	f810 3b01 	ldrb.w	r3, [r0], #1
 8008202:	3a01      	subs	r2, #1
 8008204:	428b      	cmp	r3, r1
 8008206:	d02d      	beq.n	8008264 <memchr+0x74>
 8008208:	f010 0f07 	tst.w	r0, #7
 800820c:	b342      	cbz	r2, 8008260 <memchr+0x70>
 800820e:	d1f6      	bne.n	80081fe <memchr+0xe>
 8008210:	b4f0      	push	{r4, r5, r6, r7}
 8008212:	ea41 2101 	orr.w	r1, r1, r1, lsl #8
 8008216:	ea41 4101 	orr.w	r1, r1, r1, lsl #16
 800821a:	f022 0407 	bic.w	r4, r2, #7
 800821e:	f07f 0700 	mvns.w	r7, #0
 8008222:	2300      	movs	r3, #0
 8008224:	e8f0 5602 	ldrd	r5, r6, [r0], #8
 8008228:	3c08      	subs	r4, #8
 800822a:	ea85 0501 	eor.w	r5, r5, r1
 800822e:	ea86 0601 	eor.w	r6, r6, r1
 8008232:	fa85 f547 	uadd8	r5, r5, r7
 8008236:	faa3 f587 	sel	r5, r3, r7
 800823a:	fa86 f647 	uadd8	r6, r6, r7
 800823e:	faa5 f687 	sel	r6, r5, r7
 8008242:	b98e      	cbnz	r6, 8008268 <memchr+0x78>
 8008244:	d1ee      	bne.n	8008224 <memchr+0x34>
 8008246:	bcf0      	pop	{r4, r5, r6, r7}
 8008248:	f001 01ff 	and.w	r1, r1, #255	; 0xff
 800824c:	f002 0207 	and.w	r2, r2, #7
 8008250:	b132      	cbz	r2, 8008260 <memchr+0x70>
 8008252:	f810 3b01 	ldrb.w	r3, [r0], #1
 8008256:	3a01      	subs	r2, #1
 8008258:	ea83 0301 	eor.w	r3, r3, r1
 800825c:	b113      	cbz	r3, 8008264 <memchr+0x74>
 800825e:	d1f8      	bne.n	8008252 <memchr+0x62>
 8008260:	2000      	movs	r0, #0
 8008262:	4770      	bx	lr
 8008264:	3801      	subs	r0, #1
 8008266:	4770      	bx	lr
 8008268:	2d00      	cmp	r5, #0
 800826a:	bf06      	itte	eq
 800826c:	4635      	moveq	r5, r6
 800826e:	3803      	subeq	r0, #3
 8008270:	3807      	subne	r0, #7
 8008272:	f015 0f01 	tst.w	r5, #1
 8008276:	d107      	bne.n	8008288 <memchr+0x98>
 8008278:	3001      	adds	r0, #1
 800827a:	f415 7f80 	tst.w	r5, #256	; 0x100
 800827e:	bf02      	ittt	eq
 8008280:	3001      	addeq	r0, #1
 8008282:	f415 3fc0 	tsteq.w	r5, #98304	; 0x18000
 8008286:	3001      	addeq	r0, #1
 8008288:	bcf0      	pop	{r4, r5, r6, r7}
 800828a:	3801      	subs	r0, #1
 800828c:	4770      	bx	lr
 800828e:	bf00      	nop

08008290 <__aeabi_drsub>:
 8008290:	f081 4100 	eor.w	r1, r1, #2147483648	; 0x80000000
 8008294:	e002      	b.n	800829c <__adddf3>
 8008296:	bf00      	nop

08008298 <__aeabi_dsub>:
 8008298:	f083 4300 	eor.w	r3, r3, #2147483648	; 0x80000000

0800829c <__adddf3>:
 800829c:	b530      	push	{r4, r5, lr}
 800829e:	ea4f 0441 	mov.w	r4, r1, lsl #1
 80082a2:	ea4f 0543 	mov.w	r5, r3, lsl #1
 80082a6:	ea94 0f05 	teq	r4, r5
 80082aa:	bf08      	it	eq
 80082ac:	ea90 0f02 	teqeq	r0, r2
 80082b0:	bf1f      	itttt	ne
 80082b2:	ea54 0c00 	orrsne.w	ip, r4, r0
 80082b6:	ea55 0c02 	orrsne.w	ip, r5, r2
 80082ba:	ea7f 5c64 	mvnsne.w	ip, r4, asr #21
 80082be:	ea7f 5c65 	mvnsne.w	ip, r5, asr #21
 80082c2:	f000 80e2 	beq.w	800848a <__adddf3+0x1ee>
 80082c6:	ea4f 5454 	mov.w	r4, r4, lsr #21
 80082ca:	ebd4 5555 	rsbs	r5, r4, r5, lsr #21
 80082ce:	bfb8      	it	lt
 80082d0:	426d      	neglt	r5, r5
 80082d2:	dd0c      	ble.n	80082ee <__adddf3+0x52>
 80082d4:	442c      	add	r4, r5
 80082d6:	ea80 0202 	eor.w	r2, r0, r2
 80082da:	ea81 0303 	eor.w	r3, r1, r3
 80082de:	ea82 0000 	eor.w	r0, r2, r0
 80082e2:	ea83 0101 	eor.w	r1, r3, r1
 80082e6:	ea80 0202 	eor.w	r2, r0, r2
 80082ea:	ea81 0303 	eor.w	r3, r1, r3
 80082ee:	2d36      	cmp	r5, #54	; 0x36
 80082f0:	bf88      	it	hi
 80082f2:	bd30      	pophi	{r4, r5, pc}
 80082f4:	f011 4f00 	tst.w	r1, #2147483648	; 0x80000000
 80082f8:	ea4f 3101 	mov.w	r1, r1, lsl #12
 80082fc:	f44f 1c80 	mov.w	ip, #1048576	; 0x100000
 8008300:	ea4c 3111 	orr.w	r1, ip, r1, lsr #12
 8008304:	d002      	beq.n	800830c <__adddf3+0x70>
 8008306:	4240      	negs	r0, r0
 8008308:	eb61 0141 	sbc.w	r1, r1, r1, lsl #1
 800830c:	f013 4f00 	tst.w	r3, #2147483648	; 0x80000000
 8008310:	ea4f 3303 	mov.w	r3, r3, lsl #12
 8008314:	ea4c 3313 	orr.w	r3, ip, r3, lsr #12
 8008318:	d002      	beq.n	8008320 <__adddf3+0x84>
 800831a:	4252      	negs	r2, r2
 800831c:	eb63 0343 	sbc.w	r3, r3, r3, lsl #1
 8008320:	ea94 0f05 	teq	r4, r5
 8008324:	f000 80a7 	beq.w	8008476 <__adddf3+0x1da>
 8008328:	f1a4 0401 	sub.w	r4, r4, #1
 800832c:	f1d5 0e20 	rsbs	lr, r5, #32
 8008330:	db0d      	blt.n	800834e <__adddf3+0xb2>
 8008332:	fa02 fc0e 	lsl.w	ip, r2, lr
 8008336:	fa22 f205 	lsr.w	r2, r2, r5
 800833a:	1880      	adds	r0, r0, r2
 800833c:	f141 0100 	adc.w	r1, r1, #0
 8008340:	fa03 f20e 	lsl.w	r2, r3, lr
 8008344:	1880      	adds	r0, r0, r2
 8008346:	fa43 f305 	asr.w	r3, r3, r5
 800834a:	4159      	adcs	r1, r3
 800834c:	e00e      	b.n	800836c <__adddf3+0xd0>
 800834e:	f1a5 0520 	sub.w	r5, r5, #32
 8008352:	f10e 0e20 	add.w	lr, lr, #32
 8008356:	2a01      	cmp	r2, #1
 8008358:	fa03 fc0e 	lsl.w	ip, r3, lr
 800835c:	bf28      	it	cs
 800835e:	f04c 0c02 	orrcs.w	ip, ip, #2
 8008362:	fa43 f305 	asr.w	r3, r3, r5
 8008366:	18c0      	adds	r0, r0, r3
 8008368:	eb51 71e3 	adcs.w	r1, r1, r3, asr #31
 800836c:	f001 4500 	and.w	r5, r1, #2147483648	; 0x80000000
 8008370:	d507      	bpl.n	8008382 <__adddf3+0xe6>
 8008372:	f04f 0e00 	mov.w	lr, #0
 8008376:	f1dc 0c00 	rsbs	ip, ip, #0
 800837a:	eb7e 0000 	sbcs.w	r0, lr, r0
 800837e:	eb6e 0101 	sbc.w	r1, lr, r1
 8008382:	f5b1 1f80 	cmp.w	r1, #1048576	; 0x100000
 8008386:	d31b      	bcc.n	80083c0 <__adddf3+0x124>
 8008388:	f5b1 1f00 	cmp.w	r1, #2097152	; 0x200000
 800838c:	d30c      	bcc.n	80083a8 <__adddf3+0x10c>
 800838e:	0849      	lsrs	r1, r1, #1
 8008390:	ea5f 0030 	movs.w	r0, r0, rrx
 8008394:	ea4f 0c3c 	mov.w	ip, ip, rrx
 8008398:	f104 0401 	add.w	r4, r4, #1
 800839c:	ea4f 5244 	mov.w	r2, r4, lsl #21
 80083a0:	f512 0f80 	cmn.w	r2, #4194304	; 0x400000
 80083a4:	f080 809a 	bcs.w	80084dc <__adddf3+0x240>
 80083a8:	f1bc 4f00 	cmp.w	ip, #2147483648	; 0x80000000
 80083ac:	bf08      	it	eq
 80083ae:	ea5f 0c50 	movseq.w	ip, r0, lsr #1
 80083b2:	f150 0000 	adcs.w	r0, r0, #0
 80083b6:	eb41 5104 	adc.w	r1, r1, r4, lsl #20
 80083ba:	ea41 0105 	orr.w	r1, r1, r5
 80083be:	bd30      	pop	{r4, r5, pc}
 80083c0:	ea5f 0c4c 	movs.w	ip, ip, lsl #1
 80083c4:	4140      	adcs	r0, r0
 80083c6:	eb41 0101 	adc.w	r1, r1, r1
 80083ca:	3c01      	subs	r4, #1
 80083cc:	bf28      	it	cs
 80083ce:	f5b1 1f80 	cmpcs.w	r1, #1048576	; 0x100000
 80083d2:	d2e9      	bcs.n	80083a8 <__adddf3+0x10c>
 80083d4:	f091 0f00 	teq	r1, #0
 80083d8:	bf04      	itt	eq
 80083da:	4601      	moveq	r1, r0
 80083dc:	2000      	moveq	r0, #0
 80083de:	fab1 f381 	clz	r3, r1
 80083e2:	bf08      	it	eq
 80083e4:	3320      	addeq	r3, #32
 80083e6:	f1a3 030b 	sub.w	r3, r3, #11
 80083ea:	f1b3 0220 	subs.w	r2, r3, #32
 80083ee:	da0c      	bge.n	800840a <__adddf3+0x16e>
 80083f0:	320c      	adds	r2, #12
 80083f2:	dd08      	ble.n	8008406 <__adddf3+0x16a>
 80083f4:	f102 0c14 	add.w	ip, r2, #20
 80083f8:	f1c2 020c 	rsb	r2, r2, #12
 80083fc:	fa01 f00c 	lsl.w	r0, r1, ip
 8008400:	fa21 f102 	lsr.w	r1, r1, r2
 8008404:	e00c      	b.n	8008420 <__adddf3+0x184>
 8008406:	f102 0214 	add.w	r2, r2, #20
 800840a:	bfd8      	it	le
 800840c:	f1c2 0c20 	rsble	ip, r2, #32
 8008410:	fa01 f102 	lsl.w	r1, r1, r2
 8008414:	fa20 fc0c 	lsr.w	ip, r0, ip
 8008418:	bfdc      	itt	le
 800841a:	ea41 010c 	orrle.w	r1, r1, ip
 800841e:	4090      	lslle	r0, r2
 8008420:	1ae4      	subs	r4, r4, r3
 8008422:	bfa2      	ittt	ge
 8008424:	eb01 5104 	addge.w	r1, r1, r4, lsl #20
 8008428:	4329      	orrge	r1, r5
 800842a:	bd30      	popge	{r4, r5, pc}
 800842c:	ea6f 0404 	mvn.w	r4, r4
 8008430:	3c1f      	subs	r4, #31
 8008432:	da1c      	bge.n	800846e <__adddf3+0x1d2>
 8008434:	340c      	adds	r4, #12
 8008436:	dc0e      	bgt.n	8008456 <__adddf3+0x1ba>
 8008438:	f104 0414 	add.w	r4, r4, #20
 800843c:	f1c4 0220 	rsb	r2, r4, #32
 8008440:	fa20 f004 	lsr.w	r0, r0, r4
 8008444:	fa01 f302 	lsl.w	r3, r1, r2
 8008448:	ea40 0003 	orr.w	r0, r0, r3
 800844c:	fa21 f304 	lsr.w	r3, r1, r4
 8008450:	ea45 0103 	orr.w	r1, r5, r3
 8008454:	bd30      	pop	{r4, r5, pc}
 8008456:	f1c4 040c 	rsb	r4, r4, #12
 800845a:	f1c4 0220 	rsb	r2, r4, #32
 800845e:	fa20 f002 	lsr.w	r0, r0, r2
 8008462:	fa01 f304 	lsl.w	r3, r1, r4
 8008466:	ea40 0003 	orr.w	r0, r0, r3
 800846a:	4629      	mov	r1, r5
 800846c:	bd30      	pop	{r4, r5, pc}
 800846e:	fa21 f004 	lsr.w	r0, r1, r4
 8008472:	4629      	mov	r1, r5
 8008474:	bd30      	pop	{r4, r5, pc}
 8008476:	f094 0f00 	teq	r4, #0
 800847a:	f483 1380 	eor.w	r3, r3, #1048576	; 0x100000
 800847e:	bf06      	itte	eq
 8008480:	f481 1180 	eoreq.w	r1, r1, #1048576	; 0x100000
 8008484:	3401      	addeq	r4, #1
 8008486:	3d01      	subne	r5, #1
 8008488:	e74e      	b.n	8008328 <__adddf3+0x8c>
 800848a:	ea7f 5c64 	mvns.w	ip, r4, asr #21
 800848e:	bf18      	it	ne
 8008490:	ea7f 5c65 	mvnsne.w	ip, r5, asr #21
 8008494:	d029      	beq.n	80084ea <__adddf3+0x24e>
 8008496:	ea94 0f05 	teq	r4, r5
 800849a:	bf08      	it	eq
 800849c:	ea90 0f02 	teqeq	r0, r2
 80084a0:	d005      	beq.n	80084ae <__adddf3+0x212>
 80084a2:	ea54 0c00 	orrs.w	ip, r4, r0
 80084a6:	bf04      	itt	eq
 80084a8:	4619      	moveq	r1, r3
 80084aa:	4610      	moveq	r0, r2
 80084ac:	bd30      	pop	{r4, r5, pc}
 80084ae:	ea91 0f03 	teq	r1, r3
 80084b2:	bf1e      	ittt	ne
 80084b4:	2100      	movne	r1, #0
 80084b6:	2000      	movne	r0, #0
 80084b8:	bd30      	popne	{r4, r5, pc}
 80084ba:	ea5f 5c54 	movs.w	ip, r4, lsr #21
 80084be:	d105      	bne.n	80084cc <__adddf3+0x230>
 80084c0:	0040      	lsls	r0, r0, #1
 80084c2:	4149      	adcs	r1, r1
 80084c4:	bf28      	it	cs
 80084c6:	f041 4100 	orrcs.w	r1, r1, #2147483648	; 0x80000000
 80084ca:	bd30      	pop	{r4, r5, pc}
 80084cc:	f514 0480 	adds.w	r4, r4, #4194304	; 0x400000
 80084d0:	bf3c      	itt	cc
 80084d2:	f501 1180 	addcc.w	r1, r1, #1048576	; 0x100000
 80084d6:	bd30      	popcc	{r4, r5, pc}
 80084d8:	f001 4500 	and.w	r5, r1, #2147483648	; 0x80000000
 80084dc:	f045 41fe 	orr.w	r1, r5, #2130706432	; 0x7f000000
 80084e0:	f441 0170 	orr.w	r1, r1, #15728640	; 0xf00000
 80084e4:	f04f 0000 	mov.w	r0, #0
 80084e8:	bd30      	pop	{r4, r5, pc}
 80084ea:	ea7f 5c64 	mvns.w	ip, r4, asr #21
 80084ee:	bf1a      	itte	ne
 80084f0:	4619      	movne	r1, r3
 80084f2:	4610      	movne	r0, r2
 80084f4:	ea7f 5c65 	mvnseq.w	ip, r5, asr #21
 80084f8:	bf1c      	itt	ne
 80084fa:	460b      	movne	r3, r1
 80084fc:	4602      	movne	r2, r0
 80084fe:	ea50 3401 	orrs.w	r4, r0, r1, lsl #12
 8008502:	bf06      	itte	eq
 8008504:	ea52 3503 	orrseq.w	r5, r2, r3, lsl #12
 8008508:	ea91 0f03 	teqeq	r1, r3
 800850c:	f441 2100 	orrne.w	r1, r1, #524288	; 0x80000
 8008510:	bd30      	pop	{r4, r5, pc}
 8008512:	bf00      	nop

08008514 <__aeabi_ui2d>:
 8008514:	f090 0f00 	teq	r0, #0
 8008518:	bf04      	itt	eq
 800851a:	2100      	moveq	r1, #0
 800851c:	4770      	bxeq	lr
 800851e:	b530      	push	{r4, r5, lr}
 8008520:	f44f 6480 	mov.w	r4, #1024	; 0x400
 8008524:	f104 0432 	add.w	r4, r4, #50	; 0x32
 8008528:	f04f 0500 	mov.w	r5, #0
 800852c:	f04f 0100 	mov.w	r1, #0
 8008530:	e750      	b.n	80083d4 <__adddf3+0x138>
 8008532:	bf00      	nop

08008534 <__aeabi_i2d>:
 8008534:	f090 0f00 	teq	r0, #0
 8008538:	bf04      	itt	eq
 800853a:	2100      	moveq	r1, #0
 800853c:	4770      	bxeq	lr
 800853e:	b530      	push	{r4, r5, lr}
 8008540:	f44f 6480 	mov.w	r4, #1024	; 0x400
 8008544:	f104 0432 	add.w	r4, r4, #50	; 0x32
 8008548:	f010 4500 	ands.w	r5, r0, #2147483648	; 0x80000000
 800854c:	bf48      	it	mi
 800854e:	4240      	negmi	r0, r0
 8008550:	f04f 0100 	mov.w	r1, #0
 8008554:	e73e      	b.n	80083d4 <__adddf3+0x138>
 8008556:	bf00      	nop

08008558 <__aeabi_f2d>:
 8008558:	0042      	lsls	r2, r0, #1
 800855a:	ea4f 01e2 	mov.w	r1, r2, asr #3
 800855e:	ea4f 0131 	mov.w	r1, r1, rrx
 8008562:	ea4f 7002 	mov.w	r0, r2, lsl #28
 8008566:	bf1f      	itttt	ne
 8008568:	f012 437f 	andsne.w	r3, r2, #4278190080	; 0xff000000
 800856c:	f093 4f7f 	teqne	r3, #4278190080	; 0xff000000
 8008570:	f081 5160 	eorne.w	r1, r1, #939524096	; 0x38000000
 8008574:	4770      	bxne	lr
 8008576:	f032 427f 	bics.w	r2, r2, #4278190080	; 0xff000000
 800857a:	bf08      	it	eq
 800857c:	4770      	bxeq	lr
 800857e:	f093 4f7f 	teq	r3, #4278190080	; 0xff000000
 8008582:	bf04      	itt	eq
 8008584:	f441 2100 	orreq.w	r1, r1, #524288	; 0x80000
 8008588:	4770      	bxeq	lr
 800858a:	b530      	push	{r4, r5, lr}
 800858c:	f44f 7460 	mov.w	r4, #896	; 0x380
 8008590:	f001 4500 	and.w	r5, r1, #2147483648	; 0x80000000
 8008594:	f021 4100 	bic.w	r1, r1, #2147483648	; 0x80000000
 8008598:	e71c      	b.n	80083d4 <__adddf3+0x138>
 800859a:	bf00      	nop

0800859c <__aeabi_ul2d>:
 800859c:	ea50 0201 	orrs.w	r2, r0, r1
 80085a0:	bf08      	it	eq
 80085a2:	4770      	bxeq	lr
 80085a4:	b530      	push	{r4, r5, lr}
 80085a6:	f04f 0500 	mov.w	r5, #0
 80085aa:	e00a      	b.n	80085c2 <__aeabi_l2d+0x16>

080085ac <__aeabi_l2d>:
 80085ac:	ea50 0201 	orrs.w	r2, r0, r1
 80085b0:	bf08      	it	eq
 80085b2:	4770      	bxeq	lr
 80085b4:	b530      	push	{r4, r5, lr}
 80085b6:	f011 4500 	ands.w	r5, r1, #2147483648	; 0x80000000
 80085ba:	d502      	bpl.n	80085c2 <__aeabi_l2d+0x16>
 80085bc:	4240      	negs	r0, r0
 80085be:	eb61 0141 	sbc.w	r1, r1, r1, lsl #1
 80085c2:	f44f 6480 	mov.w	r4, #1024	; 0x400
 80085c6:	f104 0432 	add.w	r4, r4, #50	; 0x32
 80085ca:	ea5f 5c91 	movs.w	ip, r1, lsr #22
 80085ce:	f43f aed8 	beq.w	8008382 <__adddf3+0xe6>
 80085d2:	f04f 0203 	mov.w	r2, #3
 80085d6:	ea5f 0cdc 	movs.w	ip, ip, lsr #3
 80085da:	bf18      	it	ne
 80085dc:	3203      	addne	r2, #3
 80085de:	ea5f 0cdc 	movs.w	ip, ip, lsr #3
 80085e2:	bf18      	it	ne
 80085e4:	3203      	addne	r2, #3
 80085e6:	eb02 02dc 	add.w	r2, r2, ip, lsr #3
 80085ea:	f1c2 0320 	rsb	r3, r2, #32
 80085ee:	fa00 fc03 	lsl.w	ip, r0, r3
 80085f2:	fa20 f002 	lsr.w	r0, r0, r2
 80085f6:	fa01 fe03 	lsl.w	lr, r1, r3
 80085fa:	ea40 000e 	orr.w	r0, r0, lr
 80085fe:	fa21 f102 	lsr.w	r1, r1, r2
 8008602:	4414      	add	r4, r2
 8008604:	e6bd      	b.n	8008382 <__adddf3+0xe6>
 8008606:	bf00      	nop

08008608 <__aeabi_dmul>:
 8008608:	b570      	push	{r4, r5, r6, lr}
 800860a:	f04f 0cff 	mov.w	ip, #255	; 0xff
 800860e:	f44c 6ce0 	orr.w	ip, ip, #1792	; 0x700
 8008612:	ea1c 5411 	ands.w	r4, ip, r1, lsr #20
 8008616:	bf1d      	ittte	ne
 8008618:	ea1c 5513 	andsne.w	r5, ip, r3, lsr #20
 800861c:	ea94 0f0c 	teqne	r4, ip
 8008620:	ea95 0f0c 	teqne	r5, ip
 8008624:	f000 f8de 	bleq	80087e4 <__aeabi_dmul+0x1dc>
 8008628:	442c      	add	r4, r5
 800862a:	ea81 0603 	eor.w	r6, r1, r3
 800862e:	ea21 514c 	bic.w	r1, r1, ip, lsl #21
 8008632:	ea23 534c 	bic.w	r3, r3, ip, lsl #21
 8008636:	ea50 3501 	orrs.w	r5, r0, r1, lsl #12
 800863a:	bf18      	it	ne
 800863c:	ea52 3503 	orrsne.w	r5, r2, r3, lsl #12
 8008640:	f441 1180 	orr.w	r1, r1, #1048576	; 0x100000
 8008644:	f443 1380 	orr.w	r3, r3, #1048576	; 0x100000
 8008648:	d038      	beq.n	80086bc <__aeabi_dmul+0xb4>
 800864a:	fba0 ce02 	umull	ip, lr, r0, r2
 800864e:	f04f 0500 	mov.w	r5, #0
 8008652:	fbe1 e502 	umlal	lr, r5, r1, r2
 8008656:	f006 4200 	and.w	r2, r6, #2147483648	; 0x80000000
 800865a:	fbe0 e503 	umlal	lr, r5, r0, r3
 800865e:	f04f 0600 	mov.w	r6, #0
 8008662:	fbe1 5603 	umlal	r5, r6, r1, r3
 8008666:	f09c 0f00 	teq	ip, #0
 800866a:	bf18      	it	ne
 800866c:	f04e 0e01 	orrne.w	lr, lr, #1
 8008670:	f1a4 04ff 	sub.w	r4, r4, #255	; 0xff
 8008674:	f5b6 7f00 	cmp.w	r6, #512	; 0x200
 8008678:	f564 7440 	sbc.w	r4, r4, #768	; 0x300
 800867c:	d204      	bcs.n	8008688 <__aeabi_dmul+0x80>
 800867e:	ea5f 0e4e 	movs.w	lr, lr, lsl #1
 8008682:	416d      	adcs	r5, r5
 8008684:	eb46 0606 	adc.w	r6, r6, r6
 8008688:	ea42 21c6 	orr.w	r1, r2, r6, lsl #11
 800868c:	ea41 5155 	orr.w	r1, r1, r5, lsr #21
 8008690:	ea4f 20c5 	mov.w	r0, r5, lsl #11
 8008694:	ea40 505e 	orr.w	r0, r0, lr, lsr #21
 8008698:	ea4f 2ece 	mov.w	lr, lr, lsl #11
 800869c:	f1b4 0cfd 	subs.w	ip, r4, #253	; 0xfd
 80086a0:	bf88      	it	hi
 80086a2:	f5bc 6fe0 	cmphi.w	ip, #1792	; 0x700
 80086a6:	d81e      	bhi.n	80086e6 <__aeabi_dmul+0xde>
 80086a8:	f1be 4f00 	cmp.w	lr, #2147483648	; 0x80000000
 80086ac:	bf08      	it	eq
 80086ae:	ea5f 0e50 	movseq.w	lr, r0, lsr #1
 80086b2:	f150 0000 	adcs.w	r0, r0, #0
 80086b6:	eb41 5104 	adc.w	r1, r1, r4, lsl #20
 80086ba:	bd70      	pop	{r4, r5, r6, pc}
 80086bc:	f006 4600 	and.w	r6, r6, #2147483648	; 0x80000000
 80086c0:	ea46 0101 	orr.w	r1, r6, r1
 80086c4:	ea40 0002 	orr.w	r0, r0, r2
 80086c8:	ea81 0103 	eor.w	r1, r1, r3
 80086cc:	ebb4 045c 	subs.w	r4, r4, ip, lsr #1
 80086d0:	bfc2      	ittt	gt
 80086d2:	ebd4 050c 	rsbsgt	r5, r4, ip
 80086d6:	ea41 5104 	orrgt.w	r1, r1, r4, lsl #20
 80086da:	bd70      	popgt	{r4, r5, r6, pc}
 80086dc:	f441 1180 	orr.w	r1, r1, #1048576	; 0x100000
 80086e0:	f04f 0e00 	mov.w	lr, #0
 80086e4:	3c01      	subs	r4, #1
 80086e6:	f300 80ab 	bgt.w	8008840 <__aeabi_dmul+0x238>
 80086ea:	f114 0f36 	cmn.w	r4, #54	; 0x36
 80086ee:	bfde      	ittt	le
 80086f0:	2000      	movle	r0, #0
 80086f2:	f001 4100 	andle.w	r1, r1, #2147483648	; 0x80000000
 80086f6:	bd70      	pople	{r4, r5, r6, pc}
 80086f8:	f1c4 0400 	rsb	r4, r4, #0
 80086fc:	3c20      	subs	r4, #32
 80086fe:	da35      	bge.n	800876c <__aeabi_dmul+0x164>
 8008700:	340c      	adds	r4, #12
 8008702:	dc1b      	bgt.n	800873c <__aeabi_dmul+0x134>
 8008704:	f104 0414 	add.w	r4, r4, #20
 8008708:	f1c4 0520 	rsb	r5, r4, #32
 800870c:	fa00 f305 	lsl.w	r3, r0, r5
 8008710:	fa20 f004 	lsr.w	r0, r0, r4
 8008714:	fa01 f205 	lsl.w	r2, r1, r5
 8008718:	ea40 0002 	orr.w	r0, r0, r2
 800871c:	f001 4200 	and.w	r2, r1, #2147483648	; 0x80000000
 8008720:	f021 4100 	bic.w	r1, r1, #2147483648	; 0x80000000
 8008724:	eb10 70d3 	adds.w	r0, r0, r3, lsr #31
 8008728:	fa21 f604 	lsr.w	r6, r1, r4
 800872c:	eb42 0106 	adc.w	r1, r2, r6
 8008730:	ea5e 0e43 	orrs.w	lr, lr, r3, lsl #1
 8008734:	bf08      	it	eq
 8008736:	ea20 70d3 	biceq.w	r0, r0, r3, lsr #31
 800873a:	bd70      	pop	{r4, r5, r6, pc}
 800873c:	f1c4 040c 	rsb	r4, r4, #12
 8008740:	f1c4 0520 	rsb	r5, r4, #32
 8008744:	fa00 f304 	lsl.w	r3, r0, r4
 8008748:	fa20 f005 	lsr.w	r0, r0, r5
 800874c:	fa01 f204 	lsl.w	r2, r1, r4
 8008750:	ea40 0002 	orr.w	r0, r0, r2
 8008754:	f001 4100 	and.w	r1, r1, #2147483648	; 0x80000000
 8008758:	eb10 70d3 	adds.w	r0, r0, r3, lsr #31
 800875c:	f141 0100 	adc.w	r1, r1, #0
 8008760:	ea5e 0e43 	orrs.w	lr, lr, r3, lsl #1
 8008764:	bf08      	it	eq
 8008766:	ea20 70d3 	biceq.w	r0, r0, r3, lsr #31
 800876a:	bd70      	pop	{r4, r5, r6, pc}
 800876c:	f1c4 0520 	rsb	r5, r4, #32
 8008770:	fa00 f205 	lsl.w	r2, r0, r5
 8008774:	ea4e 0e02 	orr.w	lr, lr, r2
 8008778:	fa20 f304 	lsr.w	r3, r0, r4
 800877c:	fa01 f205 	lsl.w	r2, r1, r5
 8008780:	ea43 0302 	orr.w	r3, r3, r2
 8008784:	fa21 f004 	lsr.w	r0, r1, r4
 8008788:	f001 4100 	and.w	r1, r1, #2147483648	; 0x80000000
 800878c:	fa21 f204 	lsr.w	r2, r1, r4
 8008790:	ea20 0002 	bic.w	r0, r0, r2
 8008794:	eb00 70d3 	add.w	r0, r0, r3, lsr #31
 8008798:	ea5e 0e43 	orrs.w	lr, lr, r3, lsl #1
 800879c:	bf08      	it	eq
 800879e:	ea20 70d3 	biceq.w	r0, r0, r3, lsr #31
 80087a2:	bd70      	pop	{r4, r5, r6, pc}
 80087a4:	f094 0f00 	teq	r4, #0
 80087a8:	d10f      	bne.n	80087ca <__aeabi_dmul+0x1c2>
 80087aa:	f001 4600 	and.w	r6, r1, #2147483648	; 0x80000000
 80087ae:	0040      	lsls	r0, r0, #1
 80087b0:	eb41 0101 	adc.w	r1, r1, r1
 80087b4:	f411 1f80 	tst.w	r1, #1048576	; 0x100000
 80087b8:	bf08      	it	eq
 80087ba:	3c01      	subeq	r4, #1
 80087bc:	d0f7      	beq.n	80087ae <__aeabi_dmul+0x1a6>
 80087be:	ea41 0106 	orr.w	r1, r1, r6
 80087c2:	f095 0f00 	teq	r5, #0
 80087c6:	bf18      	it	ne
 80087c8:	4770      	bxne	lr
 80087ca:	f003 4600 	and.w	r6, r3, #2147483648	; 0x80000000
 80087ce:	0052      	lsls	r2, r2, #1
 80087d0:	eb43 0303 	adc.w	r3, r3, r3
 80087d4:	f413 1f80 	tst.w	r3, #1048576	; 0x100000
 80087d8:	bf08      	it	eq
 80087da:	3d01      	subeq	r5, #1
 80087dc:	d0f7      	beq.n	80087ce <__aeabi_dmul+0x1c6>
 80087de:	ea43 0306 	orr.w	r3, r3, r6
 80087e2:	4770      	bx	lr
 80087e4:	ea94 0f0c 	teq	r4, ip
 80087e8:	ea0c 5513 	and.w	r5, ip, r3, lsr #20
 80087ec:	bf18      	it	ne
 80087ee:	ea95 0f0c 	teqne	r5, ip
 80087f2:	d00c      	beq.n	800880e <__aeabi_dmul+0x206>
 80087f4:	ea50 0641 	orrs.w	r6, r0, r1, lsl #1
 80087f8:	bf18      	it	ne
 80087fa:	ea52 0643 	orrsne.w	r6, r2, r3, lsl #1
 80087fe:	d1d1      	bne.n	80087a4 <__aeabi_dmul+0x19c>
 8008800:	ea81 0103 	eor.w	r1, r1, r3
 8008804:	f001 4100 	and.w	r1, r1, #2147483648	; 0x80000000
 8008808:	f04f 0000 	mov.w	r0, #0
 800880c:	bd70      	pop	{r4, r5, r6, pc}
 800880e:	ea50 0641 	orrs.w	r6, r0, r1, lsl #1
 8008812:	bf06      	itte	eq
 8008814:	4610      	moveq	r0, r2
 8008816:	4619      	moveq	r1, r3
 8008818:	ea52 0643 	orrsne.w	r6, r2, r3, lsl #1
 800881c:	d019      	beq.n	8008852 <__aeabi_dmul+0x24a>
 800881e:	ea94 0f0c 	teq	r4, ip
 8008822:	d102      	bne.n	800882a <__aeabi_dmul+0x222>
 8008824:	ea50 3601 	orrs.w	r6, r0, r1, lsl #12
 8008828:	d113      	bne.n	8008852 <__aeabi_dmul+0x24a>
 800882a:	ea95 0f0c 	teq	r5, ip
 800882e:	d105      	bne.n	800883c <__aeabi_dmul+0x234>
 8008830:	ea52 3603 	orrs.w	r6, r2, r3, lsl #12
 8008834:	bf1c      	itt	ne
 8008836:	4610      	movne	r0, r2
 8008838:	4619      	movne	r1, r3
 800883a:	d10a      	bne.n	8008852 <__aeabi_dmul+0x24a>
 800883c:	ea81 0103 	eor.w	r1, r1, r3
 8008840:	f001 4100 	and.w	r1, r1, #2147483648	; 0x80000000
 8008844:	f041 41fe 	orr.w	r1, r1, #2130706432	; 0x7f000000
 8008848:	f441 0170 	orr.w	r1, r1, #15728640	; 0xf00000
 800884c:	f04f 0000 	mov.w	r0, #0
 8008850:	bd70      	pop	{r4, r5, r6, pc}
 8008852:	f041 41fe 	orr.w	r1, r1, #2130706432	; 0x7f000000
 8008856:	f441 0178 	orr.w	r1, r1, #16252928	; 0xf80000
 800885a:	bd70      	pop	{r4, r5, r6, pc}

0800885c <__aeabi_ddiv>:
 800885c:	b570      	push	{r4, r5, r6, lr}
 800885e:	f04f 0cff 	mov.w	ip, #255	; 0xff
 8008862:	f44c 6ce0 	orr.w	ip, ip, #1792	; 0x700
 8008866:	ea1c 5411 	ands.w	r4, ip, r1, lsr #20
 800886a:	bf1d      	ittte	ne
 800886c:	ea1c 5513 	andsne.w	r5, ip, r3, lsr #20
 8008870:	ea94 0f0c 	teqne	r4, ip
 8008874:	ea95 0f0c 	teqne	r5, ip
 8008878:	f000 f8a7 	bleq	80089ca <__aeabi_ddiv+0x16e>
 800887c:	eba4 0405 	sub.w	r4, r4, r5
 8008880:	ea81 0e03 	eor.w	lr, r1, r3
 8008884:	ea52 3503 	orrs.w	r5, r2, r3, lsl #12
 8008888:	ea4f 3101 	mov.w	r1, r1, lsl #12
 800888c:	f000 8088 	beq.w	80089a0 <__aeabi_ddiv+0x144>
 8008890:	ea4f 3303 	mov.w	r3, r3, lsl #12
 8008894:	f04f 5580 	mov.w	r5, #268435456	; 0x10000000
 8008898:	ea45 1313 	orr.w	r3, r5, r3, lsr #4
 800889c:	ea43 6312 	orr.w	r3, r3, r2, lsr #24
 80088a0:	ea4f 2202 	mov.w	r2, r2, lsl #8
 80088a4:	ea45 1511 	orr.w	r5, r5, r1, lsr #4
 80088a8:	ea45 6510 	orr.w	r5, r5, r0, lsr #24
 80088ac:	ea4f 2600 	mov.w	r6, r0, lsl #8
 80088b0:	f00e 4100 	and.w	r1, lr, #2147483648	; 0x80000000
 80088b4:	429d      	cmp	r5, r3
 80088b6:	bf08      	it	eq
 80088b8:	4296      	cmpeq	r6, r2
 80088ba:	f144 04fd 	adc.w	r4, r4, #253	; 0xfd
 80088be:	f504 7440 	add.w	r4, r4, #768	; 0x300
 80088c2:	d202      	bcs.n	80088ca <__aeabi_ddiv+0x6e>
 80088c4:	085b      	lsrs	r3, r3, #1
 80088c6:	ea4f 0232 	mov.w	r2, r2, rrx
 80088ca:	1ab6      	subs	r6, r6, r2
 80088cc:	eb65 0503 	sbc.w	r5, r5, r3
 80088d0:	085b      	lsrs	r3, r3, #1
 80088d2:	ea4f 0232 	mov.w	r2, r2, rrx
 80088d6:	f44f 1080 	mov.w	r0, #1048576	; 0x100000
 80088da:	f44f 2c00 	mov.w	ip, #524288	; 0x80000
 80088de:	ebb6 0e02 	subs.w	lr, r6, r2
 80088e2:	eb75 0e03 	sbcs.w	lr, r5, r3
 80088e6:	bf22      	ittt	cs
 80088e8:	1ab6      	subcs	r6, r6, r2
 80088ea:	4675      	movcs	r5, lr
 80088ec:	ea40 000c 	orrcs.w	r0, r0, ip
 80088f0:	085b      	lsrs	r3, r3, #1
 80088f2:	ea4f 0232 	mov.w	r2, r2, rrx
 80088f6:	ebb6 0e02 	subs.w	lr, r6, r2
 80088fa:	eb75 0e03 	sbcs.w	lr, r5, r3
 80088fe:	bf22      	ittt	cs
 8008900:	1ab6      	subcs	r6, r6, r2
 8008902:	4675      	movcs	r5, lr
 8008904:	ea40 005c 	orrcs.w	r0, r0, ip, lsr #1
 8008908:	085b      	lsrs	r3, r3, #1
 800890a:	ea4f 0232 	mov.w	r2, r2, rrx
 800890e:	ebb6 0e02 	subs.w	lr, r6, r2
 8008912:	eb75 0e03 	sbcs.w	lr, r5, r3
 8008916:	bf22      	ittt	cs
 8008918:	1ab6      	subcs	r6, r6, r2
 800891a:	4675      	movcs	r5, lr
 800891c:	ea40 009c 	orrcs.w	r0, r0, ip, lsr #2
 8008920:	085b      	lsrs	r3, r3, #1
 8008922:	ea4f 0232 	mov.w	r2, r2, rrx
 8008926:	ebb6 0e02 	subs.w	lr, r6, r2
 800892a:	eb75 0e03 	sbcs.w	lr, r5, r3
 800892e:	bf22      	ittt	cs
 8008930:	1ab6      	subcs	r6, r6, r2
 8008932:	4675      	movcs	r5, lr
 8008934:	ea40 00dc 	orrcs.w	r0, r0, ip, lsr #3
 8008938:	ea55 0e06 	orrs.w	lr, r5, r6
 800893c:	d018      	beq.n	8008970 <__aeabi_ddiv+0x114>
 800893e:	ea4f 1505 	mov.w	r5, r5, lsl #4
 8008942:	ea45 7516 	orr.w	r5, r5, r6, lsr #28
 8008946:	ea4f 1606 	mov.w	r6, r6, lsl #4
 800894a:	ea4f 03c3 	mov.w	r3, r3, lsl #3
 800894e:	ea43 7352 	orr.w	r3, r3, r2, lsr #29
 8008952:	ea4f 02c2 	mov.w	r2, r2, lsl #3
 8008956:	ea5f 1c1c 	movs.w	ip, ip, lsr #4
 800895a:	d1c0      	bne.n	80088de <__aeabi_ddiv+0x82>
 800895c:	f411 1f80 	tst.w	r1, #1048576	; 0x100000
 8008960:	d10b      	bne.n	800897a <__aeabi_ddiv+0x11e>
 8008962:	ea41 0100 	orr.w	r1, r1, r0
 8008966:	f04f 0000 	mov.w	r0, #0
 800896a:	f04f 4c00 	mov.w	ip, #2147483648	; 0x80000000
 800896e:	e7b6      	b.n	80088de <__aeabi_ddiv+0x82>
 8008970:	f411 1f80 	tst.w	r1, #1048576	; 0x100000
 8008974:	bf04      	itt	eq
 8008976:	4301      	orreq	r1, r0
 8008978:	2000      	moveq	r0, #0
 800897a:	f1b4 0cfd 	subs.w	ip, r4, #253	; 0xfd
 800897e:	bf88      	it	hi
 8008980:	f5bc 6fe0 	cmphi.w	ip, #1792	; 0x700
 8008984:	f63f aeaf 	bhi.w	80086e6 <__aeabi_dmul+0xde>
 8008988:	ebb5 0c03 	subs.w	ip, r5, r3
 800898c:	bf04      	itt	eq
 800898e:	ebb6 0c02 	subseq.w	ip, r6, r2
 8008992:	ea5f 0c50 	movseq.w	ip, r0, lsr #1
 8008996:	f150 0000 	adcs.w	r0, r0, #0
 800899a:	eb41 5104 	adc.w	r1, r1, r4, lsl #20
 800899e:	bd70      	pop	{r4, r5, r6, pc}
 80089a0:	f00e 4e00 	and.w	lr, lr, #2147483648	; 0x80000000
 80089a4:	ea4e 3111 	orr.w	r1, lr, r1, lsr #12
 80089a8:	eb14 045c 	adds.w	r4, r4, ip, lsr #1
 80089ac:	bfc2      	ittt	gt
 80089ae:	ebd4 050c 	rsbsgt	r5, r4, ip
 80089b2:	ea41 5104 	orrgt.w	r1, r1, r4, lsl #20
 80089b6:	bd70      	popgt	{r4, r5, r6, pc}
 80089b8:	f441 1180 	orr.w	r1, r1, #1048576	; 0x100000
 80089bc:	f04f 0e00 	mov.w	lr, #0
 80089c0:	3c01      	subs	r4, #1
 80089c2:	e690      	b.n	80086e6 <__aeabi_dmul+0xde>
 80089c4:	ea45 0e06 	orr.w	lr, r5, r6
 80089c8:	e68d      	b.n	80086e6 <__aeabi_dmul+0xde>
 80089ca:	ea0c 5513 	and.w	r5, ip, r3, lsr #20
 80089ce:	ea94 0f0c 	teq	r4, ip
 80089d2:	bf08      	it	eq
 80089d4:	ea95 0f0c 	teqeq	r5, ip
 80089d8:	f43f af3b 	beq.w	8008852 <__aeabi_dmul+0x24a>
 80089dc:	ea94 0f0c 	teq	r4, ip
 80089e0:	d10a      	bne.n	80089f8 <__aeabi_ddiv+0x19c>
 80089e2:	ea50 3401 	orrs.w	r4, r0, r1, lsl #12
 80089e6:	f47f af34 	bne.w	8008852 <__aeabi_dmul+0x24a>
 80089ea:	ea95 0f0c 	teq	r5, ip
 80089ee:	f47f af25 	bne.w	800883c <__aeabi_dmul+0x234>
 80089f2:	4610      	mov	r0, r2
 80089f4:	4619      	mov	r1, r3
 80089f6:	e72c      	b.n	8008852 <__aeabi_dmul+0x24a>
 80089f8:	ea95 0f0c 	teq	r5, ip
 80089fc:	d106      	bne.n	8008a0c <__aeabi_ddiv+0x1b0>
 80089fe:	ea52 3503 	orrs.w	r5, r2, r3, lsl #12
 8008a02:	f43f aefd 	beq.w	8008800 <__aeabi_dmul+0x1f8>
 8008a06:	4610      	mov	r0, r2
 8008a08:	4619      	mov	r1, r3
 8008a0a:	e722      	b.n	8008852 <__aeabi_dmul+0x24a>
 8008a0c:	ea50 0641 	orrs.w	r6, r0, r1, lsl #1
 8008a10:	bf18      	it	ne
 8008a12:	ea52 0643 	orrsne.w	r6, r2, r3, lsl #1
 8008a16:	f47f aec5 	bne.w	80087a4 <__aeabi_dmul+0x19c>
 8008a1a:	ea50 0441 	orrs.w	r4, r0, r1, lsl #1
 8008a1e:	f47f af0d 	bne.w	800883c <__aeabi_dmul+0x234>
 8008a22:	ea52 0543 	orrs.w	r5, r2, r3, lsl #1
 8008a26:	f47f aeeb 	bne.w	8008800 <__aeabi_dmul+0x1f8>
 8008a2a:	e712      	b.n	8008852 <__aeabi_dmul+0x24a>

08008a2c <__gedf2>:
 8008a2c:	f04f 3cff 	mov.w	ip, #4294967295	; 0xffffffff
 8008a30:	e006      	b.n	8008a40 <__cmpdf2+0x4>
 8008a32:	bf00      	nop

08008a34 <__ledf2>:
 8008a34:	f04f 0c01 	mov.w	ip, #1
 8008a38:	e002      	b.n	8008a40 <__cmpdf2+0x4>
 8008a3a:	bf00      	nop

08008a3c <__cmpdf2>:
 8008a3c:	f04f 0c01 	mov.w	ip, #1
 8008a40:	f84d cd04 	str.w	ip, [sp, #-4]!
 8008a44:	ea4f 0c41 	mov.w	ip, r1, lsl #1
 8008a48:	ea7f 5c6c 	mvns.w	ip, ip, asr #21
 8008a4c:	ea4f 0c43 	mov.w	ip, r3, lsl #1
 8008a50:	bf18      	it	ne
 8008a52:	ea7f 5c6c 	mvnsne.w	ip, ip, asr #21
 8008a56:	d01b      	beq.n	8008a90 <__cmpdf2+0x54>
 8008a58:	b001      	add	sp, #4
 8008a5a:	ea50 0c41 	orrs.w	ip, r0, r1, lsl #1
 8008a5e:	bf0c      	ite	eq
 8008a60:	ea52 0c43 	orrseq.w	ip, r2, r3, lsl #1
 8008a64:	ea91 0f03 	teqne	r1, r3
 8008a68:	bf02      	ittt	eq
 8008a6a:	ea90 0f02 	teqeq	r0, r2
 8008a6e:	2000      	moveq	r0, #0
 8008a70:	4770      	bxeq	lr
 8008a72:	f110 0f00 	cmn.w	r0, #0
 8008a76:	ea91 0f03 	teq	r1, r3
 8008a7a:	bf58      	it	pl
 8008a7c:	4299      	cmppl	r1, r3
 8008a7e:	bf08      	it	eq
 8008a80:	4290      	cmpeq	r0, r2
 8008a82:	bf2c      	ite	cs
 8008a84:	17d8      	asrcs	r0, r3, #31
 8008a86:	ea6f 70e3 	mvncc.w	r0, r3, asr #31
 8008a8a:	f040 0001 	orr.w	r0, r0, #1
 8008a8e:	4770      	bx	lr
 8008a90:	ea4f 0c41 	mov.w	ip, r1, lsl #1
 8008a94:	ea7f 5c6c 	mvns.w	ip, ip, asr #21
 8008a98:	d102      	bne.n	8008aa0 <__cmpdf2+0x64>
 8008a9a:	ea50 3c01 	orrs.w	ip, r0, r1, lsl #12
 8008a9e:	d107      	bne.n	8008ab0 <__cmpdf2+0x74>
 8008aa0:	ea4f 0c43 	mov.w	ip, r3, lsl #1
 8008aa4:	ea7f 5c6c 	mvns.w	ip, ip, asr #21
 8008aa8:	d1d6      	bne.n	8008a58 <__cmpdf2+0x1c>
 8008aaa:	ea52 3c03 	orrs.w	ip, r2, r3, lsl #12
 8008aae:	d0d3      	beq.n	8008a58 <__cmpdf2+0x1c>
 8008ab0:	f85d 0b04 	ldr.w	r0, [sp], #4
 8008ab4:	4770      	bx	lr
 8008ab6:	bf00      	nop

08008ab8 <__aeabi_cdrcmple>:
 8008ab8:	4684      	mov	ip, r0
 8008aba:	4610      	mov	r0, r2
 8008abc:	4662      	mov	r2, ip
 8008abe:	468c      	mov	ip, r1
 8008ac0:	4619      	mov	r1, r3
 8008ac2:	4663      	mov	r3, ip
 8008ac4:	e000      	b.n	8008ac8 <__aeabi_cdcmpeq>
 8008ac6:	bf00      	nop

08008ac8 <__aeabi_cdcmpeq>:
 8008ac8:	b501      	push	{r0, lr}
 8008aca:	f7ff ffb7 	bl	8008a3c <__cmpdf2>
 8008ace:	2800      	cmp	r0, #0
 8008ad0:	bf48      	it	mi
 8008ad2:	f110 0f00 	cmnmi.w	r0, #0
 8008ad6:	bd01      	pop	{r0, pc}

08008ad8 <__aeabi_dcmpeq>:
 8008ad8:	f84d ed08 	str.w	lr, [sp, #-8]!
 8008adc:	f7ff fff4 	bl	8008ac8 <__aeabi_cdcmpeq>
 8008ae0:	bf0c      	ite	eq
 8008ae2:	2001      	moveq	r0, #1
 8008ae4:	2000      	movne	r0, #0
 8008ae6:	f85d fb08 	ldr.w	pc, [sp], #8
 8008aea:	bf00      	nop

08008aec <__aeabi_dcmplt>:
 8008aec:	f84d ed08 	str.w	lr, [sp, #-8]!
 8008af0:	f7ff ffea 	bl	8008ac8 <__aeabi_cdcmpeq>
 8008af4:	bf34      	ite	cc
 8008af6:	2001      	movcc	r0, #1
 8008af8:	2000      	movcs	r0, #0
 8008afa:	f85d fb08 	ldr.w	pc, [sp], #8
 8008afe:	bf00      	nop

08008b00 <__aeabi_dcmple>:
 8008b00:	f84d ed08 	str.w	lr, [sp, #-8]!
 8008b04:	f7ff ffe0 	bl	8008ac8 <__aeabi_cdcmpeq>
 8008b08:	bf94      	ite	ls
 8008b0a:	2001      	movls	r0, #1
 8008b0c:	2000      	movhi	r0, #0
 8008b0e:	f85d fb08 	ldr.w	pc, [sp], #8
 8008b12:	bf00      	nop

08008b14 <__aeabi_dcmpge>:
 8008b14:	f84d ed08 	str.w	lr, [sp, #-8]!
 8008b18:	f7ff ffce 	bl	8008ab8 <__aeabi_cdrcmple>
 8008b1c:	bf94      	ite	ls
 8008b1e:	2001      	movls	r0, #1
 8008b20:	2000      	movhi	r0, #0
 8008b22:	f85d fb08 	ldr.w	pc, [sp], #8
 8008b26:	bf00      	nop

08008b28 <__aeabi_dcmpgt>:
 8008b28:	f84d ed08 	str.w	lr, [sp, #-8]!
 8008b2c:	f7ff ffc4 	bl	8008ab8 <__aeabi_cdrcmple>
 8008b30:	bf34      	ite	cc
 8008b32:	2001      	movcc	r0, #1
 8008b34:	2000      	movcs	r0, #0
 8008b36:	f85d fb08 	ldr.w	pc, [sp], #8
 8008b3a:	bf00      	nop

08008b3c <__aeabi_dcmpun>:
 8008b3c:	ea4f 0c41 	mov.w	ip, r1, lsl #1
 8008b40:	ea7f 5c6c 	mvns.w	ip, ip, asr #21
 8008b44:	d102      	bne.n	8008b4c <__aeabi_dcmpun+0x10>
 8008b46:	ea50 3c01 	orrs.w	ip, r0, r1, lsl #12
 8008b4a:	d10a      	bne.n	8008b62 <__aeabi_dcmpun+0x26>
 8008b4c:	ea4f 0c43 	mov.w	ip, r3, lsl #1
 8008b50:	ea7f 5c6c 	mvns.w	ip, ip, asr #21
 8008b54:	d102      	bne.n	8008b5c <__aeabi_dcmpun+0x20>
 8008b56:	ea52 3c03 	orrs.w	ip, r2, r3, lsl #12
 8008b5a:	d102      	bne.n	8008b62 <__aeabi_dcmpun+0x26>
 8008b5c:	f04f 0000 	mov.w	r0, #0
 8008b60:	4770      	bx	lr
 8008b62:	f04f 0001 	mov.w	r0, #1
 8008b66:	4770      	bx	lr

08008b68 <__aeabi_d2iz>:
 8008b68:	ea4f 0241 	mov.w	r2, r1, lsl #1
 8008b6c:	f512 1200 	adds.w	r2, r2, #2097152	; 0x200000
 8008b70:	d215      	bcs.n	8008b9e <__aeabi_d2iz+0x36>
 8008b72:	d511      	bpl.n	8008b98 <__aeabi_d2iz+0x30>
 8008b74:	f46f 7378 	mvn.w	r3, #992	; 0x3e0
 8008b78:	ebb3 5262 	subs.w	r2, r3, r2, asr #21
 8008b7c:	d912      	bls.n	8008ba4 <__aeabi_d2iz+0x3c>
 8008b7e:	ea4f 23c1 	mov.w	r3, r1, lsl #11
 8008b82:	f043 4300 	orr.w	r3, r3, #2147483648	; 0x80000000
 8008b86:	ea43 5350 	orr.w	r3, r3, r0, lsr #21
 8008b8a:	f011 4f00 	tst.w	r1, #2147483648	; 0x80000000
 8008b8e:	fa23 f002 	lsr.w	r0, r3, r2
 8008b92:	bf18      	it	ne
 8008b94:	4240      	negne	r0, r0
 8008b96:	4770      	bx	lr
 8008b98:	f04f 0000 	mov.w	r0, #0
 8008b9c:	4770      	bx	lr
 8008b9e:	ea50 3001 	orrs.w	r0, r0, r1, lsl #12
 8008ba2:	d105      	bne.n	8008bb0 <__aeabi_d2iz+0x48>
 8008ba4:	f011 4000 	ands.w	r0, r1, #2147483648	; 0x80000000
 8008ba8:	bf08      	it	eq
 8008baa:	f06f 4000 	mvneq.w	r0, #2147483648	; 0x80000000
 8008bae:	4770      	bx	lr
 8008bb0:	f04f 0000 	mov.w	r0, #0
 8008bb4:	4770      	bx	lr
 8008bb6:	bf00      	nop

08008bb8 <__aeabi_d2f>:
 8008bb8:	ea4f 0241 	mov.w	r2, r1, lsl #1
 8008bbc:	f1b2 43e0 	subs.w	r3, r2, #1879048192	; 0x70000000
 8008bc0:	bf24      	itt	cs
 8008bc2:	f5b3 1c00 	subscs.w	ip, r3, #2097152	; 0x200000
 8008bc6:	f1dc 5cfe 	rsbscs	ip, ip, #532676608	; 0x1fc00000
 8008bca:	d90d      	bls.n	8008be8 <__aeabi_d2f+0x30>
 8008bcc:	f001 4c00 	and.w	ip, r1, #2147483648	; 0x80000000
 8008bd0:	ea4f 02c0 	mov.w	r2, r0, lsl #3
 8008bd4:	ea4c 7050 	orr.w	r0, ip, r0, lsr #29
 8008bd8:	f1b2 4f00 	cmp.w	r2, #2147483648	; 0x80000000
 8008bdc:	eb40 0083 	adc.w	r0, r0, r3, lsl #2
 8008be0:	bf08      	it	eq
 8008be2:	f020 0001 	biceq.w	r0, r0, #1
 8008be6:	4770      	bx	lr
 8008be8:	f011 4f80 	tst.w	r1, #1073741824	; 0x40000000
 8008bec:	d121      	bne.n	8008c32 <__aeabi_d2f+0x7a>
 8008bee:	f113 7238 	adds.w	r2, r3, #48234496	; 0x2e00000
 8008bf2:	bfbc      	itt	lt
 8008bf4:	f001 4000 	andlt.w	r0, r1, #2147483648	; 0x80000000
 8008bf8:	4770      	bxlt	lr
 8008bfa:	f441 1180 	orr.w	r1, r1, #1048576	; 0x100000
 8008bfe:	ea4f 5252 	mov.w	r2, r2, lsr #21
 8008c02:	f1c2 0218 	rsb	r2, r2, #24
 8008c06:	f1c2 0c20 	rsb	ip, r2, #32
 8008c0a:	fa10 f30c 	lsls.w	r3, r0, ip
 8008c0e:	fa20 f002 	lsr.w	r0, r0, r2
 8008c12:	bf18      	it	ne
 8008c14:	f040 0001 	orrne.w	r0, r0, #1
 8008c18:	ea4f 23c1 	mov.w	r3, r1, lsl #11
 8008c1c:	ea4f 23d3 	mov.w	r3, r3, lsr #11
 8008c20:	fa03 fc0c 	lsl.w	ip, r3, ip
 8008c24:	ea40 000c 	orr.w	r0, r0, ip
 8008c28:	fa23 f302 	lsr.w	r3, r3, r2
 8008c2c:	ea4f 0343 	mov.w	r3, r3, lsl #1
 8008c30:	e7cc      	b.n	8008bcc <__aeabi_d2f+0x14>
 8008c32:	ea7f 5362 	mvns.w	r3, r2, asr #21
 8008c36:	d107      	bne.n	8008c48 <__aeabi_d2f+0x90>
 8008c38:	ea50 3301 	orrs.w	r3, r0, r1, lsl #12
 8008c3c:	bf1e      	ittt	ne
 8008c3e:	f04f 40fe 	movne.w	r0, #2130706432	; 0x7f000000
 8008c42:	f440 0040 	orrne.w	r0, r0, #12582912	; 0xc00000
 8008c46:	4770      	bxne	lr
 8008c48:	f001 4000 	and.w	r0, r1, #2147483648	; 0x80000000
 8008c4c:	f040 40fe 	orr.w	r0, r0, #2130706432	; 0x7f000000
 8008c50:	f440 0000 	orr.w	r0, r0, #8388608	; 0x800000
 8008c54:	4770      	bx	lr
 8008c56:	bf00      	nop

08008c58 <__aeabi_uldivmod>:
 8008c58:	b953      	cbnz	r3, 8008c70 <__aeabi_uldivmod+0x18>
 8008c5a:	b94a      	cbnz	r2, 8008c70 <__aeabi_uldivmod+0x18>
 8008c5c:	2900      	cmp	r1, #0
 8008c5e:	bf08      	it	eq
 8008c60:	2800      	cmpeq	r0, #0
 8008c62:	bf1c      	itt	ne
 8008c64:	f04f 31ff 	movne.w	r1, #4294967295	; 0xffffffff
 8008c68:	f04f 30ff 	movne.w	r0, #4294967295	; 0xffffffff
 8008c6c:	f000 b96e 	b.w	8008f4c <__aeabi_idiv0>
 8008c70:	f1ad 0c08 	sub.w	ip, sp, #8
 8008c74:	e96d ce04 	strd	ip, lr, [sp, #-16]!
 8008c78:	f000 f806 	bl	8008c88 <__udivmoddi4>
 8008c7c:	f8dd e004 	ldr.w	lr, [sp, #4]
 8008c80:	e9dd 2302 	ldrd	r2, r3, [sp, #8]
 8008c84:	b004      	add	sp, #16
 8008c86:	4770      	bx	lr

08008c88 <__udivmoddi4>:
 8008c88:	e92d 47f0 	stmdb	sp!, {r4, r5, r6, r7, r8, r9, sl, lr}
 8008c8c:	9d08      	ldr	r5, [sp, #32]
 8008c8e:	4604      	mov	r4, r0
 8008c90:	468c      	mov	ip, r1
 8008c92:	2b00      	cmp	r3, #0
 8008c94:	f040 8083 	bne.w	8008d9e <__udivmoddi4+0x116>
 8008c98:	428a      	cmp	r2, r1
 8008c9a:	4617      	mov	r7, r2
 8008c9c:	d947      	bls.n	8008d2e <__udivmoddi4+0xa6>
 8008c9e:	fab2 f282 	clz	r2, r2
 8008ca2:	b142      	cbz	r2, 8008cb6 <__udivmoddi4+0x2e>
 8008ca4:	f1c2 0020 	rsb	r0, r2, #32
 8008ca8:	fa24 f000 	lsr.w	r0, r4, r0
 8008cac:	4091      	lsls	r1, r2
 8008cae:	4097      	lsls	r7, r2
 8008cb0:	ea40 0c01 	orr.w	ip, r0, r1
 8008cb4:	4094      	lsls	r4, r2
 8008cb6:	ea4f 4817 	mov.w	r8, r7, lsr #16
 8008cba:	0c23      	lsrs	r3, r4, #16
 8008cbc:	fbbc f6f8 	udiv	r6, ip, r8
 8008cc0:	fa1f fe87 	uxth.w	lr, r7
 8008cc4:	fb08 c116 	mls	r1, r8, r6, ip
 8008cc8:	ea43 4301 	orr.w	r3, r3, r1, lsl #16
 8008ccc:	fb06 f10e 	mul.w	r1, r6, lr
 8008cd0:	4299      	cmp	r1, r3
 8008cd2:	d909      	bls.n	8008ce8 <__udivmoddi4+0x60>
 8008cd4:	18fb      	adds	r3, r7, r3
 8008cd6:	f106 30ff 	add.w	r0, r6, #4294967295	; 0xffffffff
 8008cda:	f080 8119 	bcs.w	8008f10 <__udivmoddi4+0x288>
 8008cde:	4299      	cmp	r1, r3
 8008ce0:	f240 8116 	bls.w	8008f10 <__udivmoddi4+0x288>
 8008ce4:	3e02      	subs	r6, #2
 8008ce6:	443b      	add	r3, r7
 8008ce8:	1a5b      	subs	r3, r3, r1
 8008cea:	b2a4      	uxth	r4, r4
 8008cec:	fbb3 f0f8 	udiv	r0, r3, r8
 8008cf0:	fb08 3310 	mls	r3, r8, r0, r3
 8008cf4:	ea44 4403 	orr.w	r4, r4, r3, lsl #16
 8008cf8:	fb00 fe0e 	mul.w	lr, r0, lr
 8008cfc:	45a6      	cmp	lr, r4
 8008cfe:	d909      	bls.n	8008d14 <__udivmoddi4+0x8c>
 8008d00:	193c      	adds	r4, r7, r4
 8008d02:	f100 33ff 	add.w	r3, r0, #4294967295	; 0xffffffff
 8008d06:	f080 8105 	bcs.w	8008f14 <__udivmoddi4+0x28c>
 8008d0a:	45a6      	cmp	lr, r4
 8008d0c:	f240 8102 	bls.w	8008f14 <__udivmoddi4+0x28c>
 8008d10:	3802      	subs	r0, #2
 8008d12:	443c      	add	r4, r7
 8008d14:	ea40 4006 	orr.w	r0, r0, r6, lsl #16
 8008d18:	eba4 040e 	sub.w	r4, r4, lr
 8008d1c:	2600      	movs	r6, #0
 8008d1e:	b11d      	cbz	r5, 8008d28 <__udivmoddi4+0xa0>
 8008d20:	40d4      	lsrs	r4, r2
 8008d22:	2300      	movs	r3, #0
 8008d24:	e9c5 4300 	strd	r4, r3, [r5]
 8008d28:	4631      	mov	r1, r6
 8008d2a:	e8bd 87f0 	ldmia.w	sp!, {r4, r5, r6, r7, r8, r9, sl, pc}
 8008d2e:	b902      	cbnz	r2, 8008d32 <__udivmoddi4+0xaa>
 8008d30:	deff      	udf	#255	; 0xff
 8008d32:	fab2 f282 	clz	r2, r2
 8008d36:	2a00      	cmp	r2, #0
 8008d38:	d150      	bne.n	8008ddc <__udivmoddi4+0x154>
 8008d3a:	1bcb      	subs	r3, r1, r7
 8008d3c:	ea4f 4e17 	mov.w	lr, r7, lsr #16
 8008d40:	fa1f f887 	uxth.w	r8, r7
 8008d44:	2601      	movs	r6, #1
 8008d46:	fbb3 fcfe 	udiv	ip, r3, lr
 8008d4a:	0c21      	lsrs	r1, r4, #16
 8008d4c:	fb0e 331c 	mls	r3, lr, ip, r3
 8008d50:	ea41 4103 	orr.w	r1, r1, r3, lsl #16
 8008d54:	fb08 f30c 	mul.w	r3, r8, ip
 8008d58:	428b      	cmp	r3, r1
 8008d5a:	d907      	bls.n	8008d6c <__udivmoddi4+0xe4>
 8008d5c:	1879      	adds	r1, r7, r1
 8008d5e:	f10c 30ff 	add.w	r0, ip, #4294967295	; 0xffffffff
 8008d62:	d202      	bcs.n	8008d6a <__udivmoddi4+0xe2>
 8008d64:	428b      	cmp	r3, r1
 8008d66:	f200 80e9 	bhi.w	8008f3c <__udivmoddi4+0x2b4>
 8008d6a:	4684      	mov	ip, r0
 8008d6c:	1ac9      	subs	r1, r1, r3
 8008d6e:	b2a3      	uxth	r3, r4
 8008d70:	fbb1 f0fe 	udiv	r0, r1, lr
 8008d74:	fb0e 1110 	mls	r1, lr, r0, r1
 8008d78:	ea43 4401 	orr.w	r4, r3, r1, lsl #16
 8008d7c:	fb08 f800 	mul.w	r8, r8, r0
 8008d80:	45a0      	cmp	r8, r4
 8008d82:	d907      	bls.n	8008d94 <__udivmoddi4+0x10c>
 8008d84:	193c      	adds	r4, r7, r4
 8008d86:	f100 33ff 	add.w	r3, r0, #4294967295	; 0xffffffff
 8008d8a:	d202      	bcs.n	8008d92 <__udivmoddi4+0x10a>
 8008d8c:	45a0      	cmp	r8, r4
 8008d8e:	f200 80d9 	bhi.w	8008f44 <__udivmoddi4+0x2bc>
 8008d92:	4618      	mov	r0, r3
 8008d94:	eba4 0408 	sub.w	r4, r4, r8
 8008d98:	ea40 400c 	orr.w	r0, r0, ip, lsl #16
 8008d9c:	e7bf      	b.n	8008d1e <__udivmoddi4+0x96>
 8008d9e:	428b      	cmp	r3, r1
 8008da0:	d909      	bls.n	8008db6 <__udivmoddi4+0x12e>
 8008da2:	2d00      	cmp	r5, #0
 8008da4:	f000 80b1 	beq.w	8008f0a <__udivmoddi4+0x282>
 8008da8:	2600      	movs	r6, #0
 8008daa:	e9c5 0100 	strd	r0, r1, [r5]
 8008dae:	4630      	mov	r0, r6
 8008db0:	4631      	mov	r1, r6
 8008db2:	e8bd 87f0 	ldmia.w	sp!, {r4, r5, r6, r7, r8, r9, sl, pc}
 8008db6:	fab3 f683 	clz	r6, r3
 8008dba:	2e00      	cmp	r6, #0
 8008dbc:	d14a      	bne.n	8008e54 <__udivmoddi4+0x1cc>
 8008dbe:	428b      	cmp	r3, r1
 8008dc0:	d302      	bcc.n	8008dc8 <__udivmoddi4+0x140>
 8008dc2:	4282      	cmp	r2, r0
 8008dc4:	f200 80b8 	bhi.w	8008f38 <__udivmoddi4+0x2b0>
 8008dc8:	1a84      	subs	r4, r0, r2
 8008dca:	eb61 0103 	sbc.w	r1, r1, r3
 8008dce:	2001      	movs	r0, #1
 8008dd0:	468c      	mov	ip, r1
 8008dd2:	2d00      	cmp	r5, #0
 8008dd4:	d0a8      	beq.n	8008d28 <__udivmoddi4+0xa0>
 8008dd6:	e9c5 4c00 	strd	r4, ip, [r5]
 8008dda:	e7a5      	b.n	8008d28 <__udivmoddi4+0xa0>
 8008ddc:	f1c2 0320 	rsb	r3, r2, #32
 8008de0:	fa20 f603 	lsr.w	r6, r0, r3
 8008de4:	4097      	lsls	r7, r2
 8008de6:	fa01 f002 	lsl.w	r0, r1, r2
 8008dea:	ea4f 4e17 	mov.w	lr, r7, lsr #16
 8008dee:	40d9      	lsrs	r1, r3
 8008df0:	4330      	orrs	r0, r6
 8008df2:	0c03      	lsrs	r3, r0, #16
 8008df4:	fbb1 f6fe 	udiv	r6, r1, lr
 8008df8:	fa1f f887 	uxth.w	r8, r7
 8008dfc:	fb0e 1116 	mls	r1, lr, r6, r1
 8008e00:	ea43 4301 	orr.w	r3, r3, r1, lsl #16
 8008e04:	fb06 f108 	mul.w	r1, r6, r8
 8008e08:	4299      	cmp	r1, r3
 8008e0a:	fa04 f402 	lsl.w	r4, r4, r2
 8008e0e:	d909      	bls.n	8008e24 <__udivmoddi4+0x19c>
 8008e10:	18fb      	adds	r3, r7, r3
 8008e12:	f106 3cff 	add.w	ip, r6, #4294967295	; 0xffffffff
 8008e16:	f080 808d 	bcs.w	8008f34 <__udivmoddi4+0x2ac>
 8008e1a:	4299      	cmp	r1, r3
 8008e1c:	f240 808a 	bls.w	8008f34 <__udivmoddi4+0x2ac>
 8008e20:	3e02      	subs	r6, #2
 8008e22:	443b      	add	r3, r7
 8008e24:	1a5b      	subs	r3, r3, r1
 8008e26:	b281      	uxth	r1, r0
 8008e28:	fbb3 f0fe 	udiv	r0, r3, lr
 8008e2c:	fb0e 3310 	mls	r3, lr, r0, r3
 8008e30:	ea41 4103 	orr.w	r1, r1, r3, lsl #16
 8008e34:	fb00 f308 	mul.w	r3, r0, r8
 8008e38:	428b      	cmp	r3, r1
 8008e3a:	d907      	bls.n	8008e4c <__udivmoddi4+0x1c4>
 8008e3c:	1879      	adds	r1, r7, r1
 8008e3e:	f100 3cff 	add.w	ip, r0, #4294967295	; 0xffffffff
 8008e42:	d273      	bcs.n	8008f2c <__udivmoddi4+0x2a4>
 8008e44:	428b      	cmp	r3, r1
 8008e46:	d971      	bls.n	8008f2c <__udivmoddi4+0x2a4>
 8008e48:	3802      	subs	r0, #2
 8008e4a:	4439      	add	r1, r7
 8008e4c:	1acb      	subs	r3, r1, r3
 8008e4e:	ea40 4606 	orr.w	r6, r0, r6, lsl #16
 8008e52:	e778      	b.n	8008d46 <__udivmoddi4+0xbe>
 8008e54:	f1c6 0c20 	rsb	ip, r6, #32
 8008e58:	fa03 f406 	lsl.w	r4, r3, r6
 8008e5c:	fa22 f30c 	lsr.w	r3, r2, ip
 8008e60:	431c      	orrs	r4, r3
 8008e62:	fa20 f70c 	lsr.w	r7, r0, ip
 8008e66:	fa01 f306 	lsl.w	r3, r1, r6
 8008e6a:	ea4f 4e14 	mov.w	lr, r4, lsr #16
 8008e6e:	fa21 f10c 	lsr.w	r1, r1, ip
 8008e72:	431f      	orrs	r7, r3
 8008e74:	0c3b      	lsrs	r3, r7, #16
 8008e76:	fbb1 f9fe 	udiv	r9, r1, lr
 8008e7a:	fa1f f884 	uxth.w	r8, r4
 8008e7e:	fb0e 1119 	mls	r1, lr, r9, r1
 8008e82:	ea43 4101 	orr.w	r1, r3, r1, lsl #16
 8008e86:	fb09 fa08 	mul.w	sl, r9, r8
 8008e8a:	458a      	cmp	sl, r1
 8008e8c:	fa02 f206 	lsl.w	r2, r2, r6
 8008e90:	fa00 f306 	lsl.w	r3, r0, r6
 8008e94:	d908      	bls.n	8008ea8 <__udivmoddi4+0x220>
 8008e96:	1861      	adds	r1, r4, r1
 8008e98:	f109 30ff 	add.w	r0, r9, #4294967295	; 0xffffffff
 8008e9c:	d248      	bcs.n	8008f30 <__udivmoddi4+0x2a8>
 8008e9e:	458a      	cmp	sl, r1
 8008ea0:	d946      	bls.n	8008f30 <__udivmoddi4+0x2a8>
 8008ea2:	f1a9 0902 	sub.w	r9, r9, #2
 8008ea6:	4421      	add	r1, r4
 8008ea8:	eba1 010a 	sub.w	r1, r1, sl
 8008eac:	b2bf      	uxth	r7, r7
 8008eae:	fbb1 f0fe 	udiv	r0, r1, lr
 8008eb2:	fb0e 1110 	mls	r1, lr, r0, r1
 8008eb6:	ea47 4701 	orr.w	r7, r7, r1, lsl #16
 8008eba:	fb00 f808 	mul.w	r8, r0, r8
 8008ebe:	45b8      	cmp	r8, r7
 8008ec0:	d907      	bls.n	8008ed2 <__udivmoddi4+0x24a>
 8008ec2:	19e7      	adds	r7, r4, r7
 8008ec4:	f100 31ff 	add.w	r1, r0, #4294967295	; 0xffffffff
 8008ec8:	d22e      	bcs.n	8008f28 <__udivmoddi4+0x2a0>
 8008eca:	45b8      	cmp	r8, r7
 8008ecc:	d92c      	bls.n	8008f28 <__udivmoddi4+0x2a0>
 8008ece:	3802      	subs	r0, #2
 8008ed0:	4427      	add	r7, r4
 8008ed2:	ea40 4009 	orr.w	r0, r0, r9, lsl #16
 8008ed6:	eba7 0708 	sub.w	r7, r7, r8
 8008eda:	fba0 8902 	umull	r8, r9, r0, r2
 8008ede:	454f      	cmp	r7, r9
 8008ee0:	46c6      	mov	lr, r8
 8008ee2:	4649      	mov	r1, r9
 8008ee4:	d31a      	bcc.n	8008f1c <__udivmoddi4+0x294>
 8008ee6:	d017      	beq.n	8008f18 <__udivmoddi4+0x290>
 8008ee8:	b15d      	cbz	r5, 8008f02 <__udivmoddi4+0x27a>
 8008eea:	ebb3 020e 	subs.w	r2, r3, lr
 8008eee:	eb67 0701 	sbc.w	r7, r7, r1
 8008ef2:	fa07 fc0c 	lsl.w	ip, r7, ip
 8008ef6:	40f2      	lsrs	r2, r6
 8008ef8:	ea4c 0202 	orr.w	r2, ip, r2
 8008efc:	40f7      	lsrs	r7, r6
 8008efe:	e9c5 2700 	strd	r2, r7, [r5]
 8008f02:	2600      	movs	r6, #0
 8008f04:	4631      	mov	r1, r6
 8008f06:	e8bd 87f0 	ldmia.w	sp!, {r4, r5, r6, r7, r8, r9, sl, pc}
 8008f0a:	462e      	mov	r6, r5
 8008f0c:	4628      	mov	r0, r5
 8008f0e:	e70b      	b.n	8008d28 <__udivmoddi4+0xa0>
 8008f10:	4606      	mov	r6, r0
 8008f12:	e6e9      	b.n	8008ce8 <__udivmoddi4+0x60>
 8008f14:	4618      	mov	r0, r3
 8008f16:	e6fd      	b.n	8008d14 <__udivmoddi4+0x8c>
 8008f18:	4543      	cmp	r3, r8
 8008f1a:	d2e5      	bcs.n	8008ee8 <__udivmoddi4+0x260>
 8008f1c:	ebb8 0e02 	subs.w	lr, r8, r2
 8008f20:	eb69 0104 	sbc.w	r1, r9, r4
 8008f24:	3801      	subs	r0, #1
 8008f26:	e7df      	b.n	8008ee8 <__udivmoddi4+0x260>
 8008f28:	4608      	mov	r0, r1
 8008f2a:	e7d2      	b.n	8008ed2 <__udivmoddi4+0x24a>
 8008f2c:	4660      	mov	r0, ip
 8008f2e:	e78d      	b.n	8008e4c <__udivmoddi4+0x1c4>
 8008f30:	4681      	mov	r9, r0
 8008f32:	e7b9      	b.n	8008ea8 <__udivmoddi4+0x220>
 8008f34:	4666      	mov	r6, ip
 8008f36:	e775      	b.n	8008e24 <__udivmoddi4+0x19c>
 8008f38:	4630      	mov	r0, r6
 8008f3a:	e74a      	b.n	8008dd2 <__udivmoddi4+0x14a>
 8008f3c:	f1ac 0c02 	sub.w	ip, ip, #2
 8008f40:	4439      	add	r1, r7
 8008f42:	e713      	b.n	8008d6c <__udivmoddi4+0xe4>
 8008f44:	3802      	subs	r0, #2
 8008f46:	443c      	add	r4, r7
 8008f48:	e724      	b.n	8008d94 <__udivmoddi4+0x10c>
 8008f4a:	bf00      	nop

08008f4c <__aeabi_idiv0>:
 8008f4c:	4770      	bx	lr
 8008f4e:	bf00      	nop

08008f50 <dispcolor_DrawChar_General>:
 8008f50:	e92d 4ff7 	stmdb	sp!, {r0, r1, r2, r4, r5, r6, r7, r8, r9, sl, fp, lr}
 8008f54:	4692      	mov	sl, r2
 8008f56:	460c      	mov	r4, r1
 8008f58:	f89d 2038 	ldrb.w	r2, [sp, #56]	; 0x38
 8008f5c:	9200      	str	r2, [sp, #0]
 8008f5e:	4619      	mov	r1, r3
 8008f60:	4606      	mov	r6, r0
 8008f62:	4650      	mov	r0, sl
 8008f64:	f8bd 8030 	ldrh.w	r8, [sp, #48]	; 0x30
 8008f68:	f8bd 9034 	ldrh.w	r9, [sp, #52]	; 0x34
 8008f6c:	f000 f97e 	bl	800926c <font_GetFontStruct>
 8008f70:	4605      	mov	r5, r0
 8008f72:	f000 f983 	bl	800927c <font_GetCharWidth>
 8008f76:	4607      	mov	r7, r0
 8008f78:	4628      	mov	r0, r5
 8008f7a:	f000 f981 	bl	8009280 <font_GetCharHeight>
 8008f7e:	b2a4      	uxth	r4, r4
 8008f80:	1cab      	adds	r3, r5, #2
 8008f82:	f1ba 0f00 	cmp.w	sl, #0
 8008f86:	d009      	beq.n	8008f9c <dispcolor_DrawChar_General+0x4c>
 8008f88:	f04f 0b02 	mov.w	fp, #2
 8008f8c:	fb1b 5a00 	smlabb	sl, fp, r0, r5
 8008f90:	4555      	cmp	r5, sl
 8008f92:	d00a      	beq.n	8008faa <dispcolor_DrawChar_General+0x5a>
 8008f94:	f04f 0b00 	mov.w	fp, #0
 8008f98:	b221      	sxth	r1, r4
 8008f9a:	e03f      	b.n	800901c <dispcolor_DrawChar_General+0xcc>
 8008f9c:	eb04 0b00 	add.w	fp, r4, r0
 8008fa0:	469a      	mov	sl, r3
 8008fa2:	fa1f fb8b 	uxth.w	fp, fp
 8008fa6:	455c      	cmp	r4, fp
 8008fa8:	d120      	bne.n	8008fec <dispcolor_DrawChar_General+0x9c>
 8008faa:	4638      	mov	r0, r7
 8008fac:	b003      	add	sp, #12
 8008fae:	e8bd 8ff0 	ldmia.w	sp!, {r4, r5, r6, r7, r8, r9, sl, fp, pc}
 8008fb2:	f89a 2000 	ldrb.w	r2, [sl]
 8008fb6:	f1c5 0007 	rsb	r0, r5, #7
 8008fba:	4102      	asrs	r2, r0
 8008fbc:	07d2      	lsls	r2, r2, #31
 8008fbe:	d50f      	bpl.n	8008fe0 <dispcolor_DrawChar_General+0x90>
 8008fc0:	1970      	adds	r0, r6, r5
 8008fc2:	4642      	mov	r2, r8
 8008fc4:	b200      	sxth	r0, r0
 8008fc6:	9101      	str	r1, [sp, #4]
 8008fc8:	f000 fa58 	bl	800947c <GC9A01A_DrawPixel>
 8008fcc:	9901      	ldr	r1, [sp, #4]
 8008fce:	3501      	adds	r5, #1
 8008fd0:	b2ea      	uxtb	r2, r5
 8008fd2:	42ba      	cmp	r2, r7
 8008fd4:	d3ed      	bcc.n	8008fb2 <dispcolor_DrawChar_General+0x62>
 8008fd6:	3401      	adds	r4, #1
 8008fd8:	b2a4      	uxth	r4, r4
 8008fda:	f10a 0a01 	add.w	sl, sl, #1
 8008fde:	e7e2      	b.n	8008fa6 <dispcolor_DrawChar_General+0x56>
 8008fe0:	9b00      	ldr	r3, [sp, #0]
 8008fe2:	2b00      	cmp	r3, #0
 8008fe4:	d1f3      	bne.n	8008fce <dispcolor_DrawChar_General+0x7e>
 8008fe6:	1970      	adds	r0, r6, r5
 8008fe8:	464a      	mov	r2, r9
 8008fea:	e7eb      	b.n	8008fc4 <dispcolor_DrawChar_General+0x74>
 8008fec:	2500      	movs	r5, #0
 8008fee:	b221      	sxth	r1, r4
 8008ff0:	e7ee      	b.n	8008fd0 <dispcolor_DrawChar_General+0x80>
 8008ff2:	2a07      	cmp	r2, #7
 8008ff4:	bf95      	itete	ls
 8008ff6:	78aa      	ldrbls	r2, [r5, #2]
 8008ff8:	78ea      	ldrbhi	r2, [r5, #3]
 8008ffa:	f1cb 0007 	rsbls	r0, fp, #7
 8008ffe:	f1cb 000f 	rsbhi	r0, fp, #15
 8009002:	4102      	asrs	r2, r0
 8009004:	07d3      	lsls	r3, r2, #31
 8009006:	d511      	bpl.n	800902c <dispcolor_DrawChar_General+0xdc>
 8009008:	eb06 000b 	add.w	r0, r6, fp
 800900c:	4642      	mov	r2, r8
 800900e:	b200      	sxth	r0, r0
 8009010:	9101      	str	r1, [sp, #4]
 8009012:	f000 fa33 	bl	800947c <GC9A01A_DrawPixel>
 8009016:	9901      	ldr	r1, [sp, #4]
 8009018:	f10b 0b01 	add.w	fp, fp, #1
 800901c:	fa5f f28b 	uxtb.w	r2, fp
 8009020:	4297      	cmp	r7, r2
 8009022:	d8e6      	bhi.n	8008ff2 <dispcolor_DrawChar_General+0xa2>
 8009024:	3401      	adds	r4, #1
 8009026:	b2a4      	uxth	r4, r4
 8009028:	3502      	adds	r5, #2
 800902a:	e7b1      	b.n	8008f90 <dispcolor_DrawChar_General+0x40>
 800902c:	9b00      	ldr	r3, [sp, #0]
 800902e:	2b00      	cmp	r3, #0
 8009030:	d1f2      	bne.n	8009018 <dispcolor_DrawChar_General+0xc8>
 8009032:	eb06 000b 	add.w	r0, r6, fp
 8009036:	464a      	mov	r2, r9
 8009038:	e7e9      	b.n	800900e <dispcolor_DrawChar_General+0xbe>
	...

0800903c <dispcolor_FillScreen>:
 800903c:	b507      	push	{r0, r1, r2, lr}
 800903e:	4b07      	ldr	r3, [pc, #28]	; (800905c <dispcolor_FillScreen+0x20>)
 8009040:	4a07      	ldr	r2, [pc, #28]	; (8009060 <dispcolor_FillScreen+0x24>)
 8009042:	9000      	str	r0, [sp, #0]
 8009044:	2100      	movs	r1, #0
 8009046:	f9b3 3000 	ldrsh.w	r3, [r3]
 800904a:	f9b2 2000 	ldrsh.w	r2, [r2]
 800904e:	4608      	mov	r0, r1
 8009050:	f000 fa2b 	bl	80094aa <GC9A01A_FillRect>
 8009054:	b003      	add	sp, #12
 8009056:	f85d fb04 	ldr.w	pc, [sp], #4
 800905a:	bf00      	nop
 800905c:	2000025c 	.word	0x2000025c
 8009060:	2000025e 	.word	0x2000025e

08009064 <dispcolor_ClearScreen>:
 8009064:	2000      	movs	r0, #0
 8009066:	f7ff bfe9 	b.w	800903c <dispcolor_FillScreen>
	...

0800906c <dispcolor_Init>:
 800906c:	b508      	push	{r3, lr}
 800906e:	f000 fa4b 	bl	8009508 <GC9A01A_Init>
 8009072:	f000 fa45 	bl	8009500 <GC9A01A_GetWidth>
 8009076:	4b05      	ldr	r3, [pc, #20]	; (800908c <dispcolor_Init+0x20>)
 8009078:	8018      	strh	r0, [r3, #0]
 800907a:	f000 fa43 	bl	8009504 <GC9A01A_GetHeight>
 800907e:	4b04      	ldr	r3, [pc, #16]	; (8009090 <dispcolor_Init+0x24>)
 8009080:	8018      	strh	r0, [r3, #0]
 8009082:	e8bd 4008 	ldmia.w	sp!, {r3, lr}
 8009086:	f7ff bfed 	b.w	8009064 <dispcolor_ClearScreen>
 800908a:	bf00      	nop
 800908c:	2000025e 	.word	0x2000025e
 8009090:	2000025c 	.word	0x2000025c

08009094 <dispcolor_DrawCircle>:
 8009094:	e92d 4ff0 	stmdb	sp!, {r4, r5, r6, r7, r8, r9, sl, fp, lr}
 8009098:	b085      	sub	sp, #20
 800909a:	4615      	mov	r5, r2
 800909c:	f89d 9038 	ldrb.w	r9, [sp, #56]	; 0x38
 80090a0:	9000      	str	r0, [sp, #0]
 80090a2:	f1b9 0f01 	cmp.w	r9, #1
 80090a6:	461a      	mov	r2, r3
 80090a8:	ea4f 0445 	mov.w	r4, r5, lsl #1
 80090ac:	b28b      	uxth	r3, r1
 80090ae:	bf28      	it	cs
 80090b0:	f04f 0901 	movcs.w	r9, #1
 80090b4:	f1c4 0401 	rsb	r4, r4, #1
 80090b8:	2600      	movs	r6, #0
 80090ba:	9301      	str	r3, [sp, #4]
 80090bc:	fa19 fa81 	uxtah	sl, r9, r1
 80090c0:	2d00      	cmp	r5, #0
 80090c2:	da02      	bge.n	80090ca <dispcolor_DrawCircle+0x36>
 80090c4:	b005      	add	sp, #20
 80090c6:	e8bd 8ff0 	ldmia.w	sp!, {r4, r5, r6, r7, r8, r9, sl, fp, pc}
 80090ca:	f8bd 7000 	ldrh.w	r7, [sp]
 80090ce:	9202      	str	r2, [sp, #8]
 80090d0:	fa1a fb85 	uxtah	fp, sl, r5
 80090d4:	fa17 f086 	uxtah	r0, r7, r6
 80090d8:	fa0f fb8b 	sxth.w	fp, fp
 80090dc:	b200      	sxth	r0, r0
 80090de:	4659      	mov	r1, fp
 80090e0:	9003      	str	r0, [sp, #12]
 80090e2:	f000 f9cb 	bl	800947c <GC9A01A_DrawPixel>
 80090e6:	9b01      	ldr	r3, [sp, #4]
 80090e8:	9a02      	ldr	r2, [sp, #8]
 80090ea:	9803      	ldr	r0, [sp, #12]
 80090ec:	fa1f f885 	uxth.w	r8, r5
 80090f0:	eba3 0808 	sub.w	r8, r3, r8
 80090f4:	fa0f f888 	sxth.w	r8, r8
 80090f8:	4641      	mov	r1, r8
 80090fa:	f000 f9bf 	bl	800947c <GC9A01A_DrawPixel>
 80090fe:	eb07 0009 	add.w	r0, r7, r9
 8009102:	b2b7      	uxth	r7, r6
 8009104:	1bc0      	subs	r0, r0, r7
 8009106:	b200      	sxth	r0, r0
 8009108:	9a02      	ldr	r2, [sp, #8]
 800910a:	9003      	str	r0, [sp, #12]
 800910c:	4659      	mov	r1, fp
 800910e:	f000 f9b5 	bl	800947c <GC9A01A_DrawPixel>
 8009112:	9a02      	ldr	r2, [sp, #8]
 8009114:	9803      	ldr	r0, [sp, #12]
 8009116:	4641      	mov	r1, r8
 8009118:	f000 f9b0 	bl	800947c <GC9A01A_DrawPixel>
 800911c:	2c00      	cmp	r4, #0
 800911e:	9a02      	ldr	r2, [sp, #8]
 8009120:	da0a      	bge.n	8009138 <dispcolor_DrawCircle+0xa4>
 8009122:	192b      	adds	r3, r5, r4
 8009124:	005b      	lsls	r3, r3, #1
 8009126:	2b01      	cmp	r3, #1
 8009128:	dc06      	bgt.n	8009138 <dispcolor_DrawCircle+0xa4>
 800912a:	3601      	adds	r6, #1
 800912c:	eb04 0446 	add.w	r4, r4, r6, lsl #1
 8009130:	3401      	adds	r4, #1
 8009132:	462b      	mov	r3, r5
 8009134:	461d      	mov	r5, r3
 8009136:	e7c3      	b.n	80090c0 <dispcolor_DrawCircle+0x2c>
 8009138:	2c00      	cmp	r4, #0
 800913a:	f105 33ff 	add.w	r3, r5, #4294967295	; 0xffffffff
 800913e:	dd08      	ble.n	8009152 <dispcolor_DrawCircle+0xbe>
 8009140:	1ba1      	subs	r1, r4, r6
 8009142:	0049      	lsls	r1, r1, #1
 8009144:	2901      	cmp	r1, #1
 8009146:	dd04      	ble.n	8009152 <dispcolor_DrawCircle+0xbe>
 8009148:	0059      	lsls	r1, r3, #1
 800914a:	f1c1 0101 	rsb	r1, r1, #1
 800914e:	440c      	add	r4, r1
 8009150:	e7f0      	b.n	8009134 <dispcolor_DrawCircle+0xa0>
 8009152:	3601      	adds	r6, #1
 8009154:	1b75      	subs	r5, r6, r5
 8009156:	eb04 0445 	add.w	r4, r4, r5, lsl #1
 800915a:	e7eb      	b.n	8009134 <dispcolor_DrawCircle+0xa0>

0800915c <dispcolor_DrawChar_Bg>:
 800915c:	b51f      	push	{r0, r1, r2, r3, r4, lr}
 800915e:	2400      	movs	r4, #0
 8009160:	9402      	str	r4, [sp, #8]
 8009162:	f8bd 401c 	ldrh.w	r4, [sp, #28]
 8009166:	9401      	str	r4, [sp, #4]
 8009168:	f8bd 4018 	ldrh.w	r4, [sp, #24]
 800916c:	9400      	str	r4, [sp, #0]
 800916e:	f7ff feef 	bl	8008f50 <dispcolor_DrawChar_General>
 8009172:	b004      	add	sp, #16
 8009174:	bd10      	pop	{r4, pc}

08009176 <dispcolor_DrawString_General.constprop.0>:
 8009176:	e92d 47f3 	stmdb	sp!, {r0, r1, r4, r5, r6, r7, r8, r9, sl, lr}
 800917a:	f8bd 8028 	ldrh.w	r8, [sp, #40]	; 0x28
 800917e:	f8bd 902c 	ldrh.w	r9, [sp, #44]	; 0x2c
 8009182:	4607      	mov	r7, r0
 8009184:	4605      	mov	r5, r0
 8009186:	460c      	mov	r4, r1
 8009188:	4692      	mov	sl, r2
 800918a:	1e5e      	subs	r6, r3, #1
 800918c:	2008      	movs	r0, #8
 800918e:	f816 3f01 	ldrb.w	r3, [r6, #1]!
 8009192:	2b0a      	cmp	r3, #10
 8009194:	d006      	beq.n	80091a4 <dispcolor_DrawString_General.constprop.0+0x2e>
 8009196:	2b0d      	cmp	r3, #13
 8009198:	d017      	beq.n	80091ca <dispcolor_DrawString_General.constprop.0+0x54>
 800919a:	b933      	cbnz	r3, 80091aa <dispcolor_DrawString_General.constprop.0+0x34>
 800919c:	4628      	mov	r0, r5
 800919e:	b002      	add	sp, #8
 80091a0:	e8bd 87f0 	ldmia.w	sp!, {r4, r5, r6, r7, r8, r9, sl, pc}
 80091a4:	4404      	add	r4, r0
 80091a6:	b224      	sxth	r4, r4
 80091a8:	e7f1      	b.n	800918e <dispcolor_DrawString_General.constprop.0+0x18>
 80091aa:	4652      	mov	r2, sl
 80091ac:	4621      	mov	r1, r4
 80091ae:	e9cd 8900 	strd	r8, r9, [sp]
 80091b2:	4628      	mov	r0, r5
 80091b4:	f7ff ffd2 	bl	800915c <dispcolor_DrawChar_Bg>
 80091b8:	4428      	add	r0, r5
 80091ba:	7831      	ldrb	r1, [r6, #0]
 80091bc:	b205      	sxth	r5, r0
 80091be:	4650      	mov	r0, sl
 80091c0:	f000 f854 	bl	800926c <font_GetFontStruct>
 80091c4:	f000 f85c 	bl	8009280 <font_GetCharHeight>
 80091c8:	e7e1      	b.n	800918e <dispcolor_DrawString_General.constprop.0+0x18>
 80091ca:	463d      	mov	r5, r7
 80091cc:	e7df      	b.n	800918e <dispcolor_DrawString_General.constprop.0+0x18>

080091ce <dispcolor_DrawString>:
 80091ce:	b513      	push	{r0, r1, r4, lr}
 80091d0:	2400      	movs	r4, #0
 80091d2:	9401      	str	r4, [sp, #4]
 80091d4:	f8bd 4010 	ldrh.w	r4, [sp, #16]
 80091d8:	9400      	str	r4, [sp, #0]
 80091da:	f7ff ffcc 	bl	8009176 <dispcolor_DrawString_General.constprop.0>
 80091de:	b002      	add	sp, #8
 80091e0:	bd10      	pop	{r4, pc}
	...

080091e4 <f10x16f_GetCharTable>:
 80091e4:	4b02      	ldr	r3, [pc, #8]	; (80091f0 <f10x16f_GetCharTable+0xc>)
 80091e6:	eb00 1000 	add.w	r0, r0, r0, lsl #4
 80091ea:	eb03 0040 	add.w	r0, r3, r0, lsl #1
 80091ee:	4770      	bx	lr
 80091f0:	08012d38 	.word	0x08012d38

080091f4 <f24f_GetCharTable>:
 80091f4:	f1a0 0320 	sub.w	r3, r0, #32
 80091f8:	b2da      	uxtb	r2, r3
 80091fa:	2a3a      	cmp	r2, #58	; 0x3a
 80091fc:	d804      	bhi.n	8009208 <f24f_GetCharTable+0x14>
 80091fe:	4805      	ldr	r0, [pc, #20]	; (8009214 <f24f_GetCharTable+0x20>)
 8009200:	2232      	movs	r2, #50	; 0x32
 8009202:	fb02 0003 	mla	r0, r2, r3, r0
 8009206:	4770      	bx	lr
 8009208:	28b0      	cmp	r0, #176	; 0xb0
 800920a:	4803      	ldr	r0, [pc, #12]	; (8009218 <f24f_GetCharTable+0x24>)
 800920c:	bf18      	it	ne
 800920e:	2000      	movne	r0, #0
 8009210:	4770      	bx	lr
 8009212:	bf00      	nop
 8009214:	08014f38 	.word	0x08014f38
 8009218:	08015abe 	.word	0x08015abe

0800921c <f32f_GetCharTable>:
 800921c:	f1a0 0330 	sub.w	r3, r0, #48	; 0x30
 8009220:	b2da      	uxtb	r2, r3
 8009222:	2a0a      	cmp	r2, #10
 8009224:	d804      	bhi.n	8009230 <f32f_GetCharTable+0x14>
 8009226:	4809      	ldr	r0, [pc, #36]	; (800924c <f32f_GetCharTable+0x30>)
 8009228:	2242      	movs	r2, #66	; 0x42
 800922a:	fb02 0003 	mla	r0, r2, r3, r0
 800922e:	4770      	bx	lr
 8009230:	2820      	cmp	r0, #32
 8009232:	d006      	beq.n	8009242 <f32f_GetCharTable+0x26>
 8009234:	282e      	cmp	r0, #46	; 0x2e
 8009236:	d006      	beq.n	8009246 <f32f_GetCharTable+0x2a>
 8009238:	28b0      	cmp	r0, #176	; 0xb0
 800923a:	4805      	ldr	r0, [pc, #20]	; (8009250 <f32f_GetCharTable+0x34>)
 800923c:	bf18      	it	ne
 800923e:	2000      	movne	r0, #0
 8009240:	4770      	bx	lr
 8009242:	4804      	ldr	r0, [pc, #16]	; (8009254 <f32f_GetCharTable+0x38>)
 8009244:	4770      	bx	lr
 8009246:	4804      	ldr	r0, [pc, #16]	; (8009258 <f32f_GetCharTable+0x3c>)
 8009248:	4770      	bx	lr
 800924a:	bf00      	nop
 800924c:	08015af0 	.word	0x08015af0
 8009250:	08015e4a 	.word	0x08015e4a
 8009254:	08015dc6 	.word	0x08015dc6
 8009258:	08015e08 	.word	0x08015e08

0800925c <f6x8m_GetCharTable>:
 800925c:	4b02      	ldr	r3, [pc, #8]	; (8009268 <f6x8m_GetCharTable+0xc>)
 800925e:	eb00 0080 	add.w	r0, r0, r0, lsl #2
 8009262:	eb03 0040 	add.w	r0, r3, r0, lsl #1
 8009266:	4770      	bx	lr
 8009268:	08015e8c 	.word	0x08015e8c

0800926c <font_GetFontStruct>:
 800926c:	4b02      	ldr	r3, [pc, #8]	; (8009278 <font_GetFontStruct+0xc>)
 800926e:	f853 3020 	ldr.w	r3, [r3, r0, lsl #2]
 8009272:	4608      	mov	r0, r1
 8009274:	4718      	bx	r3
 8009276:	bf00      	nop
 8009278:	0801688c 	.word	0x0801688c

0800927c <font_GetCharWidth>:
 800927c:	7800      	ldrb	r0, [r0, #0]
 800927e:	4770      	bx	lr

08009280 <font_GetCharHeight>:
 8009280:	7840      	ldrb	r0, [r0, #1]
 8009282:	4770      	bx	lr

08009284 <SPI_send>:
 8009284:	b510      	push	{r4, lr}
 8009286:	460a      	mov	r2, r1
 8009288:	4c08      	ldr	r4, [pc, #32]	; (80092ac <SPI_send+0x28>)
 800928a:	4601      	mov	r1, r0
 800928c:	4808      	ldr	r0, [pc, #32]	; (80092b0 <SPI_send+0x2c>)
 800928e:	2300      	movs	r3, #0
 8009290:	7023      	strb	r3, [r4, #0]
 8009292:	6800      	ldr	r0, [r0, #0]
 8009294:	2364      	movs	r3, #100	; 0x64
 8009296:	f004 ff03 	bl	800e0a0 <HAL_SPI_Transmit>
 800929a:	b120      	cbz	r0, 80092a6 <SPI_send+0x22>
 800929c:	4a05      	ldr	r2, [pc, #20]	; (80092b4 <SPI_send+0x30>)
 800929e:	6813      	ldr	r3, [r2, #0]
 80092a0:	f043 030e 	orr.w	r3, r3, #14
 80092a4:	6013      	str	r3, [r2, #0]
 80092a6:	2301      	movs	r3, #1
 80092a8:	7023      	strb	r3, [r4, #0]
 80092aa:	bd10      	pop	{r4, pc}
 80092ac:	2000003c 	.word	0x2000003c
 80092b0:	20000038 	.word	0x20000038
 80092b4:	20000280 	.word	0x20000280

080092b8 <SendCmd>:
 80092b8:	b513      	push	{r0, r1, r4, lr}
 80092ba:	4c0d      	ldr	r4, [pc, #52]	; (80092f0 <SendCmd+0x38>)
 80092bc:	f88d 0007 	strb.w	r0, [sp, #7]
 80092c0:	2200      	movs	r2, #0
 80092c2:	4620      	mov	r0, r4
 80092c4:	f44f 4180 	mov.w	r1, #16384	; 0x4000
 80092c8:	f003 f996 	bl	800c5f8 <HAL_GPIO_WritePin>
 80092cc:	2200      	movs	r2, #0
 80092ce:	4620      	mov	r0, r4
 80092d0:	2102      	movs	r1, #2
 80092d2:	f003 f991 	bl	800c5f8 <HAL_GPIO_WritePin>
 80092d6:	f10d 0007 	add.w	r0, sp, #7
 80092da:	2101      	movs	r1, #1
 80092dc:	f7ff ffd2 	bl	8009284 <SPI_send>
 80092e0:	2201      	movs	r2, #1
 80092e2:	2102      	movs	r1, #2
 80092e4:	4620      	mov	r0, r4
 80092e6:	f003 f987 	bl	800c5f8 <HAL_GPIO_WritePin>
 80092ea:	b002      	add	sp, #8
 80092ec:	bd10      	pop	{r4, pc}
 80092ee:	bf00      	nop
 80092f0:	40020400 	.word	0x40020400

080092f4 <SendData>:
 80092f4:	b513      	push	{r0, r1, r4, lr}
 80092f6:	4c0d      	ldr	r4, [pc, #52]	; (800932c <SendData+0x38>)
 80092f8:	f88d 0007 	strb.w	r0, [sp, #7]
 80092fc:	2201      	movs	r2, #1
 80092fe:	4620      	mov	r0, r4
 8009300:	f44f 4180 	mov.w	r1, #16384	; 0x4000
 8009304:	f003 f978 	bl	800c5f8 <HAL_GPIO_WritePin>
 8009308:	2200      	movs	r2, #0
 800930a:	4620      	mov	r0, r4
 800930c:	2102      	movs	r1, #2
 800930e:	f003 f973 	bl	800c5f8 <HAL_GPIO_WritePin>
 8009312:	f10d 0007 	add.w	r0, sp, #7
 8009316:	2101      	movs	r1, #1
 8009318:	f7ff ffb4 	bl	8009284 <SPI_send>
 800931c:	2201      	movs	r2, #1
 800931e:	2102      	movs	r1, #2
 8009320:	4620      	mov	r0, r4
 8009322:	f003 f969 	bl	800c5f8 <HAL_GPIO_WritePin>
 8009326:	b002      	add	sp, #8
 8009328:	bd10      	pop	{r4, pc}
 800932a:	bf00      	nop
 800932c:	40020400 	.word	0x40020400

08009330 <SendDatas>:
 8009330:	b570      	push	{r4, r5, r6, lr}
 8009332:	4c0c      	ldr	r4, [pc, #48]	; (8009364 <SendDatas+0x34>)
 8009334:	4605      	mov	r5, r0
 8009336:	460e      	mov	r6, r1
 8009338:	4620      	mov	r0, r4
 800933a:	2201      	movs	r2, #1
 800933c:	f44f 4180 	mov.w	r1, #16384	; 0x4000
 8009340:	f003 f95a 	bl	800c5f8 <HAL_GPIO_WritePin>
 8009344:	2200      	movs	r2, #0
 8009346:	4620      	mov	r0, r4
 8009348:	2102      	movs	r1, #2
 800934a:	f003 f955 	bl	800c5f8 <HAL_GPIO_WritePin>
 800934e:	4631      	mov	r1, r6
 8009350:	4628      	mov	r0, r5
 8009352:	f7ff ff97 	bl	8009284 <SPI_send>
 8009356:	4620      	mov	r0, r4
 8009358:	2201      	movs	r2, #1
 800935a:	e8bd 4070 	ldmia.w	sp!, {r4, r5, r6, lr}
 800935e:	2102      	movs	r1, #2
 8009360:	f003 b94a 	b.w	800c5f8 <HAL_GPIO_WritePin>
 8009364:	40020400 	.word	0x40020400

08009368 <GC9A01A_HardReset>:
 8009368:	b510      	push	{r4, lr}
 800936a:	4c0a      	ldr	r4, [pc, #40]	; (8009394 <GC9A01A_HardReset+0x2c>)
 800936c:	2200      	movs	r2, #0
 800936e:	f44f 7180 	mov.w	r1, #256	; 0x100
 8009372:	4620      	mov	r0, r4
 8009374:	f003 f940 	bl	800c5f8 <HAL_GPIO_WritePin>
 8009378:	200a      	movs	r0, #10
 800937a:	f002 fa83 	bl	800b884 <HAL_Delay>
 800937e:	4620      	mov	r0, r4
 8009380:	2201      	movs	r2, #1
 8009382:	f44f 7180 	mov.w	r1, #256	; 0x100
 8009386:	f003 f937 	bl	800c5f8 <HAL_GPIO_WritePin>
 800938a:	e8bd 4010 	ldmia.w	sp!, {r4, lr}
 800938e:	2096      	movs	r0, #150	; 0x96
 8009390:	f002 ba78 	b.w	800b884 <HAL_Delay>
 8009394:	40020000 	.word	0x40020000

08009398 <GC9A01A_SleepMode>:
 8009398:	b508      	push	{r3, lr}
 800939a:	b140      	cbz	r0, 80093ae <GC9A01A_SleepMode+0x16>
 800939c:	2010      	movs	r0, #16
 800939e:	f7ff ff8b 	bl	80092b8 <SendCmd>
 80093a2:	e8bd 4008 	ldmia.w	sp!, {r3, lr}
 80093a6:	f44f 70fa 	mov.w	r0, #500	; 0x1f4
 80093aa:	f002 ba6b 	b.w	800b884 <HAL_Delay>
 80093ae:	2011      	movs	r0, #17
 80093b0:	e7f5      	b.n	800939e <GC9A01A_SleepMode+0x6>
	...

080093b4 <GC9A01A_SetWindow>:
 80093b4:	4290      	cmp	r0, r2
 80093b6:	e92d 47f3 	stmdb	sp!, {r0, r1, r4, r5, r6, r7, r8, r9, sl, lr}
 80093ba:	461c      	mov	r4, r3
 80093bc:	4680      	mov	r8, r0
 80093be:	460f      	mov	r7, r1
 80093c0:	4615      	mov	r5, r2
 80093c2:	fa1f f980 	uxth.w	r9, r0
 80093c6:	b293      	uxth	r3, r2
 80093c8:	d81c      	bhi.n	8009404 <GC9A01A_SetWindow+0x50>
 80093ca:	2bf0      	cmp	r3, #240	; 0xf0
 80093cc:	d81a      	bhi.n	8009404 <GC9A01A_SetWindow+0x50>
 80093ce:	4a20      	ldr	r2, [pc, #128]	; (8009450 <GC9A01A_SetWindow+0x9c>)
 80093d0:	f892 a000 	ldrb.w	sl, [r2]
 80093d4:	202a      	movs	r0, #42	; 0x2a
 80093d6:	4656      	mov	r6, sl
 80093d8:	441e      	add	r6, r3
 80093da:	44d1      	add	r9, sl
 80093dc:	f7ff ff6c 	bl	80092b8 <SendCmd>
 80093e0:	2104      	movs	r1, #4
 80093e2:	ea4f 2919 	mov.w	r9, r9, lsr #8
 80093e6:	44d0      	add	r8, sl
 80093e8:	0a33      	lsrs	r3, r6, #8
 80093ea:	4455      	add	r5, sl
 80093ec:	eb0d 0001 	add.w	r0, sp, r1
 80093f0:	f88d 9004 	strb.w	r9, [sp, #4]
 80093f4:	f88d 8005 	strb.w	r8, [sp, #5]
 80093f8:	f88d 3006 	strb.w	r3, [sp, #6]
 80093fc:	f88d 5007 	strb.w	r5, [sp, #7]
 8009400:	f7ff ff96 	bl	8009330 <SendDatas>
 8009404:	42a7      	cmp	r7, r4
 8009406:	b2be      	uxth	r6, r7
 8009408:	b2a2      	uxth	r2, r4
 800940a:	d81b      	bhi.n	8009444 <GC9A01A_SetWindow+0x90>
 800940c:	2af0      	cmp	r2, #240	; 0xf0
 800940e:	d819      	bhi.n	8009444 <GC9A01A_SetWindow+0x90>
 8009410:	4b10      	ldr	r3, [pc, #64]	; (8009454 <GC9A01A_SetWindow+0xa0>)
 8009412:	f893 8000 	ldrb.w	r8, [r3]
 8009416:	202b      	movs	r0, #43	; 0x2b
 8009418:	4645      	mov	r5, r8
 800941a:	4415      	add	r5, r2
 800941c:	4446      	add	r6, r8
 800941e:	f7ff ff4b 	bl	80092b8 <SendCmd>
 8009422:	2104      	movs	r1, #4
 8009424:	0a36      	lsrs	r6, r6, #8
 8009426:	4447      	add	r7, r8
 8009428:	0a2a      	lsrs	r2, r5, #8
 800942a:	4444      	add	r4, r8
 800942c:	eb0d 0001 	add.w	r0, sp, r1
 8009430:	f88d 6004 	strb.w	r6, [sp, #4]
 8009434:	f88d 7005 	strb.w	r7, [sp, #5]
 8009438:	f88d 2006 	strb.w	r2, [sp, #6]
 800943c:	f88d 4007 	strb.w	r4, [sp, #7]
 8009440:	f7ff ff76 	bl	8009330 <SendDatas>
 8009444:	202c      	movs	r0, #44	; 0x2c
 8009446:	f7ff ff37 	bl	80092b8 <SendCmd>
 800944a:	b002      	add	sp, #8
 800944c:	e8bd 87f0 	ldmia.w	sp!, {r4, r5, r6, r7, r8, r9, sl, pc}
 8009450:	20000260 	.word	0x20000260
 8009454:	20000261 	.word	0x20000261

08009458 <GC9A01A_RamWrite>:
 8009458:	b570      	push	{r4, r5, r6, lr}
 800945a:	4605      	mov	r5, r0
 800945c:	460c      	mov	r4, r1
 800945e:	f64f 76ff 	movw	r6, #65535	; 0xffff
 8009462:	3c01      	subs	r4, #1
 8009464:	b2a4      	uxth	r4, r4
 8009466:	42b4      	cmp	r4, r6
 8009468:	d100      	bne.n	800946c <GC9A01A_RamWrite+0x14>
 800946a:	bd70      	pop	{r4, r5, r6, pc}
 800946c:	8828      	ldrh	r0, [r5, #0]
 800946e:	0a00      	lsrs	r0, r0, #8
 8009470:	f7ff ff40 	bl	80092f4 <SendData>
 8009474:	7828      	ldrb	r0, [r5, #0]
 8009476:	f7ff ff3d 	bl	80092f4 <SendData>
 800947a:	e7f2      	b.n	8009462 <GC9A01A_RamWrite+0xa>

0800947c <GC9A01A_DrawPixel>:
 800947c:	b507      	push	{r0, r1, r2, lr}
 800947e:	b283      	uxth	r3, r0
 8009480:	2bef      	cmp	r3, #239	; 0xef
 8009482:	f8ad 2006 	strh.w	r2, [sp, #6]
 8009486:	d80d      	bhi.n	80094a4 <GC9A01A_DrawPixel+0x28>
 8009488:	b28b      	uxth	r3, r1
 800948a:	2bef      	cmp	r3, #239	; 0xef
 800948c:	d80a      	bhi.n	80094a4 <GC9A01A_DrawPixel+0x28>
 800948e:	b2c2      	uxtb	r2, r0
 8009490:	b2cb      	uxtb	r3, r1
 8009492:	4619      	mov	r1, r3
 8009494:	4610      	mov	r0, r2
 8009496:	f7ff ff8d 	bl	80093b4 <GC9A01A_SetWindow>
 800949a:	2101      	movs	r1, #1
 800949c:	f10d 0006 	add.w	r0, sp, #6
 80094a0:	f7ff ffda 	bl	8009458 <GC9A01A_RamWrite>
 80094a4:	b003      	add	sp, #12
 80094a6:	f85d fb04 	ldr.w	pc, [sp], #4

080094aa <GC9A01A_FillRect>:
 80094aa:	28ef      	cmp	r0, #239	; 0xef
 80094ac:	b538      	push	{r3, r4, r5, lr}
 80094ae:	4615      	mov	r5, r2
 80094b0:	461c      	mov	r4, r3
 80094b2:	dc1e      	bgt.n	80094f2 <GC9A01A_FillRect+0x48>
 80094b4:	29ef      	cmp	r1, #239	; 0xef
 80094b6:	dc1c      	bgt.n	80094f2 <GC9A01A_FillRect+0x48>
 80094b8:	1883      	adds	r3, r0, r2
 80094ba:	2bf0      	cmp	r3, #240	; 0xf0
 80094bc:	bfc8      	it	gt
 80094be:	f1c0 05f0 	rsbgt	r5, r0, #240	; 0xf0
 80094c2:	eb01 0304 	add.w	r3, r1, r4
 80094c6:	bfc8      	it	gt
 80094c8:	b22d      	sxthgt	r5, r5
 80094ca:	2bf0      	cmp	r3, #240	; 0xf0
 80094cc:	bfc8      	it	gt
 80094ce:	f1c1 04f0 	rsbgt	r4, r1, #240	; 0xf0
 80094d2:	b2c0      	uxtb	r0, r0
 80094d4:	b2c9      	uxtb	r1, r1
 80094d6:	bfc8      	it	gt
 80094d8:	b224      	sxthgt	r4, r4
 80094da:	1e4b      	subs	r3, r1, #1
 80094dc:	1e42      	subs	r2, r0, #1
 80094de:	4423      	add	r3, r4
 80094e0:	442a      	add	r2, r5
 80094e2:	b2db      	uxtb	r3, r3
 80094e4:	b2d2      	uxtb	r2, r2
 80094e6:	f7ff ff65 	bl	80093b4 <GC9A01A_SetWindow>
 80094ea:	436c      	muls	r4, r5
 80094ec:	2500      	movs	r5, #0
 80094ee:	42ac      	cmp	r4, r5
 80094f0:	d100      	bne.n	80094f4 <GC9A01A_FillRect+0x4a>
 80094f2:	bd38      	pop	{r3, r4, r5, pc}
 80094f4:	2101      	movs	r1, #1
 80094f6:	a804      	add	r0, sp, #16
 80094f8:	f7ff ffae 	bl	8009458 <GC9A01A_RamWrite>
 80094fc:	3501      	adds	r5, #1
 80094fe:	e7f6      	b.n	80094ee <GC9A01A_FillRect+0x44>

08009500 <GC9A01A_GetWidth>:
 8009500:	20f0      	movs	r0, #240	; 0xf0
 8009502:	4770      	bx	lr

08009504 <GC9A01A_GetHeight>:
 8009504:	20f0      	movs	r0, #240	; 0xf0
 8009506:	4770      	bx	lr

08009508 <GC9A01A_Init>:
 8009508:	4bfd      	ldr	r3, [pc, #1012]	; (8009900 <GC9A01A_Init+0x3f8>)
 800950a:	b513      	push	{r0, r1, r4, lr}
 800950c:	2400      	movs	r4, #0
 800950e:	701c      	strb	r4, [r3, #0]
 8009510:	4bfc      	ldr	r3, [pc, #1008]	; (8009904 <GC9A01A_Init+0x3fc>)
 8009512:	701c      	strb	r4, [r3, #0]
 8009514:	f7ff ff28 	bl	8009368 <GC9A01A_HardReset>
 8009518:	20ef      	movs	r0, #239	; 0xef
 800951a:	f7ff fecd 	bl	80092b8 <SendCmd>
 800951e:	20eb      	movs	r0, #235	; 0xeb
 8009520:	f7ff feca 	bl	80092b8 <SendCmd>
 8009524:	2014      	movs	r0, #20
 8009526:	f7ff fee5 	bl	80092f4 <SendData>
 800952a:	20fe      	movs	r0, #254	; 0xfe
 800952c:	f7ff fec4 	bl	80092b8 <SendCmd>
 8009530:	20ef      	movs	r0, #239	; 0xef
 8009532:	f7ff fec1 	bl	80092b8 <SendCmd>
 8009536:	20eb      	movs	r0, #235	; 0xeb
 8009538:	f7ff febe 	bl	80092b8 <SendCmd>
 800953c:	2014      	movs	r0, #20
 800953e:	f7ff fed9 	bl	80092f4 <SendData>
 8009542:	2084      	movs	r0, #132	; 0x84
 8009544:	f7ff feb8 	bl	80092b8 <SendCmd>
 8009548:	2040      	movs	r0, #64	; 0x40
 800954a:	f7ff fed3 	bl	80092f4 <SendData>
 800954e:	2085      	movs	r0, #133	; 0x85
 8009550:	f7ff feb2 	bl	80092b8 <SendCmd>
 8009554:	20ff      	movs	r0, #255	; 0xff
 8009556:	f7ff fecd 	bl	80092f4 <SendData>
 800955a:	2086      	movs	r0, #134	; 0x86
 800955c:	f7ff feac 	bl	80092b8 <SendCmd>
 8009560:	20ff      	movs	r0, #255	; 0xff
 8009562:	f7ff fec7 	bl	80092f4 <SendData>
 8009566:	2087      	movs	r0, #135	; 0x87
 8009568:	f7ff fea6 	bl	80092b8 <SendCmd>
 800956c:	20ff      	movs	r0, #255	; 0xff
 800956e:	f7ff fec1 	bl	80092f4 <SendData>
 8009572:	2088      	movs	r0, #136	; 0x88
 8009574:	f7ff fea0 	bl	80092b8 <SendCmd>
 8009578:	200a      	movs	r0, #10
 800957a:	f7ff febb 	bl	80092f4 <SendData>
 800957e:	2089      	movs	r0, #137	; 0x89
 8009580:	f7ff fe9a 	bl	80092b8 <SendCmd>
 8009584:	2021      	movs	r0, #33	; 0x21
 8009586:	f7ff feb5 	bl	80092f4 <SendData>
 800958a:	208a      	movs	r0, #138	; 0x8a
 800958c:	f7ff fe94 	bl	80092b8 <SendCmd>
 8009590:	4620      	mov	r0, r4
 8009592:	f7ff feaf 	bl	80092f4 <SendData>
 8009596:	208b      	movs	r0, #139	; 0x8b
 8009598:	f7ff fe8e 	bl	80092b8 <SendCmd>
 800959c:	2080      	movs	r0, #128	; 0x80
 800959e:	f7ff fea9 	bl	80092f4 <SendData>
 80095a2:	208c      	movs	r0, #140	; 0x8c
 80095a4:	f7ff fe88 	bl	80092b8 <SendCmd>
 80095a8:	2001      	movs	r0, #1
 80095aa:	f7ff fea3 	bl	80092f4 <SendData>
 80095ae:	208d      	movs	r0, #141	; 0x8d
 80095b0:	f7ff fe82 	bl	80092b8 <SendCmd>
 80095b4:	2001      	movs	r0, #1
 80095b6:	f7ff fe9d 	bl	80092f4 <SendData>
 80095ba:	208e      	movs	r0, #142	; 0x8e
 80095bc:	f7ff fe7c 	bl	80092b8 <SendCmd>
 80095c0:	20ff      	movs	r0, #255	; 0xff
 80095c2:	f7ff fe97 	bl	80092f4 <SendData>
 80095c6:	208f      	movs	r0, #143	; 0x8f
 80095c8:	f7ff fe76 	bl	80092b8 <SendCmd>
 80095cc:	20ff      	movs	r0, #255	; 0xff
 80095ce:	f7ff fe91 	bl	80092f4 <SendData>
 80095d2:	20b6      	movs	r0, #182	; 0xb6
 80095d4:	f7ff fe70 	bl	80092b8 <SendCmd>
 80095d8:	4620      	mov	r0, r4
 80095da:	f7ff fe8b 	bl	80092f4 <SendData>
 80095de:	2020      	movs	r0, #32
 80095e0:	f7ff fe88 	bl	80092f4 <SendData>
 80095e4:	2036      	movs	r0, #54	; 0x36
 80095e6:	f7ff fe67 	bl	80092b8 <SendCmd>
 80095ea:	2008      	movs	r0, #8
 80095ec:	f7ff fe82 	bl	80092f4 <SendData>
 80095f0:	203a      	movs	r0, #58	; 0x3a
 80095f2:	f7ff fe61 	bl	80092b8 <SendCmd>
 80095f6:	2005      	movs	r0, #5
 80095f8:	f7ff fe7c 	bl	80092f4 <SendData>
 80095fc:	2090      	movs	r0, #144	; 0x90
 80095fe:	f7ff fe5b 	bl	80092b8 <SendCmd>
 8009602:	2008      	movs	r0, #8
 8009604:	f7ff fe76 	bl	80092f4 <SendData>
 8009608:	2008      	movs	r0, #8
 800960a:	f7ff fe73 	bl	80092f4 <SendData>
 800960e:	2008      	movs	r0, #8
 8009610:	f7ff fe70 	bl	80092f4 <SendData>
 8009614:	2008      	movs	r0, #8
 8009616:	f7ff fe6d 	bl	80092f4 <SendData>
 800961a:	20bd      	movs	r0, #189	; 0xbd
 800961c:	f7ff fe4c 	bl	80092b8 <SendCmd>
 8009620:	2006      	movs	r0, #6
 8009622:	f7ff fe67 	bl	80092f4 <SendData>
 8009626:	20bc      	movs	r0, #188	; 0xbc
 8009628:	f7ff fe46 	bl	80092b8 <SendCmd>
 800962c:	4620      	mov	r0, r4
 800962e:	f7ff fe61 	bl	80092f4 <SendData>
 8009632:	20ff      	movs	r0, #255	; 0xff
 8009634:	f7ff fe40 	bl	80092b8 <SendCmd>
 8009638:	2060      	movs	r0, #96	; 0x60
 800963a:	f7ff fe5b 	bl	80092f4 <SendData>
 800963e:	2001      	movs	r0, #1
 8009640:	f7ff fe58 	bl	80092f4 <SendData>
 8009644:	2004      	movs	r0, #4
 8009646:	f7ff fe55 	bl	80092f4 <SendData>
 800964a:	20c3      	movs	r0, #195	; 0xc3
 800964c:	f7ff fe34 	bl	80092b8 <SendCmd>
 8009650:	2013      	movs	r0, #19
 8009652:	f7ff fe4f 	bl	80092f4 <SendData>
 8009656:	20c4      	movs	r0, #196	; 0xc4
 8009658:	f7ff fe2e 	bl	80092b8 <SendCmd>
 800965c:	2013      	movs	r0, #19
 800965e:	f7ff fe49 	bl	80092f4 <SendData>
 8009662:	20c9      	movs	r0, #201	; 0xc9
 8009664:	f7ff fe28 	bl	80092b8 <SendCmd>
 8009668:	2022      	movs	r0, #34	; 0x22
 800966a:	f7ff fe43 	bl	80092f4 <SendData>
 800966e:	20be      	movs	r0, #190	; 0xbe
 8009670:	f7ff fe22 	bl	80092b8 <SendCmd>
 8009674:	2011      	movs	r0, #17
 8009676:	f7ff fe3d 	bl	80092f4 <SendData>
 800967a:	20e1      	movs	r0, #225	; 0xe1
 800967c:	f7ff fe1c 	bl	80092b8 <SendCmd>
 8009680:	2010      	movs	r0, #16
 8009682:	f7ff fe37 	bl	80092f4 <SendData>
 8009686:	200e      	movs	r0, #14
 8009688:	f7ff fe34 	bl	80092f4 <SendData>
 800968c:	20df      	movs	r0, #223	; 0xdf
 800968e:	f7ff fe13 	bl	80092b8 <SendCmd>
 8009692:	2021      	movs	r0, #33	; 0x21
 8009694:	f7ff fe2e 	bl	80092f4 <SendData>
 8009698:	200c      	movs	r0, #12
 800969a:	f7ff fe2b 	bl	80092f4 <SendData>
 800969e:	2002      	movs	r0, #2
 80096a0:	f7ff fe28 	bl	80092f4 <SendData>
 80096a4:	20f0      	movs	r0, #240	; 0xf0
 80096a6:	f7ff fe07 	bl	80092b8 <SendCmd>
 80096aa:	2045      	movs	r0, #69	; 0x45
 80096ac:	f7ff fe22 	bl	80092f4 <SendData>
 80096b0:	2009      	movs	r0, #9
 80096b2:	f7ff fe1f 	bl	80092f4 <SendData>
 80096b6:	2008      	movs	r0, #8
 80096b8:	f7ff fe1c 	bl	80092f4 <SendData>
 80096bc:	2008      	movs	r0, #8
 80096be:	f7ff fe19 	bl	80092f4 <SendData>
 80096c2:	2026      	movs	r0, #38	; 0x26
 80096c4:	f7ff fe16 	bl	80092f4 <SendData>
 80096c8:	202a      	movs	r0, #42	; 0x2a
 80096ca:	f7ff fe13 	bl	80092f4 <SendData>
 80096ce:	20f1      	movs	r0, #241	; 0xf1
 80096d0:	f7ff fdf2 	bl	80092b8 <SendCmd>
 80096d4:	2043      	movs	r0, #67	; 0x43
 80096d6:	f7ff fe0d 	bl	80092f4 <SendData>
 80096da:	2070      	movs	r0, #112	; 0x70
 80096dc:	f7ff fe0a 	bl	80092f4 <SendData>
 80096e0:	2072      	movs	r0, #114	; 0x72
 80096e2:	f7ff fe07 	bl	80092f4 <SendData>
 80096e6:	2036      	movs	r0, #54	; 0x36
 80096e8:	f7ff fe04 	bl	80092f4 <SendData>
 80096ec:	2037      	movs	r0, #55	; 0x37
 80096ee:	f7ff fe01 	bl	80092f4 <SendData>
 80096f2:	206f      	movs	r0, #111	; 0x6f
 80096f4:	f7ff fdfe 	bl	80092f4 <SendData>
 80096f8:	20f2      	movs	r0, #242	; 0xf2
 80096fa:	f7ff fddd 	bl	80092b8 <SendCmd>
 80096fe:	2045      	movs	r0, #69	; 0x45
 8009700:	f7ff fdf8 	bl	80092f4 <SendData>
 8009704:	2009      	movs	r0, #9
 8009706:	f7ff fdf5 	bl	80092f4 <SendData>
 800970a:	2008      	movs	r0, #8
 800970c:	f7ff fdf2 	bl	80092f4 <SendData>
 8009710:	2008      	movs	r0, #8
 8009712:	f7ff fdef 	bl	80092f4 <SendData>
 8009716:	2026      	movs	r0, #38	; 0x26
 8009718:	f7ff fdec 	bl	80092f4 <SendData>
 800971c:	202a      	movs	r0, #42	; 0x2a
 800971e:	f7ff fde9 	bl	80092f4 <SendData>
 8009722:	20f3      	movs	r0, #243	; 0xf3
 8009724:	f7ff fdc8 	bl	80092b8 <SendCmd>
 8009728:	2043      	movs	r0, #67	; 0x43
 800972a:	f7ff fde3 	bl	80092f4 <SendData>
 800972e:	2070      	movs	r0, #112	; 0x70
 8009730:	f7ff fde0 	bl	80092f4 <SendData>
 8009734:	2072      	movs	r0, #114	; 0x72
 8009736:	f7ff fddd 	bl	80092f4 <SendData>
 800973a:	2036      	movs	r0, #54	; 0x36
 800973c:	f7ff fdda 	bl	80092f4 <SendData>
 8009740:	2037      	movs	r0, #55	; 0x37
 8009742:	f7ff fdd7 	bl	80092f4 <SendData>
 8009746:	206f      	movs	r0, #111	; 0x6f
 8009748:	f7ff fdd4 	bl	80092f4 <SendData>
 800974c:	20ed      	movs	r0, #237	; 0xed
 800974e:	f7ff fdb3 	bl	80092b8 <SendCmd>
 8009752:	201b      	movs	r0, #27
 8009754:	f7ff fdce 	bl	80092f4 <SendData>
 8009758:	200b      	movs	r0, #11
 800975a:	f7ff fdcb 	bl	80092f4 <SendData>
 800975e:	20ae      	movs	r0, #174	; 0xae
 8009760:	f7ff fdaa 	bl	80092b8 <SendCmd>
 8009764:	2077      	movs	r0, #119	; 0x77
 8009766:	f7ff fdc5 	bl	80092f4 <SendData>
 800976a:	20cd      	movs	r0, #205	; 0xcd
 800976c:	f7ff fda4 	bl	80092b8 <SendCmd>
 8009770:	2063      	movs	r0, #99	; 0x63
 8009772:	f7ff fdbf 	bl	80092f4 <SendData>
 8009776:	2070      	movs	r0, #112	; 0x70
 8009778:	f7ff fd9e 	bl	80092b8 <SendCmd>
 800977c:	2007      	movs	r0, #7
 800977e:	f7ff fdb9 	bl	80092f4 <SendData>
 8009782:	2007      	movs	r0, #7
 8009784:	f7ff fdb6 	bl	80092f4 <SendData>
 8009788:	2004      	movs	r0, #4
 800978a:	f7ff fdb3 	bl	80092f4 <SendData>
 800978e:	200e      	movs	r0, #14
 8009790:	f7ff fdb0 	bl	80092f4 <SendData>
 8009794:	200f      	movs	r0, #15
 8009796:	f7ff fdad 	bl	80092f4 <SendData>
 800979a:	2009      	movs	r0, #9
 800979c:	f7ff fdaa 	bl	80092f4 <SendData>
 80097a0:	2007      	movs	r0, #7
 80097a2:	f7ff fda7 	bl	80092f4 <SendData>
 80097a6:	2008      	movs	r0, #8
 80097a8:	f7ff fda4 	bl	80092f4 <SendData>
 80097ac:	2003      	movs	r0, #3
 80097ae:	f7ff fda1 	bl	80092f4 <SendData>
 80097b2:	20e8      	movs	r0, #232	; 0xe8
 80097b4:	f7ff fd80 	bl	80092b8 <SendCmd>
 80097b8:	2034      	movs	r0, #52	; 0x34
 80097ba:	f7ff fd9b 	bl	80092f4 <SendData>
 80097be:	2062      	movs	r0, #98	; 0x62
 80097c0:	f7ff fd7a 	bl	80092b8 <SendCmd>
 80097c4:	2018      	movs	r0, #24
 80097c6:	f7ff fd95 	bl	80092f4 <SendData>
 80097ca:	200d      	movs	r0, #13
 80097cc:	f7ff fd92 	bl	80092f4 <SendData>
 80097d0:	2071      	movs	r0, #113	; 0x71
 80097d2:	f7ff fd8f 	bl	80092f4 <SendData>
 80097d6:	20ed      	movs	r0, #237	; 0xed
 80097d8:	f7ff fd8c 	bl	80092f4 <SendData>
 80097dc:	2070      	movs	r0, #112	; 0x70
 80097de:	f7ff fd89 	bl	80092f4 <SendData>
 80097e2:	2070      	movs	r0, #112	; 0x70
 80097e4:	f7ff fd86 	bl	80092f4 <SendData>
 80097e8:	2018      	movs	r0, #24
 80097ea:	f7ff fd83 	bl	80092f4 <SendData>
 80097ee:	200f      	movs	r0, #15
 80097f0:	f7ff fd80 	bl	80092f4 <SendData>
 80097f4:	2071      	movs	r0, #113	; 0x71
 80097f6:	f7ff fd7d 	bl	80092f4 <SendData>
 80097fa:	20ef      	movs	r0, #239	; 0xef
 80097fc:	f7ff fd7a 	bl	80092f4 <SendData>
 8009800:	2070      	movs	r0, #112	; 0x70
 8009802:	f7ff fd77 	bl	80092f4 <SendData>
 8009806:	2070      	movs	r0, #112	; 0x70
 8009808:	f7ff fd74 	bl	80092f4 <SendData>
 800980c:	2063      	movs	r0, #99	; 0x63
 800980e:	f7ff fd53 	bl	80092b8 <SendCmd>
 8009812:	2018      	movs	r0, #24
 8009814:	f7ff fd6e 	bl	80092f4 <SendData>
 8009818:	2011      	movs	r0, #17
 800981a:	f7ff fd6b 	bl	80092f4 <SendData>
 800981e:	2071      	movs	r0, #113	; 0x71
 8009820:	f7ff fd68 	bl	80092f4 <SendData>
 8009824:	20f1      	movs	r0, #241	; 0xf1
 8009826:	f7ff fd65 	bl	80092f4 <SendData>
 800982a:	2070      	movs	r0, #112	; 0x70
 800982c:	f7ff fd62 	bl	80092f4 <SendData>
 8009830:	2070      	movs	r0, #112	; 0x70
 8009832:	f7ff fd5f 	bl	80092f4 <SendData>
 8009836:	2018      	movs	r0, #24
 8009838:	f7ff fd5c 	bl	80092f4 <SendData>
 800983c:	2013      	movs	r0, #19
 800983e:	f7ff fd59 	bl	80092f4 <SendData>
 8009842:	2071      	movs	r0, #113	; 0x71
 8009844:	f7ff fd56 	bl	80092f4 <SendData>
 8009848:	20f3      	movs	r0, #243	; 0xf3
 800984a:	f7ff fd53 	bl	80092f4 <SendData>
 800984e:	2070      	movs	r0, #112	; 0x70
 8009850:	f7ff fd50 	bl	80092f4 <SendData>
 8009854:	2070      	movs	r0, #112	; 0x70
 8009856:	f7ff fd4d 	bl	80092f4 <SendData>
 800985a:	2064      	movs	r0, #100	; 0x64
 800985c:	f7ff fd2c 	bl	80092b8 <SendCmd>
 8009860:	2028      	movs	r0, #40	; 0x28
 8009862:	f7ff fd47 	bl	80092f4 <SendData>
 8009866:	2029      	movs	r0, #41	; 0x29
 8009868:	f7ff fd44 	bl	80092f4 <SendData>
 800986c:	20f1      	movs	r0, #241	; 0xf1
 800986e:	f7ff fd41 	bl	80092f4 <SendData>
 8009872:	2001      	movs	r0, #1
 8009874:	f7ff fd3e 	bl	80092f4 <SendData>
 8009878:	20f1      	movs	r0, #241	; 0xf1
 800987a:	f7ff fd3b 	bl	80092f4 <SendData>
 800987e:	4620      	mov	r0, r4
 8009880:	f7ff fd38 	bl	80092f4 <SendData>
 8009884:	2007      	movs	r0, #7
 8009886:	f7ff fd35 	bl	80092f4 <SendData>
 800988a:	2066      	movs	r0, #102	; 0x66
 800988c:	f7ff fd14 	bl	80092b8 <SendCmd>
 8009890:	203c      	movs	r0, #60	; 0x3c
 8009892:	f7ff fd2f 	bl	80092f4 <SendData>
 8009896:	4620      	mov	r0, r4
 8009898:	f7ff fd2c 	bl	80092f4 <SendData>
 800989c:	20cd      	movs	r0, #205	; 0xcd
 800989e:	f7ff fd29 	bl	80092f4 <SendData>
 80098a2:	2067      	movs	r0, #103	; 0x67
 80098a4:	f7ff fd26 	bl	80092f4 <SendData>
 80098a8:	2045      	movs	r0, #69	; 0x45
 80098aa:	f7ff fd23 	bl	80092f4 <SendData>
 80098ae:	2045      	movs	r0, #69	; 0x45
 80098b0:	f7ff fd20 	bl	80092f4 <SendData>
 80098b4:	2010      	movs	r0, #16
 80098b6:	f7ff fd1d 	bl	80092f4 <SendData>
 80098ba:	4620      	mov	r0, r4
 80098bc:	f7ff fd1a 	bl	80092f4 <SendData>
 80098c0:	4620      	mov	r0, r4
 80098c2:	f7ff fd17 	bl	80092f4 <SendData>
 80098c6:	4620      	mov	r0, r4
 80098c8:	f7ff fd14 	bl	80092f4 <SendData>
 80098cc:	2067      	movs	r0, #103	; 0x67
 80098ce:	f7ff fcf3 	bl	80092b8 <SendCmd>
 80098d2:	4620      	mov	r0, r4
 80098d4:	f7ff fd0e 	bl	80092f4 <SendData>
 80098d8:	203c      	movs	r0, #60	; 0x3c
 80098da:	f7ff fd0b 	bl	80092f4 <SendData>
 80098de:	4620      	mov	r0, r4
 80098e0:	f7ff fd08 	bl	80092f4 <SendData>
 80098e4:	4620      	mov	r0, r4
 80098e6:	f7ff fd05 	bl	80092f4 <SendData>
 80098ea:	4620      	mov	r0, r4
 80098ec:	f7ff fd02 	bl	80092f4 <SendData>
 80098f0:	2001      	movs	r0, #1
 80098f2:	f7ff fcff 	bl	80092f4 <SendData>
 80098f6:	2054      	movs	r0, #84	; 0x54
 80098f8:	f7ff fcfc 	bl	80092f4 <SendData>
 80098fc:	e004      	b.n	8009908 <GC9A01A_Init+0x400>
 80098fe:	bf00      	nop
 8009900:	20000260 	.word	0x20000260
 8009904:	20000261 	.word	0x20000261
 8009908:	2010      	movs	r0, #16
 800990a:	f7ff fcf3 	bl	80092f4 <SendData>
 800990e:	2032      	movs	r0, #50	; 0x32
 8009910:	f7ff fcf0 	bl	80092f4 <SendData>
 8009914:	2098      	movs	r0, #152	; 0x98
 8009916:	f7ff fced 	bl	80092f4 <SendData>
 800991a:	2074      	movs	r0, #116	; 0x74
 800991c:	f7ff fccc 	bl	80092b8 <SendCmd>
 8009920:	2010      	movs	r0, #16
 8009922:	f7ff fce7 	bl	80092f4 <SendData>
 8009926:	2085      	movs	r0, #133	; 0x85
 8009928:	f7ff fce4 	bl	80092f4 <SendData>
 800992c:	2080      	movs	r0, #128	; 0x80
 800992e:	f7ff fce1 	bl	80092f4 <SendData>
 8009932:	4620      	mov	r0, r4
 8009934:	f7ff fcde 	bl	80092f4 <SendData>
 8009938:	4620      	mov	r0, r4
 800993a:	f7ff fcdb 	bl	80092f4 <SendData>
 800993e:	204e      	movs	r0, #78	; 0x4e
 8009940:	f7ff fcd8 	bl	80092f4 <SendData>
 8009944:	4620      	mov	r0, r4
 8009946:	f7ff fcd5 	bl	80092f4 <SendData>
 800994a:	2098      	movs	r0, #152	; 0x98
 800994c:	f7ff fcb4 	bl	80092b8 <SendCmd>
 8009950:	203e      	movs	r0, #62	; 0x3e
 8009952:	f7ff fccf 	bl	80092f4 <SendData>
 8009956:	2007      	movs	r0, #7
 8009958:	f7ff fccc 	bl	80092f4 <SendData>
 800995c:	2035      	movs	r0, #53	; 0x35
 800995e:	f7ff fcab 	bl	80092b8 <SendCmd>
 8009962:	2021      	movs	r0, #33	; 0x21
 8009964:	f7ff fca8 	bl	80092b8 <SendCmd>
 8009968:	4620      	mov	r0, r4
 800996a:	f7ff fd15 	bl	8009398 <GC9A01A_SleepMode>
 800996e:	2078      	movs	r0, #120	; 0x78
 8009970:	f001 ff88 	bl	800b884 <HAL_Delay>
 8009974:	2029      	movs	r0, #41	; 0x29
 8009976:	f7ff fc9f 	bl	80092b8 <SendCmd>
 800997a:	2014      	movs	r0, #20
 800997c:	f001 ff82 	bl	800b884 <HAL_Delay>
 8009980:	23f0      	movs	r3, #240	; 0xf0
 8009982:	4620      	mov	r0, r4
 8009984:	9400      	str	r4, [sp, #0]
 8009986:	461a      	mov	r2, r3
 8009988:	4621      	mov	r1, r4
 800998a:	f7ff fd8e 	bl	80094aa <GC9A01A_FillRect>
 800998e:	2014      	movs	r0, #20
 8009990:	b002      	add	sp, #8
 8009992:	e8bd 4010 	ldmia.w	sp!, {r4, lr}
 8009996:	f001 bf75 	b.w	800b884 <HAL_Delay>
 800999a:	bf00      	nop

0800999c <SystemClock_Config>:
 800999c:	b510      	push	{r4, lr}
 800999e:	b094      	sub	sp, #80	; 0x50
 80099a0:	2210      	movs	r2, #16
 80099a2:	2100      	movs	r1, #0
 80099a4:	a80a      	add	r0, sp, #40	; 0x28
 80099a6:	f005 fa5d 	bl	800ee64 <memset>
 80099aa:	2214      	movs	r2, #20
 80099ac:	2100      	movs	r1, #0
 80099ae:	a803      	add	r0, sp, #12
 80099b0:	f005 fa58 	bl	800ee64 <memset>
 80099b4:	4b1f      	ldr	r3, [pc, #124]	; (8009a34 <SystemClock_Config+0x98>)
 80099b6:	2100      	movs	r1, #0
 80099b8:	9101      	str	r1, [sp, #4]
 80099ba:	6c1a      	ldr	r2, [r3, #64]	; 0x40
 80099bc:	f042 5280 	orr.w	r2, r2, #268435456	; 0x10000000
 80099c0:	641a      	str	r2, [r3, #64]	; 0x40
 80099c2:	6c1b      	ldr	r3, [r3, #64]	; 0x40
 80099c4:	f003 5380 	and.w	r3, r3, #268435456	; 0x10000000
 80099c8:	9301      	str	r3, [sp, #4]
 80099ca:	9b01      	ldr	r3, [sp, #4]
 80099cc:	4b1a      	ldr	r3, [pc, #104]	; (8009a38 <SystemClock_Config+0x9c>)
 80099ce:	9102      	str	r1, [sp, #8]
 80099d0:	681a      	ldr	r2, [r3, #0]
 80099d2:	f442 4240 	orr.w	r2, r2, #49152	; 0xc000
 80099d6:	601a      	str	r2, [r3, #0]
 80099d8:	681b      	ldr	r3, [r3, #0]
 80099da:	f403 4340 	and.w	r3, r3, #49152	; 0xc000
 80099de:	9302      	str	r3, [sp, #8]
 80099e0:	9b02      	ldr	r3, [sp, #8]
 80099e2:	2201      	movs	r2, #1
 80099e4:	f44f 3380 	mov.w	r3, #65536	; 0x10000
 80099e8:	e9cd 2308 	strd	r2, r3, [sp, #32]
 80099ec:	2402      	movs	r4, #2
 80099ee:	f44f 0380 	mov.w	r3, #4194304	; 0x400000
 80099f2:	e9cd 430e 	strd	r4, r3, [sp, #56]	; 0x38
 80099f6:	210c      	movs	r1, #12
 80099f8:	23c0      	movs	r3, #192	; 0xc0
 80099fa:	2004      	movs	r0, #4
 80099fc:	e9cd 1310 	strd	r1, r3, [sp, #64]	; 0x40
 8009a00:	2308      	movs	r3, #8
 8009a02:	e9cd 0312 	strd	r0, r3, [sp, #72]	; 0x48
 8009a06:	a808      	add	r0, sp, #32
 8009a08:	f003 ffd8 	bl	800d9bc <HAL_RCC_OscConfig>
 8009a0c:	b108      	cbz	r0, 8009a12 <SystemClock_Config+0x76>
 8009a0e:	b672      	cpsid	i
 8009a10:	e7fe      	b.n	8009a10 <SystemClock_Config+0x74>
 8009a12:	230f      	movs	r3, #15
 8009a14:	e9cd 3403 	strd	r3, r4, [sp, #12]
 8009a18:	f44f 5380 	mov.w	r3, #4096	; 0x1000
 8009a1c:	e9cd 3006 	strd	r3, r0, [sp, #24]
 8009a20:	9005      	str	r0, [sp, #20]
 8009a22:	2103      	movs	r1, #3
 8009a24:	a803      	add	r0, sp, #12
 8009a26:	f004 f9a3 	bl	800dd70 <HAL_RCC_ClockConfig>
 8009a2a:	b108      	cbz	r0, 8009a30 <SystemClock_Config+0x94>
 8009a2c:	b672      	cpsid	i
 8009a2e:	e7fe      	b.n	8009a2e <SystemClock_Config+0x92>
 8009a30:	b014      	add	sp, #80	; 0x50
 8009a32:	bd10      	pop	{r4, pc}
 8009a34:	40023800 	.word	0x40023800
 8009a38:	40007000 	.word	0x40007000

08009a3c <hex2bin>:
 8009a3c:	b5f0      	push	{r4, r5, r6, r7, lr}
 8009a3e:	b085      	sub	sp, #20
 8009a40:	2500      	movs	r5, #0
 8009a42:	2330      	movs	r3, #48	; 0x30
 8009a44:	e9cd 3502 	strd	r3, r5, [sp, #8]
 8009a48:	f8ad 5004 	strh.w	r5, [sp, #4]
 8009a4c:	2900      	cmp	r1, #0
 8009a4e:	d05b      	beq.n	8009b08 <hex2bin+0xcc>
 8009a50:	2800      	cmp	r0, #0
 8009a52:	d03b      	beq.n	8009acc <hex2bin+0x90>
 8009a54:	2908      	cmp	r1, #8
 8009a56:	460a      	mov	r2, r1
 8009a58:	bf28      	it	cs
 8009a5a:	2208      	movcs	r2, #8
 8009a5c:	f1c2 0308 	rsb	r3, r2, #8
 8009a60:	ac02      	add	r4, sp, #8
 8009a62:	4601      	mov	r1, r0
 8009a64:	fa54 f083 	uxtab	r0, r4, r3
 8009a68:	f005 f9ee 	bl	800ee48 <memcpy>
 8009a6c:	462a      	mov	r2, r5
 8009a6e:	4628      	mov	r0, r5
 8009a70:	f06f 0503 	mvn.w	r5, #3
 8009a74:	b2d3      	uxtb	r3, r2
 8009a76:	1c9e      	adds	r6, r3, #2
 8009a78:	3301      	adds	r3, #1
 8009a7a:	b2f6      	uxtb	r6, r6
 8009a7c:	b2db      	uxtb	r3, r3
 8009a7e:	429e      	cmp	r6, r3
 8009a80:	bf34      	ite	cc
 8009a82:	2600      	movcc	r6, #0
 8009a84:	2601      	movcs	r6, #1
 8009a86:	4617      	mov	r7, r2
 8009a88:	5de1      	ldrb	r1, [r4, r7]
 8009a8a:	f1a1 0c30 	sub.w	ip, r1, #48	; 0x30
 8009a8e:	fa5f fc8c 	uxtb.w	ip, ip
 8009a92:	f1bc 0f09 	cmp.w	ip, #9
 8009a96:	b2fb      	uxtb	r3, r7
 8009a98:	d81c      	bhi.n	8009ad4 <hex2bin+0x98>
 8009a9a:	f003 0301 	and.w	r3, r3, #1
 8009a9e:	a904      	add	r1, sp, #16
 8009aa0:	440b      	add	r3, r1
 8009aa2:	f803 cc0c 	strb.w	ip, [r3, #-12]
 8009aa6:	3701      	adds	r7, #1
 8009aa8:	b996      	cbnz	r6, 8009ad0 <hex2bin+0x94>
 8009aaa:	f89d 3005 	ldrb.w	r3, [sp, #5]
 8009aae:	f89d 1004 	ldrb.w	r1, [sp, #4]
 8009ab2:	f003 030f 	and.w	r3, r3, #15
 8009ab6:	ea43 1301 	orr.w	r3, r3, r1, lsl #4
 8009aba:	fb05 f102 	mul.w	r1, r5, r2
 8009abe:	3118      	adds	r1, #24
 8009ac0:	3202      	adds	r2, #2
 8009ac2:	408b      	lsls	r3, r1
 8009ac4:	2a08      	cmp	r2, #8
 8009ac6:	ea40 0003 	orr.w	r0, r0, r3
 8009aca:	d1d3      	bne.n	8009a74 <hex2bin+0x38>
 8009acc:	b005      	add	sp, #20
 8009ace:	bdf0      	pop	{r4, r5, r6, r7, pc}
 8009ad0:	2600      	movs	r6, #0
 8009ad2:	e7d9      	b.n	8009a88 <hex2bin+0x4c>
 8009ad4:	f1a1 0c61 	sub.w	ip, r1, #97	; 0x61
 8009ad8:	f1bc 0f05 	cmp.w	ip, #5
 8009adc:	d808      	bhi.n	8009af0 <hex2bin+0xb4>
 8009ade:	f003 0301 	and.w	r3, r3, #1
 8009ae2:	f10d 0c10 	add.w	ip, sp, #16
 8009ae6:	4463      	add	r3, ip
 8009ae8:	3957      	subs	r1, #87	; 0x57
 8009aea:	f803 1c0c 	strb.w	r1, [r3, #-12]
 8009aee:	e7da      	b.n	8009aa6 <hex2bin+0x6a>
 8009af0:	f1a1 0c41 	sub.w	ip, r1, #65	; 0x41
 8009af4:	f1bc 0f05 	cmp.w	ip, #5
 8009af8:	d8d5      	bhi.n	8009aa6 <hex2bin+0x6a>
 8009afa:	f003 0301 	and.w	r3, r3, #1
 8009afe:	f10d 0c10 	add.w	ip, sp, #16
 8009b02:	4463      	add	r3, ip
 8009b04:	3937      	subs	r1, #55	; 0x37
 8009b06:	e7f0      	b.n	8009aea <hex2bin+0xae>
 8009b08:	4608      	mov	r0, r1
 8009b0a:	e7df      	b.n	8009acc <hex2bin+0x90>

08009b0c <inc_mSecCounter>:
 8009b0c:	4a02      	ldr	r2, [pc, #8]	; (8009b18 <inc_mSecCounter+0xc>)
 8009b0e:	6813      	ldr	r3, [r2, #0]
 8009b10:	3301      	adds	r3, #1
 8009b12:	6013      	str	r3, [r2, #0]
 8009b14:	4770      	bx	lr
 8009b16:	bf00      	nop
 8009b18:	200002cc 	.word	0x200002cc

08009b1c <inc_secCounter>:
 8009b1c:	4a02      	ldr	r2, [pc, #8]	; (8009b28 <inc_secCounter+0xc>)
 8009b1e:	6813      	ldr	r3, [r2, #0]
 8009b20:	3301      	adds	r3, #1
 8009b22:	6013      	str	r3, [r2, #0]
 8009b24:	4770      	bx	lr
 8009b26:	bf00      	nop
 8009b28:	20000264 	.word	0x20000264

08009b2c <errLedOn>:
 8009b2c:	b510      	push	{r4, lr}
 8009b2e:	2201      	movs	r2, #1
 8009b30:	4604      	mov	r4, r0
 8009b32:	f44f 6180 	mov.w	r1, #1024	; 0x400
 8009b36:	4808      	ldr	r0, [pc, #32]	; (8009b58 <errLedOn+0x2c>)
 8009b38:	f002 fd5e 	bl	800c5f8 <HAL_GPIO_WritePin>
 8009b3c:	2019      	movs	r0, #25
 8009b3e:	f001 fea1 	bl	800b884 <HAL_Delay>
 8009b42:	b13c      	cbz	r4, 8009b54 <errLedOn+0x28>
 8009b44:	e8bd 4010 	ldmia.w	sp!, {r4, lr}
 8009b48:	4803      	ldr	r0, [pc, #12]	; (8009b58 <errLedOn+0x2c>)
 8009b4a:	2200      	movs	r2, #0
 8009b4c:	f44f 6180 	mov.w	r1, #1024	; 0x400
 8009b50:	f002 bd52 	b.w	800c5f8 <HAL_GPIO_WritePin>
 8009b54:	bd10      	pop	{r4, pc}
 8009b56:	bf00      	nop
 8009b58:	40020400 	.word	0x40020400

08009b5c <sec2str>:
 8009b5c:	4b0c      	ldr	r3, [pc, #48]	; (8009b90 <sec2str+0x34>)
 8009b5e:	b537      	push	{r0, r1, r2, r4, r5, lr}
 8009b60:	681c      	ldr	r4, [r3, #0]
 8009b62:	490c      	ldr	r1, [pc, #48]	; (8009b94 <sec2str+0x38>)
 8009b64:	fbb4 f2f1 	udiv	r2, r4, r1
 8009b68:	fb01 4412 	mls	r4, r1, r2, r4
 8009b6c:	f44f 6161 	mov.w	r1, #3600	; 0xe10
 8009b70:	fbb4 f3f1 	udiv	r3, r4, r1
 8009b74:	fb01 4113 	mls	r1, r1, r3, r4
 8009b78:	243c      	movs	r4, #60	; 0x3c
 8009b7a:	fbb1 f5f4 	udiv	r5, r1, r4
 8009b7e:	fb04 1115 	mls	r1, r4, r5, r1
 8009b82:	e9cd 5100 	strd	r5, r1, [sp]
 8009b86:	4904      	ldr	r1, [pc, #16]	; (8009b98 <sec2str+0x3c>)
 8009b88:	f005 fdde 	bl	800f748 <siprintf>
 8009b8c:	b003      	add	sp, #12
 8009b8e:	bd30      	pop	{r4, r5, pc}
 8009b90:	20000264 	.word	0x20000264
 8009b94:	00015180 	.word	0x00015180
 8009b98:	0801689c 	.word	0x0801689c

08009b9c <Report>:
 8009b9c:	b40c      	push	{r2, r3}
 8009b9e:	b573      	push	{r0, r1, r4, r5, r6, lr}
 8009ba0:	4d24      	ldr	r5, [pc, #144]	; (8009c34 <Report+0x98>)
 8009ba2:	2300      	movs	r3, #0
 8009ba4:	4606      	mov	r6, r0
 8009ba6:	702b      	strb	r3, [r5, #0]
 8009ba8:	2900      	cmp	r1, #0
 8009baa:	d037      	beq.n	8009c1c <Report+0x80>
 8009bac:	4628      	mov	r0, r5
 8009bae:	f7ff ffd5 	bl	8009b5c <sec2str>
 8009bb2:	4921      	ldr	r1, [pc, #132]	; (8009c38 <Report+0x9c>)
 8009bb4:	4604      	mov	r4, r0
 8009bb6:	4628      	mov	r0, r5
 8009bb8:	f005 fde6 	bl	800f788 <strcat>
 8009bbc:	3402      	adds	r4, #2
 8009bbe:	b146      	cbz	r6, 8009bd2 <Report+0x36>
 8009bc0:	481c      	ldr	r0, [pc, #112]	; (8009c34 <Report+0x98>)
 8009bc2:	f7fe fb0d 	bl	80081e0 <strlen>
 8009bc6:	491d      	ldr	r1, [pc, #116]	; (8009c3c <Report+0xa0>)
 8009bc8:	4632      	mov	r2, r6
 8009bca:	4428      	add	r0, r5
 8009bcc:	f005 fdbc 	bl	800f748 <siprintf>
 8009bd0:	4404      	add	r4, r0
 8009bd2:	f5c4 6180 	rsb	r1, r4, #1024	; 0x400
 8009bd6:	ab07      	add	r3, sp, #28
 8009bd8:	9a06      	ldr	r2, [sp, #24]
 8009bda:	9301      	str	r3, [sp, #4]
 8009bdc:	1928      	adds	r0, r5, r4
 8009bde:	f005 fedb 	bl	800f998 <vsniprintf>
 8009be2:	4b17      	ldr	r3, [pc, #92]	; (8009c40 <Report+0xa4>)
 8009be4:	4813      	ldr	r0, [pc, #76]	; (8009c34 <Report+0x98>)
 8009be6:	4c17      	ldr	r4, [pc, #92]	; (8009c44 <Report+0xa8>)
 8009be8:	2200      	movs	r2, #0
 8009bea:	701a      	strb	r2, [r3, #0]
 8009bec:	f7fe faf8 	bl	80081e0 <strlen>
 8009bf0:	4910      	ldr	r1, [pc, #64]	; (8009c34 <Report+0x98>)
 8009bf2:	b282      	uxth	r2, r0
 8009bf4:	6820      	ldr	r0, [r4, #0]
 8009bf6:	f004 fe79 	bl	800e8ec <HAL_UART_Transmit_DMA>
 8009bfa:	b120      	cbz	r0, 8009c06 <Report+0x6a>
 8009bfc:	4a12      	ldr	r2, [pc, #72]	; (8009c48 <Report+0xac>)
 8009bfe:	6813      	ldr	r3, [r2, #0]
 8009c00:	f043 0301 	orr.w	r3, r3, #1
 8009c04:	6013      	str	r3, [r2, #0]
 8009c06:	6820      	ldr	r0, [r4, #0]
 8009c08:	f005 f8b8 	bl	800ed7c <HAL_UART_GetState>
 8009c0c:	2820      	cmp	r0, #32
 8009c0e:	d107      	bne.n	8009c20 <Report+0x84>
 8009c10:	2000      	movs	r0, #0
 8009c12:	b002      	add	sp, #8
 8009c14:	e8bd 4070 	ldmia.w	sp!, {r4, r5, r6, lr}
 8009c18:	b002      	add	sp, #8
 8009c1a:	4770      	bx	lr
 8009c1c:	460c      	mov	r4, r1
 8009c1e:	e7ce      	b.n	8009bbe <Report+0x22>
 8009c20:	6820      	ldr	r0, [r4, #0]
 8009c22:	f005 f8ab 	bl	800ed7c <HAL_UART_GetState>
 8009c26:	2822      	cmp	r0, #34	; 0x22
 8009c28:	d0f2      	beq.n	8009c10 <Report+0x74>
 8009c2a:	2001      	movs	r0, #1
 8009c2c:	f001 fe2a 	bl	800b884 <HAL_Delay>
 8009c30:	e7e9      	b.n	8009c06 <Report+0x6a>
 8009c32:	bf00      	nop
 8009c34:	200006d9 	.word	0x200006d9
 8009c38:	080168b3 	.word	0x080168b3
 8009c3c:	080168b6 	.word	0x080168b6
 8009c40:	20000048 	.word	0x20000048
 8009c44:	20000044 	.word	0x20000044
 8009c48:	20000280 	.word	0x20000280

08009c4c <putEvt>:
 8009c4c:	b5f8      	push	{r3, r4, r5, r6, r7, lr}
 8009c4e:	4e28      	ldr	r6, [pc, #160]	; (8009cf0 <putEvt+0xa4>)
 8009c50:	4c28      	ldr	r4, [pc, #160]	; (8009cf4 <putEvt+0xa8>)
 8009c52:	7833      	ldrb	r3, [r6, #0]
 8009c54:	2b3d      	cmp	r3, #61	; 0x3d
 8009c56:	4607      	mov	r7, r0
 8009c58:	d904      	bls.n	8009c64 <putEvt+0x18>
 8009c5a:	6823      	ldr	r3, [r4, #0]
 8009c5c:	f043 0303 	orr.w	r3, r3, #3
 8009c60:	6023      	str	r3, [r4, #0]
 8009c62:	bdf8      	pop	{r3, r4, r5, r6, r7, pc}
 8009c64:	2012      	movs	r0, #18
 8009c66:	f002 f8c5 	bl	800bdf4 <HAL_NVIC_DisableIRQ>
 8009c6a:	2025      	movs	r0, #37	; 0x25
 8009c6c:	f002 f8c2 	bl	800bdf4 <HAL_NVIC_DisableIRQ>
 8009c70:	2008      	movs	r0, #8
 8009c72:	f002 f8bf 	bl	800bdf4 <HAL_NVIC_DisableIRQ>
 8009c76:	201d      	movs	r0, #29
 8009c78:	f002 f8bc 	bl	800bdf4 <HAL_NVIC_DisableIRQ>
 8009c7c:	2038      	movs	r0, #56	; 0x38
 8009c7e:	f002 f8b9 	bl	800bdf4 <HAL_NVIC_DisableIRQ>
 8009c82:	7833      	ldrb	r3, [r6, #0]
 8009c84:	4d1c      	ldr	r5, [pc, #112]	; (8009cf8 <putEvt+0xac>)
 8009c86:	2b3f      	cmp	r3, #63	; 0x3f
 8009c88:	d909      	bls.n	8009c9e <putEvt+0x52>
 8009c8a:	782a      	ldrb	r2, [r5, #0]
 8009c8c:	6823      	ldr	r3, [r4, #0]
 8009c8e:	3201      	adds	r2, #1
 8009c90:	b2d2      	uxtb	r2, r2
 8009c92:	702a      	strb	r2, [r5, #0]
 8009c94:	b9c2      	cbnz	r2, 8009cc8 <putEvt+0x7c>
 8009c96:	6823      	ldr	r3, [r4, #0]
 8009c98:	f023 0303 	bic.w	r3, r3, #3
 8009c9c:	e016      	b.n	8009ccc <putEvt+0x80>
 8009c9e:	4917      	ldr	r1, [pc, #92]	; (8009cfc <putEvt+0xb0>)
 8009ca0:	4817      	ldr	r0, [pc, #92]	; (8009d00 <putEvt+0xb4>)
 8009ca2:	780a      	ldrb	r2, [r1, #0]
 8009ca4:	2a3e      	cmp	r2, #62	; 0x3e
 8009ca6:	5487      	strb	r7, [r0, r2]
 8009ca8:	bf9a      	itte	ls
 8009caa:	3201      	addls	r2, #1
 8009cac:	b2d2      	uxtbls	r2, r2
 8009cae:	2200      	movhi	r2, #0
 8009cb0:	700a      	strb	r2, [r1, #0]
 8009cb2:	2200      	movs	r2, #0
 8009cb4:	702a      	strb	r2, [r5, #0]
 8009cb6:	4a13      	ldr	r2, [pc, #76]	; (8009d04 <putEvt+0xb8>)
 8009cb8:	3301      	adds	r3, #1
 8009cba:	7811      	ldrb	r1, [r2, #0]
 8009cbc:	b2db      	uxtb	r3, r3
 8009cbe:	4299      	cmp	r1, r3
 8009cc0:	7033      	strb	r3, [r6, #0]
 8009cc2:	d2e8      	bcs.n	8009c96 <putEvt+0x4a>
 8009cc4:	7013      	strb	r3, [r2, #0]
 8009cc6:	e7e6      	b.n	8009c96 <putEvt+0x4a>
 8009cc8:	f043 0303 	orr.w	r3, r3, #3
 8009ccc:	2038      	movs	r0, #56	; 0x38
 8009cce:	6023      	str	r3, [r4, #0]
 8009cd0:	f002 f882 	bl	800bdd8 <HAL_NVIC_EnableIRQ>
 8009cd4:	201d      	movs	r0, #29
 8009cd6:	f002 f87f 	bl	800bdd8 <HAL_NVIC_EnableIRQ>
 8009cda:	2008      	movs	r0, #8
 8009cdc:	f002 f87c 	bl	800bdd8 <HAL_NVIC_EnableIRQ>
 8009ce0:	2025      	movs	r0, #37	; 0x25
 8009ce2:	f002 f879 	bl	800bdd8 <HAL_NVIC_EnableIRQ>
 8009ce6:	e8bd 40f8 	ldmia.w	sp!, {r3, r4, r5, r6, r7, lr}
 8009cea:	2012      	movs	r0, #18
 8009cec:	f002 b874 	b.w	800bdd8 <HAL_NVIC_EnableIRQ>
 8009cf0:	2000027c 	.word	0x2000027c
 8009cf4:	20000280 	.word	0x20000280
 8009cf8:	20000add 	.word	0x20000add
 8009cfc:	20000adc 	.word	0x20000adc
 8009d00:	20000284 	.word	0x20000284
 8009d04:	200002d0 	.word	0x200002d0

08009d08 <dmaTransferDone>:
 8009d08:	4b07      	ldr	r3, [pc, #28]	; (8009d28 <dmaTransferDone+0x20>)
 8009d0a:	681b      	ldr	r3, [r3, #0]
 8009d0c:	4283      	cmp	r3, r0
 8009d0e:	d10a      	bne.n	8009d26 <dmaTransferDone+0x1e>
 8009d10:	4b06      	ldr	r3, [pc, #24]	; (8009d2c <dmaTransferDone+0x24>)
 8009d12:	781b      	ldrb	r3, [r3, #0]
 8009d14:	2b01      	cmp	r3, #1
 8009d16:	d004      	beq.n	8009d22 <dmaTransferDone+0x1a>
 8009d18:	2b02      	cmp	r3, #2
 8009d1a:	d104      	bne.n	8009d26 <dmaTransferDone+0x1e>
 8009d1c:	2009      	movs	r0, #9
 8009d1e:	f7ff bf95 	b.w	8009c4c <putEvt>
 8009d22:	2008      	movs	r0, #8
 8009d24:	e7fb      	b.n	8009d1e <dmaTransferDone+0x16>
 8009d26:	4770      	bx	lr
 8009d28:	2000002c 	.word	0x2000002c
 8009d2c:	200002d2 	.word	0x200002d2

08009d30 <getEvt>:
 8009d30:	b510      	push	{r4, lr}
 8009d32:	2012      	movs	r0, #18
 8009d34:	f002 f85e 	bl	800bdf4 <HAL_NVIC_DisableIRQ>
 8009d38:	2025      	movs	r0, #37	; 0x25
 8009d3a:	f002 f85b 	bl	800bdf4 <HAL_NVIC_DisableIRQ>
 8009d3e:	2008      	movs	r0, #8
 8009d40:	f002 f858 	bl	800bdf4 <HAL_NVIC_DisableIRQ>
 8009d44:	201d      	movs	r0, #29
 8009d46:	f002 f855 	bl	800bdf4 <HAL_NVIC_DisableIRQ>
 8009d4a:	2038      	movs	r0, #56	; 0x38
 8009d4c:	f002 f852 	bl	800bdf4 <HAL_NVIC_DisableIRQ>
 8009d50:	4810      	ldr	r0, [pc, #64]	; (8009d94 <getEvt+0x64>)
 8009d52:	7803      	ldrb	r3, [r0, #0]
 8009d54:	b1e3      	cbz	r3, 8009d90 <getEvt+0x60>
 8009d56:	4910      	ldr	r1, [pc, #64]	; (8009d98 <getEvt+0x68>)
 8009d58:	4c10      	ldr	r4, [pc, #64]	; (8009d9c <getEvt+0x6c>)
 8009d5a:	780a      	ldrb	r2, [r1, #0]
 8009d5c:	3b01      	subs	r3, #1
 8009d5e:	2a3e      	cmp	r2, #62	; 0x3e
 8009d60:	5ca4      	ldrb	r4, [r4, r2]
 8009d62:	7003      	strb	r3, [r0, #0]
 8009d64:	bf95      	itete	ls
 8009d66:	3201      	addls	r2, #1
 8009d68:	2300      	movhi	r3, #0
 8009d6a:	700a      	strbls	r2, [r1, #0]
 8009d6c:	700b      	strbhi	r3, [r1, #0]
 8009d6e:	2038      	movs	r0, #56	; 0x38
 8009d70:	f002 f832 	bl	800bdd8 <HAL_NVIC_EnableIRQ>
 8009d74:	201d      	movs	r0, #29
 8009d76:	f002 f82f 	bl	800bdd8 <HAL_NVIC_EnableIRQ>
 8009d7a:	2008      	movs	r0, #8
 8009d7c:	f002 f82c 	bl	800bdd8 <HAL_NVIC_EnableIRQ>
 8009d80:	2025      	movs	r0, #37	; 0x25
 8009d82:	f002 f829 	bl	800bdd8 <HAL_NVIC_EnableIRQ>
 8009d86:	2012      	movs	r0, #18
 8009d88:	f002 f826 	bl	800bdd8 <HAL_NVIC_EnableIRQ>
 8009d8c:	4620      	mov	r0, r4
 8009d8e:	bd10      	pop	{r4, pc}
 8009d90:	461c      	mov	r4, r3
 8009d92:	e7ec      	b.n	8009d6e <getEvt+0x3e>
 8009d94:	2000027c 	.word	0x2000027c
 8009d98:	200002d3 	.word	0x200002d3
 8009d9c:	20000284 	.word	0x20000284

08009da0 <main>:
 8009da0:	e92d 4ff0 	stmdb	sp!, {r4, r5, r6, r7, r8, r9, sl, fp, lr}
 8009da4:	ed2d 8b02 	vpush	{d8}
 8009da8:	b0ab      	sub	sp, #172	; 0xac
 8009daa:	b672      	cpsid	i
 8009dac:	4bb8      	ldr	r3, [pc, #736]	; (800a090 <main+0x2f0>)
 8009dae:	4ab9      	ldr	r2, [pc, #740]	; (800a094 <main+0x2f4>)
 8009db0:	609a      	str	r2, [r3, #8]
 8009db2:	b662      	cpsie	i
 8009db4:	f001 fd3a 	bl	800b82c <HAL_Init>
 8009db8:	2400      	movs	r4, #0
 8009dba:	4eb7      	ldr	r6, [pc, #732]	; (800a098 <main+0x2f8>)
 8009dbc:	f7ff fdee 	bl	800999c <SystemClock_Config>
 8009dc0:	2214      	movs	r2, #20
 8009dc2:	2100      	movs	r1, #0
 8009dc4:	a81a      	add	r0, sp, #104	; 0x68
 8009dc6:	f005 f84d 	bl	800ee64 <memset>
 8009dca:	9414      	str	r4, [sp, #80]	; 0x50
 8009dcc:	6b33      	ldr	r3, [r6, #48]	; 0x30
 8009dce:	48b3      	ldr	r0, [pc, #716]	; (800a09c <main+0x2fc>)
 8009dd0:	f043 0304 	orr.w	r3, r3, #4
 8009dd4:	6333      	str	r3, [r6, #48]	; 0x30
 8009dd6:	6b33      	ldr	r3, [r6, #48]	; 0x30
 8009dd8:	f003 0304 	and.w	r3, r3, #4
 8009ddc:	9314      	str	r3, [sp, #80]	; 0x50
 8009dde:	9b14      	ldr	r3, [sp, #80]	; 0x50
 8009de0:	9415      	str	r4, [sp, #84]	; 0x54
 8009de2:	6b33      	ldr	r3, [r6, #48]	; 0x30
 8009de4:	f043 0380 	orr.w	r3, r3, #128	; 0x80
 8009de8:	6333      	str	r3, [r6, #48]	; 0x30
 8009dea:	6b33      	ldr	r3, [r6, #48]	; 0x30
 8009dec:	f003 0380 	and.w	r3, r3, #128	; 0x80
 8009df0:	9315      	str	r3, [sp, #84]	; 0x54
 8009df2:	9b15      	ldr	r3, [sp, #84]	; 0x54
 8009df4:	9416      	str	r4, [sp, #88]	; 0x58
 8009df6:	6b33      	ldr	r3, [r6, #48]	; 0x30
 8009df8:	f043 0301 	orr.w	r3, r3, #1
 8009dfc:	6333      	str	r3, [r6, #48]	; 0x30
 8009dfe:	6b33      	ldr	r3, [r6, #48]	; 0x30
 8009e00:	f003 0301 	and.w	r3, r3, #1
 8009e04:	9316      	str	r3, [sp, #88]	; 0x58
 8009e06:	9b16      	ldr	r3, [sp, #88]	; 0x58
 8009e08:	9417      	str	r4, [sp, #92]	; 0x5c
 8009e0a:	6b33      	ldr	r3, [r6, #48]	; 0x30
 8009e0c:	f043 0302 	orr.w	r3, r3, #2
 8009e10:	6333      	str	r3, [r6, #48]	; 0x30
 8009e12:	6b33      	ldr	r3, [r6, #48]	; 0x30
 8009e14:	f003 0302 	and.w	r3, r3, #2
 8009e18:	4622      	mov	r2, r4
 8009e1a:	9317      	str	r3, [sp, #92]	; 0x5c
 8009e1c:	f44f 5100 	mov.w	r1, #8192	; 0x2000
 8009e20:	9b17      	ldr	r3, [sp, #92]	; 0x5c
 8009e22:	f002 fbe9 	bl	800c5f8 <HAL_GPIO_WritePin>
 8009e26:	4622      	mov	r2, r4
 8009e28:	489d      	ldr	r0, [pc, #628]	; (800a0a0 <main+0x300>)
 8009e2a:	f241 0102 	movw	r1, #4098	; 0x1002
 8009e2e:	f002 fbe3 	bl	800c5f8 <HAL_GPIO_WritePin>
 8009e32:	489b      	ldr	r0, [pc, #620]	; (800a0a0 <main+0x300>)
 8009e34:	2201      	movs	r2, #1
 8009e36:	f44f 4188 	mov.w	r1, #17408	; 0x4400
 8009e3a:	f002 fbdd 	bl	800c5f8 <HAL_GPIO_WritePin>
 8009e3e:	2201      	movs	r2, #1
 8009e40:	4898      	ldr	r0, [pc, #608]	; (800a0a4 <main+0x304>)
 8009e42:	f44f 7180 	mov.w	r1, #256	; 0x100
 8009e46:	f002 fbd7 	bl	800c5f8 <HAL_GPIO_WritePin>
 8009e4a:	2501      	movs	r5, #1
 8009e4c:	f44f 5300 	mov.w	r3, #8192	; 0x2000
 8009e50:	4892      	ldr	r0, [pc, #584]	; (800a09c <main+0x2fc>)
 8009e52:	a91a      	add	r1, sp, #104	; 0x68
 8009e54:	e9cd 351a 	strd	r3, r5, [sp, #104]	; 0x68
 8009e58:	e9cd 441c 	strd	r4, r4, [sp, #112]	; 0x70
 8009e5c:	f002 fafe 	bl	800c45c <HAL_GPIO_Init>
 8009e60:	4890      	ldr	r0, [pc, #576]	; (800a0a4 <main+0x304>)
 8009e62:	951c      	str	r5, [sp, #112]	; 0x70
 8009e64:	a91a      	add	r1, sp, #104	; 0x68
 8009e66:	2702      	movs	r7, #2
 8009e68:	e9cd 541a 	strd	r5, r4, [sp, #104]	; 0x68
 8009e6c:	f002 faf6 	bl	800c45c <HAL_GPIO_Init>
 8009e70:	488b      	ldr	r0, [pc, #556]	; (800a0a0 <main+0x300>)
 8009e72:	a91a      	add	r1, sp, #104	; 0x68
 8009e74:	e9cd 751a 	strd	r7, r5, [sp, #104]	; 0x68
 8009e78:	e9cd 441c 	strd	r4, r4, [sp, #112]	; 0x70
 8009e7c:	f04f 0904 	mov.w	r9, #4
 8009e80:	f002 faec 	bl	800c45c <HAL_GPIO_Init>
 8009e84:	f44f 1344 	mov.w	r3, #3211264	; 0x310000
 8009e88:	4885      	ldr	r0, [pc, #532]	; (800a0a0 <main+0x300>)
 8009e8a:	951c      	str	r5, [sp, #112]	; 0x70
 8009e8c:	a91a      	add	r1, sp, #104	; 0x68
 8009e8e:	e9cd 931a 	strd	r9, r3, [sp, #104]	; 0x68
 8009e92:	f002 fae3 	bl	800c45c <HAL_GPIO_Init>
 8009e96:	f44f 4388 	mov.w	r3, #17408	; 0x4400
 8009e9a:	4881      	ldr	r0, [pc, #516]	; (800a0a0 <main+0x300>)
 8009e9c:	a91a      	add	r1, sp, #104	; 0x68
 8009e9e:	e9cd 351a 	strd	r3, r5, [sp, #104]	; 0x68
 8009ea2:	e9cd 551c 	strd	r5, r5, [sp, #112]	; 0x70
 8009ea6:	f44f 5880 	mov.w	r8, #4096	; 0x1000
 8009eaa:	f002 fad7 	bl	800c45c <HAL_GPIO_Init>
 8009eae:	487c      	ldr	r0, [pc, #496]	; (800a0a0 <main+0x300>)
 8009eb0:	a91a      	add	r1, sp, #104	; 0x68
 8009eb2:	e9cd 741c 	strd	r7, r4, [sp, #112]	; 0x70
 8009eb6:	e9cd 851a 	strd	r8, r5, [sp, #104]	; 0x68
 8009eba:	f002 facf 	bl	800c45c <HAL_GPIO_Init>
 8009ebe:	f44f 7380 	mov.w	r3, #256	; 0x100
 8009ec2:	4878      	ldr	r0, [pc, #480]	; (800a0a4 <main+0x304>)
 8009ec4:	a91a      	add	r1, sp, #104	; 0x68
 8009ec6:	e9cd 351a 	strd	r3, r5, [sp, #104]	; 0x68
 8009eca:	e9cd 551c 	strd	r5, r5, [sp, #112]	; 0x70
 8009ece:	f002 fac5 	bl	800c45c <HAL_GPIO_Init>
 8009ed2:	4622      	mov	r2, r4
 8009ed4:	4621      	mov	r1, r4
 8009ed6:	2008      	movs	r0, #8
 8009ed8:	f001 ff4c 	bl	800bd74 <HAL_NVIC_SetPriority>
 8009edc:	2008      	movs	r0, #8
 8009ede:	f001 ff7b 	bl	800bdd8 <HAL_NVIC_EnableIRQ>
 8009ee2:	9412      	str	r4, [sp, #72]	; 0x48
 8009ee4:	6b33      	ldr	r3, [r6, #48]	; 0x30
 8009ee6:	4870      	ldr	r0, [pc, #448]	; (800a0a8 <main+0x308>)
 8009ee8:	f443 0380 	orr.w	r3, r3, #4194304	; 0x400000
 8009eec:	6333      	str	r3, [r6, #48]	; 0x30
 8009eee:	6b33      	ldr	r3, [r6, #48]	; 0x30
 8009ef0:	f403 0380 	and.w	r3, r3, #4194304	; 0x400000
 8009ef4:	9312      	str	r3, [sp, #72]	; 0x48
 8009ef6:	9b12      	ldr	r3, [sp, #72]	; 0x48
 8009ef8:	9413      	str	r4, [sp, #76]	; 0x4c
 8009efa:	6b33      	ldr	r3, [r6, #48]	; 0x30
 8009efc:	f443 1300 	orr.w	r3, r3, #2097152	; 0x200000
 8009f00:	6333      	str	r3, [r6, #48]	; 0x30
 8009f02:	6b33      	ldr	r3, [r6, #48]	; 0x30
 8009f04:	6304      	str	r4, [r0, #48]	; 0x30
 8009f06:	f403 1300 	and.w	r3, r3, #2097152	; 0x200000
 8009f0a:	9313      	str	r3, [sp, #76]	; 0x4c
 8009f0c:	9b13      	ldr	r3, [sp, #76]	; 0x4c
 8009f0e:	4b67      	ldr	r3, [pc, #412]	; (800a0ac <main+0x30c>)
 8009f10:	f44f 7700 	mov.w	r7, #512	; 0x200
 8009f14:	e9c0 3400 	strd	r3, r4, [r0]
 8009f18:	2380      	movs	r3, #128	; 0x80
 8009f1a:	e9c0 3702 	strd	r3, r7, [r0, #8]
 8009f1e:	f44f 6380 	mov.w	r3, #1024	; 0x400
 8009f22:	e9c0 3404 	strd	r3, r4, [r0, #16]
 8009f26:	2603      	movs	r6, #3
 8009f28:	f44f 3300 	mov.w	r3, #131072	; 0x20000
 8009f2c:	e9c0 4406 	strd	r4, r4, [r0, #24]
 8009f30:	e9c0 640a 	strd	r6, r4, [r0, #40]	; 0x28
 8009f34:	e9c0 3908 	strd	r3, r9, [r0, #32]
 8009f38:	f001 ff9c 	bl	800be74 <HAL_DMA_Init>
 8009f3c:	4604      	mov	r4, r0
 8009f3e:	b108      	cbz	r0, 8009f44 <main+0x1a4>
 8009f40:	b672      	cpsid	i
 8009f42:	e7fe      	b.n	8009f42 <main+0x1a2>
 8009f44:	4602      	mov	r2, r0
 8009f46:	4629      	mov	r1, r5
 8009f48:	200b      	movs	r0, #11
 8009f4a:	f001 ff13 	bl	800bd74 <HAL_NVIC_SetPriority>
 8009f4e:	200b      	movs	r0, #11
 8009f50:	f001 ff42 	bl	800bdd8 <HAL_NVIC_EnableIRQ>
 8009f54:	4622      	mov	r2, r4
 8009f56:	4629      	mov	r1, r5
 8009f58:	200c      	movs	r0, #12
 8009f5a:	f001 ff0b 	bl	800bd74 <HAL_NVIC_SetPriority>
 8009f5e:	200c      	movs	r0, #12
 8009f60:	f001 ff3a 	bl	800bdd8 <HAL_NVIC_EnableIRQ>
 8009f64:	4622      	mov	r2, r4
 8009f66:	2105      	movs	r1, #5
 8009f68:	200f      	movs	r0, #15
 8009f6a:	f001 ff03 	bl	800bd74 <HAL_NVIC_SetPriority>
 8009f6e:	200f      	movs	r0, #15
 8009f70:	f001 ff32 	bl	800bdd8 <HAL_NVIC_EnableIRQ>
 8009f74:	4631      	mov	r1, r6
 8009f76:	4622      	mov	r2, r4
 8009f78:	2011      	movs	r0, #17
 8009f7a:	f001 fefb 	bl	800bd74 <HAL_NVIC_SetPriority>
 8009f7e:	2011      	movs	r0, #17
 8009f80:	f001 ff2a 	bl	800bdd8 <HAL_NVIC_EnableIRQ>
 8009f84:	4649      	mov	r1, r9
 8009f86:	4622      	mov	r2, r4
 8009f88:	2038      	movs	r0, #56	; 0x38
 8009f8a:	f001 fef3 	bl	800bd74 <HAL_NVIC_SetPriority>
 8009f8e:	2038      	movs	r0, #56	; 0x38
 8009f90:	f001 ff22 	bl	800bdd8 <HAL_NVIC_EnableIRQ>
 8009f94:	4631      	mov	r1, r6
 8009f96:	4622      	mov	r2, r4
 8009f98:	203a      	movs	r0, #58	; 0x3a
 8009f9a:	f001 feeb 	bl	800bd74 <HAL_NVIC_SetPriority>
 8009f9e:	203a      	movs	r0, #58	; 0x3a
 8009fa0:	f001 ff1a 	bl	800bdd8 <HAL_NVIC_EnableIRQ>
 8009fa4:	4631      	mov	r1, r6
 8009fa6:	4622      	mov	r2, r4
 8009fa8:	2046      	movs	r0, #70	; 0x46
 8009faa:	f001 fee3 	bl	800bd74 <HAL_NVIC_SetPriority>
 8009fae:	f04f 0910 	mov.w	r9, #16
 8009fb2:	2046      	movs	r0, #70	; 0x46
 8009fb4:	f001 ff10 	bl	800bdd8 <HAL_NVIC_EnableIRQ>
 8009fb8:	464a      	mov	r2, r9
 8009fba:	4621      	mov	r1, r4
 8009fbc:	a81a      	add	r0, sp, #104	; 0x68
 8009fbe:	f004 ff51 	bl	800ee64 <memset>
 8009fc2:	4e3b      	ldr	r6, [pc, #236]	; (800a0b0 <main+0x310>)
 8009fc4:	4a3b      	ldr	r2, [pc, #236]	; (800a0b4 <main+0x314>)
 8009fc6:	60b4      	str	r4, [r6, #8]
 8009fc8:	f44f 3380 	mov.w	r3, #65536	; 0x10000
 8009fcc:	e9c6 2300 	strd	r2, r3, [r6]
 8009fd0:	4630      	mov	r0, r6
 8009fd2:	4b39      	ldr	r3, [pc, #228]	; (800a0b8 <main+0x318>)
 8009fd4:	6134      	str	r4, [r6, #16]
 8009fd6:	7634      	strb	r4, [r6, #24]
 8009fd8:	f886 4020 	strb.w	r4, [r6, #32]
 8009fdc:	62f4      	str	r4, [r6, #44]	; 0x2c
 8009fde:	62b3      	str	r3, [r6, #40]	; 0x28
 8009fe0:	60f4      	str	r4, [r6, #12]
 8009fe2:	61f5      	str	r5, [r6, #28]
 8009fe4:	f886 4030 	strb.w	r4, [r6, #48]	; 0x30
 8009fe8:	6175      	str	r5, [r6, #20]
 8009fea:	f001 fc5f 	bl	800b8ac <HAL_ADC_Init>
 8009fee:	b108      	cbz	r0, 8009ff4 <main+0x254>
 8009ff0:	b672      	cpsid	i
 8009ff2:	e7fe      	b.n	8009ff2 <main+0x252>
 8009ff4:	901c      	str	r0, [sp, #112]	; 0x70
 8009ff6:	a91a      	add	r1, sp, #104	; 0x68
 8009ff8:	4630      	mov	r0, r6
 8009ffa:	e9cd 551a 	strd	r5, r5, [sp, #104]	; 0x68
 8009ffe:	f001 fe09 	bl	800bc14 <HAL_ADC_ConfigChannel>
 800a002:	4682      	mov	sl, r0
 800a004:	b108      	cbz	r0, 800a00a <main+0x26a>
 800a006:	b672      	cpsid	i
 800a008:	e7fe      	b.n	800a008 <main+0x268>
 800a00a:	4c2c      	ldr	r4, [pc, #176]	; (800a0bc <main+0x31c>)
 800a00c:	f8df b0b4 	ldr.w	fp, [pc, #180]	; 800a0c4 <main+0x324>
 800a010:	4601      	mov	r1, r0
 800a012:	464a      	mov	r2, r9
 800a014:	a81a      	add	r0, sp, #104	; 0x68
 800a016:	f004 ff25 	bl	800ee64 <memset>
 800a01a:	f242 730f 	movw	r3, #9999	; 0x270f
 800a01e:	e9c4 b300 	strd	fp, r3, [r4]
 800a022:	4620      	mov	r0, r4
 800a024:	2363      	movs	r3, #99	; 0x63
 800a026:	e9cd aa18 	strd	sl, sl, [sp, #96]	; 0x60
 800a02a:	e9c4 3a03 	strd	r3, sl, [r4, #12]
 800a02e:	f8c4 a008 	str.w	sl, [r4, #8]
 800a032:	f8c4 a018 	str.w	sl, [r4, #24]
 800a036:	f004 fa95 	bl	800e564 <HAL_TIM_Base_Init>
 800a03a:	b108      	cbz	r0, 800a040 <main+0x2a0>
 800a03c:	b672      	cpsid	i
 800a03e:	e7fe      	b.n	800a03e <main+0x29e>
 800a040:	a91a      	add	r1, sp, #104	; 0x68
 800a042:	4620      	mov	r0, r4
 800a044:	f8cd 8068 	str.w	r8, [sp, #104]	; 0x68
 800a048:	f004 fac2 	bl	800e5d0 <HAL_TIM_ConfigClockSource>
 800a04c:	b108      	cbz	r0, 800a052 <main+0x2b2>
 800a04e:	b672      	cpsid	i
 800a050:	e7fe      	b.n	800a050 <main+0x2b0>
 800a052:	e9cd 0018 	strd	r0, r0, [sp, #96]	; 0x60
 800a056:	a918      	add	r1, sp, #96	; 0x60
 800a058:	4620      	mov	r0, r4
 800a05a:	f004 fb55 	bl	800e708 <HAL_TIMEx_MasterConfigSynchronization>
 800a05e:	4603      	mov	r3, r0
 800a060:	b108      	cbz	r0, 800a066 <main+0x2c6>
 800a062:	b672      	cpsid	i
 800a064:	e7fe      	b.n	800a064 <main+0x2c4>
 800a066:	4816      	ldr	r0, [pc, #88]	; (800a0c0 <main+0x320>)
 800a068:	f8df e05c 	ldr.w	lr, [pc, #92]	; 800a0c8 <main+0x328>
 800a06c:	6103      	str	r3, [r0, #16]
 800a06e:	f44f 3261 	mov.w	r2, #230400	; 0x38400
 800a072:	e9c0 e200 	strd	lr, r2, [r0]
 800a076:	220c      	movs	r2, #12
 800a078:	e9c0 3302 	strd	r3, r3, [r0, #8]
 800a07c:	e9c0 2305 	strd	r2, r3, [r0, #20]
 800a080:	61c3      	str	r3, [r0, #28]
 800a082:	f004 fc05 	bl	800e890 <HAL_UART_Init>
 800a086:	4603      	mov	r3, r0
 800a088:	b300      	cbz	r0, 800a0cc <main+0x32c>
 800a08a:	b672      	cpsid	i
 800a08c:	e7fe      	b.n	800a08c <main+0x2ec>
 800a08e:	bf00      	nop
 800a090:	e000ed00 	.word	0xe000ed00
 800a094:	08008000 	.word	0x08008000
 800a098:	40023800 	.word	0x40023800
 800a09c:	40020800 	.word	0x40020800
 800a0a0:	40020400 	.word	0x40020400
 800a0a4:	40020000 	.word	0x40020000
 800a0a8:	20000f68 	.word	0x20000f68
 800a0ac:	40026410 	.word	0x40026410
 800a0b0:	20001124 	.word	0x20001124
 800a0b4:	40012000 	.word	0x40012000
 800a0b8:	0f000001 	.word	0x0f000001
 800a0bc:	2000107c 	.word	0x2000107c
 800a0c0:	2000122c 	.word	0x2000122c
 800a0c4:	40000400 	.word	0x40000400
 800a0c8:	40011000 	.word	0x40011000
 800a0cc:	489f      	ldr	r0, [pc, #636]	; (800a34c <main+0x5ac>)
 800a0ce:	f8df c300 	ldr.w	ip, [pc, #768]	; 800a3d0 <main+0x630>
 800a0d2:	6283      	str	r3, [r0, #40]	; 0x28
 800a0d4:	e9c0 3302 	strd	r3, r3, [r0, #8]
 800a0d8:	e9c0 3304 	strd	r3, r3, [r0, #16]
 800a0dc:	e9c0 3308 	strd	r3, r3, [r0, #32]
 800a0e0:	f44f 7282 	mov.w	r2, #260	; 0x104
 800a0e4:	230a      	movs	r3, #10
 800a0e6:	62c3      	str	r3, [r0, #44]	; 0x2c
 800a0e8:	e9c0 c200 	strd	ip, r2, [r0]
 800a0ec:	e9c0 7906 	strd	r7, r9, [r0, #24]
 800a0f0:	f003 ff7a 	bl	800dfe8 <HAL_SPI_Init>
 800a0f4:	4603      	mov	r3, r0
 800a0f6:	b108      	cbz	r0, 800a0fc <main+0x35c>
 800a0f8:	b672      	cpsid	i
 800a0fa:	e7fe      	b.n	800a0fa <main+0x35a>
 800a0fc:	4894      	ldr	r0, [pc, #592]	; (800a350 <main+0x5b0>)
 800a0fe:	4995      	ldr	r1, [pc, #596]	; (800a354 <main+0x5b4>)
 800a100:	4a95      	ldr	r2, [pc, #596]	; (800a358 <main+0x5b8>)
 800a102:	6203      	str	r3, [r0, #32]
 800a104:	e9c0 1200 	strd	r1, r2, [r0]
 800a108:	f44f 4280 	mov.w	r2, #16384	; 0x4000
 800a10c:	e9c0 3302 	strd	r3, r3, [r0, #8]
 800a110:	e9c0 2304 	strd	r2, r3, [r0, #16]
 800a114:	e9c0 3306 	strd	r3, r3, [r0, #24]
 800a118:	f002 fb5c 	bl	800c7d4 <HAL_I2C_Init>
 800a11c:	4680      	mov	r8, r0
 800a11e:	b108      	cbz	r0, 800a124 <main+0x384>
 800a120:	b672      	cpsid	i
 800a122:	e7fe      	b.n	800a122 <main+0x382>
 800a124:	4b8d      	ldr	r3, [pc, #564]	; (800a35c <main+0x5bc>)
 800a126:	498e      	ldr	r1, [pc, #568]	; (800a360 <main+0x5c0>)
 800a128:	6818      	ldr	r0, [r3, #0]
 800a12a:	462a      	mov	r2, r5
 800a12c:	f004 fe45 	bl	800edba <HAL_UART_Receive_IT>
 800a130:	4620      	mov	r0, r4
 800a132:	f004 f8f1 	bl	800e318 <HAL_TIM_Base_Start_IT>
 800a136:	4c8b      	ldr	r4, [pc, #556]	; (800a364 <main+0x5c4>)
 800a138:	4b8b      	ldr	r3, [pc, #556]	; (800a368 <main+0x5c8>)
 800a13a:	4630      	mov	r0, r6
 800a13c:	f883 8000 	strb.w	r8, [r3]
 800a140:	f001 fc5a 	bl	800b9f8 <HAL_ADC_Start_IT>
 800a144:	6823      	ldr	r3, [r4, #0]
 800a146:	9300      	str	r3, [sp, #0]
 800a148:	4b88      	ldr	r3, [pc, #544]	; (800a36c <main+0x5cc>)
 800a14a:	4a89      	ldr	r2, [pc, #548]	; (800a370 <main+0x5d0>)
 800a14c:	681b      	ldr	r3, [r3, #0]
 800a14e:	4629      	mov	r1, r5
 800a150:	4640      	mov	r0, r8
 800a152:	f7ff fd23 	bl	8009b9c <Report>
 800a156:	4b87      	ldr	r3, [pc, #540]	; (800a374 <main+0x5d4>)
 800a158:	4a87      	ldr	r2, [pc, #540]	; (800a378 <main+0x5d8>)
 800a15a:	6818      	ldr	r0, [r3, #0]
 800a15c:	4641      	mov	r1, r8
 800a15e:	f002 f857 	bl	800c210 <HAL_DMA_RegisterCallback>
 800a162:	4986      	ldr	r1, [pc, #536]	; (800a37c <main+0x5dc>)
 800a164:	4683      	mov	fp, r0
 800a166:	4886      	ldr	r0, [pc, #536]	; (800a380 <main+0x5e0>)
 800a168:	f005 fb2a 	bl	800f7c0 <strcpy>
 800a16c:	f1bb 0f00 	cmp.w	fp, #0
 800a170:	d163      	bne.n	800a23a <main+0x49a>
 800a172:	4984      	ldr	r1, [pc, #528]	; (800a384 <main+0x5e4>)
 800a174:	4882      	ldr	r0, [pc, #520]	; (800a380 <main+0x5e0>)
 800a176:	f005 fb07 	bl	800f788 <strcat>
 800a17a:	6823      	ldr	r3, [r4, #0]
 800a17c:	4a82      	ldr	r2, [pc, #520]	; (800a388 <main+0x5e8>)
 800a17e:	9300      	str	r3, [sp, #0]
 800a180:	2101      	movs	r1, #1
 800a182:	4b7f      	ldr	r3, [pc, #508]	; (800a380 <main+0x5e0>)
 800a184:	2000      	movs	r0, #0
 800a186:	f7ff fd09 	bl	8009b9c <Report>
 800a18a:	4b80      	ldr	r3, [pc, #512]	; (800a38c <main+0x5ec>)
 800a18c:	21f0      	movs	r1, #240	; 0xf0
 800a18e:	681b      	ldr	r3, [r3, #0]
 800a190:	930d      	str	r3, [sp, #52]	; 0x34
 800a192:	4608      	mov	r0, r1
 800a194:	f7fe ff6a 	bl	800906c <dispcolor_Init>
 800a198:	f7ff f9b2 	bl	8009500 <GC9A01A_GetWidth>
 800a19c:	2130      	movs	r1, #48	; 0x30
 800a19e:	900e      	str	r0, [sp, #56]	; 0x38
 800a1a0:	2001      	movs	r0, #1
 800a1a2:	f7ff f863 	bl	800926c <font_GetFontStruct>
 800a1a6:	f7ff f86b 	bl	8009280 <font_GetCharHeight>
 800a1aa:	2130      	movs	r1, #48	; 0x30
 800a1ac:	9010      	str	r0, [sp, #64]	; 0x40
 800a1ae:	2003      	movs	r0, #3
 800a1b0:	f7ff f85c 	bl	800926c <font_GetFontStruct>
 800a1b4:	f7ff f864 	bl	8009280 <font_GetCharHeight>
 800a1b8:	900f      	str	r0, [sp, #60]	; 0x3c
 800a1ba:	f000 fe79 	bl	800aeb0 <MQ135_getRZero>
 800a1be:	6823      	ldr	r3, [r4, #0]
 800a1c0:	9302      	str	r3, [sp, #8]
 800a1c2:	ee10 0a10 	vmov	r0, s0
 800a1c6:	f7fe f9c7 	bl	8008558 <__aeabi_f2d>
 800a1ca:	4a71      	ldr	r2, [pc, #452]	; (800a390 <main+0x5f0>)
 800a1cc:	e9cd 0100 	strd	r0, r1, [sp]
 800a1d0:	2101      	movs	r1, #1
 800a1d2:	4870      	ldr	r0, [pc, #448]	; (800a394 <main+0x5f4>)
 800a1d4:	f7ff fce2 	bl	8009b9c <Report>
 800a1d8:	f000 fe12 	bl	800ae00 <MQ135_getPPM>
 800a1dc:	4b6e      	ldr	r3, [pc, #440]	; (800a398 <main+0x5f8>)
 800a1de:	681c      	ldr	r4, [r3, #0]
 800a1e0:	9b0e      	ldr	r3, [sp, #56]	; 0x38
 800a1e2:	085b      	lsrs	r3, r3, #1
 800a1e4:	3b01      	subs	r3, #1
 800a1e6:	b21b      	sxth	r3, r3
 800a1e8:	f04f 0a00 	mov.w	sl, #0
 800a1ec:	ee08 3a90 	vmov	s17, r3
 800a1f0:	eeb0 8a40 	vmov.f32	s16, s0
 800a1f4:	3405      	adds	r4, #5
 800a1f6:	2511      	movs	r5, #17
 800a1f8:	f8cd a030 	str.w	sl, [sp, #48]	; 0x30
 800a1fc:	4b67      	ldr	r3, [pc, #412]	; (800a39c <main+0x5fc>)
 800a1fe:	4e68      	ldr	r6, [pc, #416]	; (800a3a0 <main+0x600>)
 800a200:	781b      	ldrb	r3, [r3, #0]
 800a202:	930b      	str	r3, [sp, #44]	; 0x2c
 800a204:	b1db      	cbz	r3, 800a23e <main+0x49e>
 800a206:	4b57      	ldr	r3, [pc, #348]	; (800a364 <main+0x5c4>)
 800a208:	4a66      	ldr	r2, [pc, #408]	; (800a3a4 <main+0x604>)
 800a20a:	681b      	ldr	r3, [r3, #0]
 800a20c:	9300      	str	r3, [sp, #0]
 800a20e:	7833      	ldrb	r3, [r6, #0]
 800a210:	2101      	movs	r1, #1
 800a212:	2000      	movs	r0, #0
 800a214:	f7ff fcc2 	bl	8009b9c <Report>
 800a218:	f44f 707a 	mov.w	r0, #1000	; 0x3e8
 800a21c:	f001 fb32 	bl	800b884 <HAL_Delay>
 800a220:	f3bf 8f4f 	dsb	sy
 800a224:	4960      	ldr	r1, [pc, #384]	; (800a3a8 <main+0x608>)
 800a226:	4b61      	ldr	r3, [pc, #388]	; (800a3ac <main+0x60c>)
 800a228:	68ca      	ldr	r2, [r1, #12]
 800a22a:	f402 62e0 	and.w	r2, r2, #1792	; 0x700
 800a22e:	4313      	orrs	r3, r2
 800a230:	60cb      	str	r3, [r1, #12]
 800a232:	f3bf 8f4f 	dsb	sy
 800a236:	bf00      	nop
 800a238:	e7fd      	b.n	800a236 <main+0x496>
 800a23a:	495d      	ldr	r1, [pc, #372]	; (800a3b0 <main+0x610>)
 800a23c:	e79a      	b.n	800a174 <main+0x3d4>
 800a23e:	b154      	cbz	r4, 800a256 <main+0x4b6>
 800a240:	4b55      	ldr	r3, [pc, #340]	; (800a398 <main+0x5f8>)
 800a242:	681b      	ldr	r3, [r3, #0]
 800a244:	429c      	cmp	r4, r3
 800a246:	d806      	bhi.n	800a256 <main+0x4b6>
 800a248:	4b5a      	ldr	r3, [pc, #360]	; (800a3b4 <main+0x614>)
 800a24a:	2201      	movs	r2, #1
 800a24c:	4628      	mov	r0, r5
 800a24e:	701a      	strb	r2, [r3, #0]
 800a250:	f7ff fcfc 	bl	8009c4c <putEvt>
 800a254:	9c0b      	ldr	r4, [sp, #44]	; 0x2c
 800a256:	f7ff fd6b 	bl	8009d30 <getEvt>
 800a25a:	4b57      	ldr	r3, [pc, #348]	; (800a3b8 <main+0x618>)
 800a25c:	7018      	strb	r0, [r3, #0]
 800a25e:	4b57      	ldr	r3, [pc, #348]	; (800a3bc <main+0x61c>)
 800a260:	781f      	ldrb	r7, [r3, #0]
 800a262:	7037      	strb	r7, [r6, #0]
 800a264:	1e43      	subs	r3, r0, #1
 800a266:	4681      	mov	r9, r0
 800a268:	2b14      	cmp	r3, #20
 800a26a:	d81f      	bhi.n	800a2ac <main+0x50c>
 800a26c:	e8df f013 	tbh	[pc, r3, lsl #1]
 800a270:	014e014a 	.word	0x014e014a
 800a274:	01c801b0 	.word	0x01c801b0
 800a278:	025f01ac 	.word	0x025f01ac
 800a27c:	027d02c5 	.word	0x027d02c5
 800a280:	01e6024a 	.word	0x01e6024a
 800a284:	001e01f3 	.word	0x001e01f3
 800a288:	001e001e 	.word	0x001e001e
 800a28c:	001e001e 	.word	0x001e001e
 800a290:	004f0041 	.word	0x004f0041
 800a294:	00b2005d 	.word	0x00b2005d
 800a298:	0015      	.short	0x0015
 800a29a:	4b32      	ldr	r3, [pc, #200]	; (800a364 <main+0x5c4>)
 800a29c:	4a48      	ldr	r2, [pc, #288]	; (800a3c0 <main+0x620>)
 800a29e:	681b      	ldr	r3, [r3, #0]
 800a2a0:	9300      	str	r3, [sp, #0]
 800a2a2:	2101      	movs	r1, #1
 800a2a4:	463b      	mov	r3, r7
 800a2a6:	2000      	movs	r0, #0
 800a2a8:	f7ff fc78 	bl	8009b9c <Report>
 800a2ac:	4e37      	ldr	r6, [pc, #220]	; (800a38c <main+0x5ec>)
 800a2ae:	6830      	ldr	r0, [r6, #0]
 800a2b0:	3800      	subs	r0, #0
 800a2b2:	bf18      	it	ne
 800a2b4:	2001      	movne	r0, #1
 800a2b6:	f7ff fc39 	bl	8009b2c <errLedOn>
 800a2ba:	6836      	ldr	r6, [r6, #0]
 800a2bc:	b1ae      	cbz	r6, 800a2ea <main+0x54a>
 800a2be:	9b0d      	ldr	r3, [sp, #52]	; 0x34
 800a2c0:	429e      	cmp	r6, r3
 800a2c2:	d012      	beq.n	800a2ea <main+0x54a>
 800a2c4:	2e10      	cmp	r6, #16
 800a2c6:	bf98      	it	ls
 800a2c8:	4a3e      	ldrls	r2, [pc, #248]	; (800a3c4 <main+0x624>)
 800a2ca:	4926      	ldr	r1, [pc, #152]	; (800a364 <main+0x5c4>)
 800a2cc:	bf94      	ite	ls
 800a2ce:	f852 2026 	ldrls.w	r2, [r2, r6, lsl #2]
 800a2d2:	4a3d      	ldrhi	r2, [pc, #244]	; (800a3c8 <main+0x628>)
 800a2d4:	6809      	ldr	r1, [r1, #0]
 800a2d6:	4b32      	ldr	r3, [pc, #200]	; (800a3a0 <main+0x600>)
 800a2d8:	2000      	movs	r0, #0
 800a2da:	781b      	ldrb	r3, [r3, #0]
 800a2dc:	e9cd 2100 	strd	r2, r1, [sp]
 800a2e0:	4a3a      	ldr	r2, [pc, #232]	; (800a3cc <main+0x62c>)
 800a2e2:	2101      	movs	r1, #1
 800a2e4:	f7ff fc5a 	bl	8009b9c <Report>
 800a2e8:	960d      	str	r6, [sp, #52]	; 0x34
 800a2ea:	2001      	movs	r0, #1
 800a2ec:	f001 faca 	bl	800b884 <HAL_Delay>
 800a2f0:	e784      	b.n	800a1fc <main+0x45c>
 800a2f2:	f000 fe55 	bl	800afa0 <si7021_reset>
 800a2f6:	4b25      	ldr	r3, [pc, #148]	; (800a38c <main+0x5ec>)
 800a2f8:	681b      	ldr	r3, [r3, #0]
 800a2fa:	f013 0f0f 	tst.w	r3, #15
 800a2fe:	4b26      	ldr	r3, [pc, #152]	; (800a398 <main+0x5f8>)
 800a300:	681c      	ldr	r4, [r3, #0]
 800a302:	bf19      	ittee	ne
 800a304:	464d      	movne	r5, r9
 800a306:	347d      	addne	r4, #125	; 0x7d
 800a308:	3405      	addeq	r4, #5
 800a30a:	2512      	moveq	r5, #18
 800a30c:	e7ce      	b.n	800a2ac <main+0x50c>
 800a30e:	f000 ff23 	bl	800b158 <si7021_read_temp>
 800a312:	4b1e      	ldr	r3, [pc, #120]	; (800a38c <main+0x5ec>)
 800a314:	681b      	ldr	r3, [r3, #0]
 800a316:	f013 0f0f 	tst.w	r3, #15
 800a31a:	4b1f      	ldr	r3, [pc, #124]	; (800a398 <main+0x5f8>)
 800a31c:	681c      	ldr	r4, [r3, #0]
 800a31e:	bf19      	ittee	ne
 800a320:	2511      	movne	r5, #17
 800a322:	347d      	addne	r4, #125	; 0x7d
 800a324:	3405      	addeq	r4, #5
 800a326:	2513      	moveq	r5, #19
 800a328:	e7c0      	b.n	800a2ac <main+0x50c>
 800a32a:	f000 ff53 	bl	800b1d4 <si7021_read_humi>
 800a32e:	4b17      	ldr	r3, [pc, #92]	; (800a38c <main+0x5ec>)
 800a330:	681b      	ldr	r3, [r3, #0]
 800a332:	f013 0f0f 	tst.w	r3, #15
 800a336:	4b18      	ldr	r3, [pc, #96]	; (800a398 <main+0x5f8>)
 800a338:	681c      	ldr	r4, [r3, #0]
 800a33a:	f04f 0301 	mov.w	r3, #1
 800a33e:	bf19      	ittee	ne
 800a340:	347d      	addne	r4, #125	; 0x7d
 800a342:	2511      	movne	r5, #17
 800a344:	3405      	addeq	r4, #5
 800a346:	2514      	moveq	r5, #20
 800a348:	930c      	str	r3, [sp, #48]	; 0x30
 800a34a:	e7af      	b.n	800a2ac <main+0x50c>
 800a34c:	20000f10 	.word	0x20000f10
 800a350:	20001028 	.word	0x20001028
 800a354:	40005400 	.word	0x40005400
 800a358:	00061a80 	.word	0x00061a80
 800a35c:	20000044 	.word	0x20000044
 800a360:	20000afe 	.word	0x20000afe
 800a364:	20000030 	.word	0x20000030
 800a368:	20000afd 	.word	0x20000afd
 800a36c:	20000050 	.word	0x20000050
 800a370:	080168c0 	.word	0x080168c0
 800a374:	2000002c 	.word	0x2000002c
 800a378:	08009d09 	.word	0x08009d09
 800a37c:	080168e3 	.word	0x080168e3
 800a380:	200002d9 	.word	0x200002d9
 800a384:	08016913 	.word	0x08016913
 800a388:	08016aa9 	.word	0x08016aa9
 800a38c:	20000280 	.word	0x20000280
 800a390:	0801691c 	.word	0x0801691c
 800a394:	08016c4c 	.word	0x08016c4c
 800a398:	200002cc 	.word	0x200002cc
 800a39c:	200002d4 	.word	0x200002d4
 800a3a0:	2000027b 	.word	0x2000027b
 800a3a4:	08016b44 	.word	0x08016b44
 800a3a8:	e000ed00 	.word	0xe000ed00
 800a3ac:	05fa0004 	.word	0x05fa0004
 800a3b0:	08016916 	.word	0x08016916
 800a3b4:	20000279 	.word	0x20000279
 800a3b8:	20000034 	.word	0x20000034
 800a3bc:	2000027c 	.word	0x2000027c
 800a3c0:	0801694e 	.word	0x0801694e
 800a3c4:	08016c08 	.word	0x08016c08
 800a3c8:	080168bc 	.word	0x080168bc
 800a3cc:	08016b30 	.word	0x08016b30
 800a3d0:	40003800 	.word	0x40003800
 800a3d4:	4bab      	ldr	r3, [pc, #684]	; (800a684 <main+0x8e4>)
 800a3d6:	681b      	ldr	r3, [r3, #0]
 800a3d8:	2b07      	cmp	r3, #7
 800a3da:	bf8c      	ite	hi
 800a3dc:	f10a 0a01 	addhi.w	sl, sl, #1
 800a3e0:	f04f 0a01 	movls.w	sl, #1
 800a3e4:	4553      	cmp	r3, sl
 800a3e6:	d81e      	bhi.n	800a426 <main+0x686>
 800a3e8:	eefd 7ac8 	vcvt.s32.f32	s15, s16
 800a3ec:	4ca6      	ldr	r4, [pc, #664]	; (800a688 <main+0x8e8>)
 800a3ee:	edcd 7a04 	vstr	s15, [sp, #16]
 800a3f2:	6820      	ldr	r0, [r4, #0]
 800a3f4:	f7fe f8b0 	bl	8008558 <__aeabi_f2d>
 800a3f8:	e9cd 0102 	strd	r0, r1, [sp, #8]
 800a3fc:	6860      	ldr	r0, [r4, #4]
 800a3fe:	f7fe f8ab 	bl	8008558 <__aeabi_f2d>
 800a402:	463a      	mov	r2, r7
 800a404:	e9cd 0100 	strd	r0, r1, [sp]
 800a408:	49a0      	ldr	r1, [pc, #640]	; (800a68c <main+0x8ec>)
 800a40a:	48a1      	ldr	r0, [pc, #644]	; (800a690 <main+0x8f0>)
 800a40c:	f005 f99c 	bl	800f748 <siprintf>
 800a410:	4ba0      	ldr	r3, [pc, #640]	; (800a694 <main+0x8f4>)
 800a412:	4aa1      	ldr	r2, [pc, #644]	; (800a698 <main+0x8f8>)
 800a414:	681b      	ldr	r3, [r3, #0]
 800a416:	9300      	str	r3, [sp, #0]
 800a418:	2101      	movs	r1, #1
 800a41a:	4b9d      	ldr	r3, [pc, #628]	; (800a690 <main+0x8f0>)
 800a41c:	2000      	movs	r0, #0
 800a41e:	f7ff fbbd 	bl	8009b9c <Report>
 800a422:	f04f 0a00 	mov.w	sl, #0
 800a426:	f1b8 0f00 	cmp.w	r8, #0
 800a42a:	d141      	bne.n	800a4b0 <main+0x710>
 800a42c:	4e96      	ldr	r6, [pc, #600]	; (800a688 <main+0x8e8>)
 800a42e:	6830      	ldr	r0, [r6, #0]
 800a430:	ee07 0a90 	vmov	s15, r0
 800a434:	eef5 7ac0 	vcmpe.f32	s15, #0.0
 800a438:	eef1 fa10 	vmrs	APSR_nzcv, fpscr
 800a43c:	f64f 051f 	movw	r5, #63519	; 0xf81f
 800a440:	bf98      	it	ls
 800a442:	f44f 4578 	movls.w	r5, #63488	; 0xf800
 800a446:	f7fe f887 	bl	8008558 <__aeabi_f2d>
 800a44a:	4602      	mov	r2, r0
 800a44c:	460b      	mov	r3, r1
 800a44e:	a81a      	add	r0, sp, #104	; 0x68
 800a450:	4992      	ldr	r1, [pc, #584]	; (800a69c <main+0x8fc>)
 800a452:	f005 f979 	bl	800f748 <siprintf>
 800a456:	9b0f      	ldr	r3, [sp, #60]	; 0x3c
 800a458:	9500      	str	r5, [sp, #0]
 800a45a:	f103 0408 	add.w	r4, r3, #8
 800a45e:	b2e4      	uxtb	r4, r4
 800a460:	ab1a      	add	r3, sp, #104	; 0x68
 800a462:	2201      	movs	r2, #1
 800a464:	f104 0160 	add.w	r1, r4, #96	; 0x60
 800a468:	2040      	movs	r0, #64	; 0x40
 800a46a:	f7fe feb0 	bl	80091ce <dispcolor_DrawString>
 800a46e:	6870      	ldr	r0, [r6, #4]
 800a470:	f7fe f872 	bl	8008558 <__aeabi_f2d>
 800a474:	460b      	mov	r3, r1
 800a476:	21b0      	movs	r1, #176	; 0xb0
 800a478:	4602      	mov	r2, r0
 800a47a:	9100      	str	r1, [sp, #0]
 800a47c:	a81a      	add	r0, sp, #104	; 0x68
 800a47e:	4988      	ldr	r1, [pc, #544]	; (800a6a0 <main+0x900>)
 800a480:	f005 f962 	bl	800f748 <siprintf>
 800a484:	6873      	ldr	r3, [r6, #4]
 800a486:	ee07 3a90 	vmov	s15, r3
 800a48a:	eef5 7a40 	vcmp.f32	s15, #0.0
 800a48e:	f240 73ff 	movw	r3, #2047	; 0x7ff
 800a492:	eef1 fa10 	vmrs	APSR_nzcv, fpscr
 800a496:	bfc8      	it	gt
 800a498:	461d      	movgt	r5, r3
 800a49a:	9b10      	ldr	r3, [sp, #64]	; 0x40
 800a49c:	9500      	str	r5, [sp, #0]
 800a49e:	1d19      	adds	r1, r3, #4
 800a4a0:	4421      	add	r1, r4
 800a4a2:	b2c9      	uxtb	r1, r1
 800a4a4:	ab1a      	add	r3, sp, #104	; 0x68
 800a4a6:	2201      	movs	r2, #1
 800a4a8:	3160      	adds	r1, #96	; 0x60
 800a4aa:	2040      	movs	r0, #64	; 0x40
 800a4ac:	f7fe fe8f 	bl	80091ce <dispcolor_DrawString>
 800a4b0:	4b7c      	ldr	r3, [pc, #496]	; (800a6a4 <main+0x904>)
 800a4b2:	681b      	ldr	r3, [r3, #0]
 800a4b4:	f013 0f0f 	tst.w	r3, #15
 800a4b8:	4b7b      	ldr	r3, [pc, #492]	; (800a6a8 <main+0x908>)
 800a4ba:	781b      	ldrb	r3, [r3, #0]
 800a4bc:	f108 0001 	add.w	r0, r8, #1
 800a4c0:	bf14      	ite	ne
 800a4c2:	2511      	movne	r5, #17
 800a4c4:	2512      	moveq	r5, #18
 800a4c6:	f000 0801 	and.w	r8, r0, #1
 800a4ca:	b1bb      	cbz	r3, 800a4fc <main+0x75c>
 800a4cc:	4a71      	ldr	r2, [pc, #452]	; (800a694 <main+0x8f4>)
 800a4ce:	4b77      	ldr	r3, [pc, #476]	; (800a6ac <main+0x90c>)
 800a4d0:	6812      	ldr	r2, [r2, #0]
 800a4d2:	9207      	str	r2, [sp, #28]
 800a4d4:	79da      	ldrb	r2, [r3, #7]
 800a4d6:	9206      	str	r2, [sp, #24]
 800a4d8:	799a      	ldrb	r2, [r3, #6]
 800a4da:	9205      	str	r2, [sp, #20]
 800a4dc:	795a      	ldrb	r2, [r3, #5]
 800a4de:	9204      	str	r2, [sp, #16]
 800a4e0:	791a      	ldrb	r2, [r3, #4]
 800a4e2:	9203      	str	r2, [sp, #12]
 800a4e4:	78da      	ldrb	r2, [r3, #3]
 800a4e6:	9202      	str	r2, [sp, #8]
 800a4e8:	789a      	ldrb	r2, [r3, #2]
 800a4ea:	9201      	str	r2, [sp, #4]
 800a4ec:	785a      	ldrb	r2, [r3, #1]
 800a4ee:	9200      	str	r2, [sp, #0]
 800a4f0:	781b      	ldrb	r3, [r3, #0]
 800a4f2:	4a6f      	ldr	r2, [pc, #444]	; (800a6b0 <main+0x910>)
 800a4f4:	2101      	movs	r1, #1
 800a4f6:	2000      	movs	r0, #0
 800a4f8:	f7ff fb50 	bl	8009b9c <Report>
 800a4fc:	4b6d      	ldr	r3, [pc, #436]	; (800a6b4 <main+0x914>)
 800a4fe:	681c      	ldr	r4, [r3, #0]
 800a500:	347d      	adds	r4, #125	; 0x7d
 800a502:	e6d3      	b.n	800a2ac <main+0x50c>
 800a504:	4b6c      	ldr	r3, [pc, #432]	; (800a6b8 <main+0x918>)
 800a506:	2201      	movs	r2, #1
 800a508:	701a      	strb	r2, [r3, #0]
 800a50a:	e6cf      	b.n	800a2ac <main+0x50c>
 800a50c:	4b6b      	ldr	r3, [pc, #428]	; (800a6bc <main+0x91c>)
 800a50e:	881a      	ldrh	r2, [r3, #0]
 800a510:	4b6b      	ldr	r3, [pc, #428]	; (800a6c0 <main+0x920>)
 800a512:	8819      	ldrh	r1, [r3, #0]
 800a514:	4291      	cmp	r1, r2
 800a516:	d031      	beq.n	800a57c <main+0x7dc>
 800a518:	801a      	strh	r2, [r3, #0]
 800a51a:	9b0c      	ldr	r3, [sp, #48]	; 0x30
 800a51c:	b373      	cbz	r3, 800a57c <main+0x7dc>
 800a51e:	4e5a      	ldr	r6, [pc, #360]	; (800a688 <main+0x8e8>)
 800a520:	6833      	ldr	r3, [r6, #0]
 800a522:	ee00 3a90 	vmov	s1, r3
 800a526:	6873      	ldr	r3, [r6, #4]
 800a528:	ee00 3a10 	vmov	s0, r3
 800a52c:	f000 fcd8 	bl	800aee0 <MQ135_getCorrectedRZero>
 800a530:	6833      	ldr	r3, [r6, #0]
 800a532:	ee00 3a90 	vmov	s1, r3
 800a536:	6873      	ldr	r3, [r6, #4]
 800a538:	ee00 3a10 	vmov	s0, r3
 800a53c:	f000 fc8c 	bl	800ae58 <MQ135_getCorrectedPPM>
 800a540:	eddf 7a60 	vldr	s15, [pc, #384]	; 800a6c4 <main+0x924>
 800a544:	eec0 7a27 	vdiv.f32	s15, s0, s15
 800a548:	eeb0 8a40 	vmov.f32	s16, s0
 800a54c:	ee17 0a90 	vmov	r0, s15
 800a550:	f7fe f802 	bl	8008558 <__aeabi_f2d>
 800a554:	4602      	mov	r2, r0
 800a556:	460b      	mov	r3, r1
 800a558:	a81a      	add	r0, sp, #104	; 0x68
 800a55a:	495b      	ldr	r1, [pc, #364]	; (800a6c8 <main+0x928>)
 800a55c:	f005 f8f4 	bl	800f748 <siprintf>
 800a560:	eeb0 0a48 	vmov.f32	s0, s16
 800a564:	f000 fcd4 	bl	800af10 <ppmColor>
 800a568:	9b0f      	ldr	r3, [sp, #60]	; 0x3c
 800a56a:	9000      	str	r0, [sp, #0]
 800a56c:	f1c3 0160 	rsb	r1, r3, #96	; 0x60
 800a570:	2202      	movs	r2, #2
 800a572:	ab1a      	add	r3, sp, #104	; 0x68
 800a574:	b209      	sxth	r1, r1
 800a576:	2038      	movs	r0, #56	; 0x38
 800a578:	f7fe fe29 	bl	80091ce <dispcolor_DrawString>
 800a57c:	4844      	ldr	r0, [pc, #272]	; (800a690 <main+0x8f0>)
 800a57e:	4e53      	ldr	r6, [pc, #332]	; (800a6cc <main+0x92c>)
 800a580:	f7ff faec 	bl	8009b5c <sec2str>
 800a584:	9b0e      	ldr	r3, [sp, #56]	; 0x38
 800a586:	eba3 1000 	sub.w	r0, r3, r0, lsl #4
 800a58a:	3808      	subs	r0, #8
 800a58c:	f64f 73ff 	movw	r3, #65535	; 0xffff
 800a590:	9300      	str	r3, [sp, #0]
 800a592:	2203      	movs	r2, #3
 800a594:	4b3e      	ldr	r3, [pc, #248]	; (800a690 <main+0x8f0>)
 800a596:	2160      	movs	r1, #96	; 0x60
 800a598:	b200      	sxth	r0, r0
 800a59a:	f7fe fe18 	bl	80091ce <dispcolor_DrawString>
 800a59e:	7833      	ldrb	r3, [r6, #0]
 800a5a0:	1c5a      	adds	r2, r3, #1
 800a5a2:	7032      	strb	r2, [r6, #0]
 800a5a4:	2700      	movs	r7, #0
 800a5a6:	4a4a      	ldr	r2, [pc, #296]	; (800a6d0 <main+0x930>)
 800a5a8:	9700      	str	r7, [sp, #0]
 800a5aa:	f832 3013 	ldrh.w	r3, [r2, r3, lsl #1]
 800a5ae:	ee18 1a90 	vmov	r1, s17
 800a5b2:	ee18 0a90 	vmov	r0, s17
 800a5b6:	2276      	movs	r2, #118	; 0x76
 800a5b8:	f7fe fd6c 	bl	8009094 <dispcolor_DrawCircle>
 800a5bc:	7833      	ldrb	r3, [r6, #0]
 800a5be:	2b07      	cmp	r3, #7
 800a5c0:	f67f ae74 	bls.w	800a2ac <main+0x50c>
 800a5c4:	7037      	strb	r7, [r6, #0]
 800a5c6:	e671      	b.n	800a2ac <main+0x50c>
 800a5c8:	4842      	ldr	r0, [pc, #264]	; (800a6d4 <main+0x934>)
 800a5ca:	f001 fa15 	bl	800b9f8 <HAL_ADC_Start_IT>
 800a5ce:	e66d      	b.n	800a2ac <main+0x50c>
 800a5d0:	4b30      	ldr	r3, [pc, #192]	; (800a694 <main+0x8f4>)
 800a5d2:	4841      	ldr	r0, [pc, #260]	; (800a6d8 <main+0x938>)
 800a5d4:	6819      	ldr	r1, [r3, #0]
 800a5d6:	4b39      	ldr	r3, [pc, #228]	; (800a6bc <main+0x91c>)
 800a5d8:	7800      	ldrb	r0, [r0, #0]
 800a5da:	881b      	ldrh	r3, [r3, #0]
 800a5dc:	9300      	str	r3, [sp, #0]
 800a5de:	eefd 7ac8 	vcvt.s32.f32	s15, s16
 800a5e2:	463b      	mov	r3, r7
 800a5e4:	ee17 2a90 	vmov	r2, s15
 800a5e8:	e9cd 2101 	strd	r2, r1, [sp, #4]
 800a5ec:	b128      	cbz	r0, 800a5fa <main+0x85a>
 800a5ee:	4a3b      	ldr	r2, [pc, #236]	; (800a6dc <main+0x93c>)
 800a5f0:	2101      	movs	r1, #1
 800a5f2:	2000      	movs	r0, #0
 800a5f4:	f7ff fad2 	bl	8009b9c <Report>
 800a5f8:	e658      	b.n	800a2ac <main+0x50c>
 800a5fa:	4a39      	ldr	r2, [pc, #228]	; (800a6e0 <main+0x940>)
 800a5fc:	2101      	movs	r1, #1
 800a5fe:	e7f9      	b.n	800a5f4 <main+0x854>
 800a600:	4b24      	ldr	r3, [pc, #144]	; (800a694 <main+0x8f4>)
 800a602:	4e21      	ldr	r6, [pc, #132]	; (800a688 <main+0x8e8>)
 800a604:	681b      	ldr	r3, [r3, #0]
 800a606:	9308      	str	r3, [sp, #32]
 800a608:	6830      	ldr	r0, [r6, #0]
 800a60a:	f7fd ffa5 	bl	8008558 <__aeabi_f2d>
 800a60e:	e9cd 0106 	strd	r0, r1, [sp, #24]
 800a612:	6870      	ldr	r0, [r6, #4]
 800a614:	f7fd ffa0 	bl	8008558 <__aeabi_f2d>
 800a618:	4b32      	ldr	r3, [pc, #200]	; (800a6e4 <main+0x944>)
 800a61a:	9302      	str	r3, [sp, #8]
 800a61c:	e9cd 0104 	strd	r0, r1, [sp, #16]
 800a620:	eefd 7ac8 	vcvt.s32.f32	s15, s16
 800a624:	4b25      	ldr	r3, [pc, #148]	; (800a6bc <main+0x91c>)
 800a626:	edcd 7a01 	vstr	s15, [sp, #4]
 800a62a:	881b      	ldrh	r3, [r3, #0]
 800a62c:	9300      	str	r3, [sp, #0]
 800a62e:	4a2e      	ldr	r2, [pc, #184]	; (800a6e8 <main+0x948>)
 800a630:	463b      	mov	r3, r7
 800a632:	2101      	movs	r1, #1
 800a634:	2000      	movs	r0, #0
 800a636:	f7ff fab1 	bl	8009b9c <Report>
 800a63a:	e637      	b.n	800a2ac <main+0x50c>
 800a63c:	4b15      	ldr	r3, [pc, #84]	; (800a694 <main+0x8f4>)
 800a63e:	4a2b      	ldr	r2, [pc, #172]	; (800a6ec <main+0x94c>)
 800a640:	681b      	ldr	r3, [r3, #0]
 800a642:	9301      	str	r3, [sp, #4]
 800a644:	4b2a      	ldr	r3, [pc, #168]	; (800a6f0 <main+0x950>)
 800a646:	681b      	ldr	r3, [r3, #0]
 800a648:	9300      	str	r3, [sp, #0]
 800a64a:	2101      	movs	r1, #1
 800a64c:	463b      	mov	r3, r7
 800a64e:	2000      	movs	r0, #0
 800a650:	f7ff faa4 	bl	8009b9c <Report>
 800a654:	e62a      	b.n	800a2ac <main+0x50c>
 800a656:	f1bb 0f00 	cmp.w	fp, #0
 800a65a:	f47f ae27 	bne.w	800a2ac <main+0x50c>
 800a65e:	4b25      	ldr	r3, [pc, #148]	; (800a6f4 <main+0x954>)
 800a660:	4925      	ldr	r1, [pc, #148]	; (800a6f8 <main+0x958>)
 800a662:	2202      	movs	r2, #2
 800a664:	701a      	strb	r2, [r3, #0]
 800a666:	4a25      	ldr	r2, [pc, #148]	; (800a6fc <main+0x95c>)
 800a668:	2310      	movs	r3, #16
 800a66a:	4825      	ldr	r0, [pc, #148]	; (800a700 <main+0x960>)
 800a66c:	6800      	ldr	r0, [r0, #0]
 800a66e:	f001 fc81 	bl	800bf74 <HAL_DMA_Start_IT>
 800a672:	2800      	cmp	r0, #0
 800a674:	f43f ae1a 	beq.w	800a2ac <main+0x50c>
 800a678:	4a0a      	ldr	r2, [pc, #40]	; (800a6a4 <main+0x904>)
 800a67a:	6813      	ldr	r3, [r2, #0]
 800a67c:	f043 030b 	orr.w	r3, r3, #11
 800a680:	6013      	str	r3, [r2, #0]
 800a682:	e613      	b.n	800a2ac <main+0x50c>
 800a684:	2000004c 	.word	0x2000004c
 800a688:	20000ade 	.word	0x20000ade
 800a68c:	0801696b 	.word	0x0801696b
 800a690:	200002d9 	.word	0x200002d9
 800a694:	20000030 	.word	0x20000030
 800a698:	08016aa9 	.word	0x08016aa9
 800a69c:	0801698f 	.word	0x0801698f
 800a6a0:	0801699e 	.word	0x0801699e
 800a6a4:	20000280 	.word	0x20000280
 800a6a8:	20000aee 	.word	0x20000aee
 800a6ac:	20000ae6 	.word	0x20000ae6
 800a6b0:	080169ad 	.word	0x080169ad
 800a6b4:	200002cc 	.word	0x200002cc
 800a6b8:	200002d4 	.word	0x200002d4
 800a6bc:	20000ada 	.word	0x20000ada
 800a6c0:	200002ca 	.word	0x200002ca
 800a6c4:	447a0000 	.word	0x447a0000
 800a6c8:	080169fd 	.word	0x080169fd
 800a6cc:	2000027a 	.word	0x2000027a
 800a6d0:	2000001c 	.word	0x2000001c
 800a6d4:	20001124 	.word	0x20001124
 800a6d8:	200002d1 	.word	0x200002d1
 800a6dc:	08016a0b 	.word	0x08016a0b
 800a6e0:	08016a35 	.word	0x08016a35
 800a6e4:	08016a99 	.word	0x08016a99
 800a6e8:	08016a5f 	.word	0x08016a5f
 800a6ec:	08016aa0 	.word	0x08016aa0
 800a6f0:	20000050 	.word	0x20000050
 800a6f4:	200002d2 	.word	0x200002d2
 800a6f8:	0807fff0 	.word	0x0807fff0
 800a6fc:	20000eff 	.word	0x20000eff
 800a700:	2000002c 	.word	0x2000002c
 800a704:	4b41      	ldr	r3, [pc, #260]	; (800a80c <main+0xa6c>)
 800a706:	681b      	ldr	r3, [r3, #0]
 800a708:	9305      	str	r3, [sp, #20]
 800a70a:	4b41      	ldr	r3, [pc, #260]	; (800a810 <main+0xa70>)
 800a70c:	68da      	ldr	r2, [r3, #12]
 800a70e:	9204      	str	r2, [sp, #16]
 800a710:	689a      	ldr	r2, [r3, #8]
 800a712:	9203      	str	r2, [sp, #12]
 800a714:	685a      	ldr	r2, [r3, #4]
 800a716:	9202      	str	r2, [sp, #8]
 800a718:	681b      	ldr	r3, [r3, #0]
 800a71a:	9301      	str	r3, [sp, #4]
 800a71c:	4b3d      	ldr	r3, [pc, #244]	; (800a814 <main+0xa74>)
 800a71e:	9300      	str	r3, [sp, #0]
 800a720:	4a3d      	ldr	r2, [pc, #244]	; (800a818 <main+0xa78>)
 800a722:	463b      	mov	r3, r7
 800a724:	2101      	movs	r1, #1
 800a726:	2000      	movs	r0, #0
 800a728:	f7ff fa38 	bl	8009b9c <Report>
 800a72c:	e5be      	b.n	800a2ac <main+0x50c>
 800a72e:	f1bb 0f00 	cmp.w	fp, #0
 800a732:	f47f adbb 	bne.w	800a2ac <main+0x50c>
 800a736:	4b35      	ldr	r3, [pc, #212]	; (800a80c <main+0xa6c>)
 800a738:	4f38      	ldr	r7, [pc, #224]	; (800a81c <main+0xa7c>)
 800a73a:	681b      	ldr	r3, [r3, #0]
 800a73c:	9301      	str	r3, [sp, #4]
 800a73e:	883b      	ldrh	r3, [r7, #0]
 800a740:	4e37      	ldr	r6, [pc, #220]	; (800a820 <main+0xa80>)
 800a742:	9300      	str	r3, [sp, #0]
 800a744:	6833      	ldr	r3, [r6, #0]
 800a746:	4a37      	ldr	r2, [pc, #220]	; (800a824 <main+0xa84>)
 800a748:	2101      	movs	r1, #1
 800a74a:	4658      	mov	r0, fp
 800a74c:	f7ff fa26 	bl	8009b9c <Report>
 800a750:	4b35      	ldr	r3, [pc, #212]	; (800a828 <main+0xa88>)
 800a752:	4836      	ldr	r0, [pc, #216]	; (800a82c <main+0xa8c>)
 800a754:	2201      	movs	r2, #1
 800a756:	701a      	strb	r2, [r3, #0]
 800a758:	4659      	mov	r1, fp
 800a75a:	f44f 7280 	mov.w	r2, #256	; 0x100
 800a75e:	f004 fb81 	bl	800ee64 <memset>
 800a762:	883b      	ldrh	r3, [r7, #0]
 800a764:	4a31      	ldr	r2, [pc, #196]	; (800a82c <main+0xa8c>)
 800a766:	6831      	ldr	r1, [r6, #0]
 800a768:	e77f      	b.n	800a66a <main+0x8ca>
 800a76a:	4b2d      	ldr	r3, [pc, #180]	; (800a820 <main+0xa80>)
 800a76c:	f8d3 9000 	ldr.w	r9, [r3]
 800a770:	2600      	movs	r6, #0
 800a772:	4b2a      	ldr	r3, [pc, #168]	; (800a81c <main+0xa7c>)
 800a774:	881b      	ldrh	r3, [r3, #0]
 800a776:	42b3      	cmp	r3, r6
 800a778:	f67f ad98 	bls.w	800a2ac <main+0x50c>
 800a77c:	4f2c      	ldr	r7, [pc, #176]	; (800a830 <main+0xa90>)
 800a77e:	2300      	movs	r3, #0
 800a780:	703b      	strb	r3, [r7, #0]
 800a782:	482b      	ldr	r0, [pc, #172]	; (800a830 <main+0xa90>)
 800a784:	f7fd fd2c 	bl	80081e0 <strlen>
 800a788:	492a      	ldr	r1, [pc, #168]	; (800a834 <main+0xa94>)
 800a78a:	464a      	mov	r2, r9
 800a78c:	4438      	add	r0, r7
 800a78e:	f004 ffdb 	bl	800f748 <siprintf>
 800a792:	4633      	mov	r3, r6
 800a794:	4a21      	ldr	r2, [pc, #132]	; (800a81c <main+0xa7c>)
 800a796:	9311      	str	r3, [sp, #68]	; 0x44
 800a798:	8812      	ldrh	r2, [r2, #0]
 800a79a:	429a      	cmp	r2, r3
 800a79c:	d92a      	bls.n	800a7f4 <main+0xa54>
 800a79e:	4824      	ldr	r0, [pc, #144]	; (800a830 <main+0xa90>)
 800a7a0:	f7fd fd1e 	bl	80081e0 <strlen>
 800a7a4:	9b11      	ldr	r3, [sp, #68]	; 0x44
 800a7a6:	4a21      	ldr	r2, [pc, #132]	; (800a82c <main+0xa8c>)
 800a7a8:	4923      	ldr	r1, [pc, #140]	; (800a838 <main+0xa98>)
 800a7aa:	5cd2      	ldrb	r2, [r2, r3]
 800a7ac:	4438      	add	r0, r7
 800a7ae:	f004 ffcb 	bl	800f748 <siprintf>
 800a7b2:	9b11      	ldr	r3, [sp, #68]	; 0x44
 800a7b4:	f106 0220 	add.w	r2, r6, #32
 800a7b8:	3301      	adds	r3, #1
 800a7ba:	429a      	cmp	r2, r3
 800a7bc:	d1ea      	bne.n	800a794 <main+0x9f4>
 800a7be:	491f      	ldr	r1, [pc, #124]	; (800a83c <main+0xa9c>)
 800a7c0:	4638      	mov	r0, r7
 800a7c2:	f004 ffe1 	bl	800f788 <strcat>
 800a7c6:	4b15      	ldr	r3, [pc, #84]	; (800a81c <main+0xa7c>)
 800a7c8:	881a      	ldrh	r2, [r3, #0]
 800a7ca:	3620      	adds	r6, #32
 800a7cc:	fbb6 f3f2 	udiv	r3, r6, r2
 800a7d0:	fb02 6313 	mls	r3, r2, r3, r6
 800a7d4:	f109 0920 	add.w	r9, r9, #32
 800a7d8:	b113      	cbz	r3, 800a7e0 <main+0xa40>
 800a7da:	9b0b      	ldr	r3, [sp, #44]	; 0x2c
 800a7dc:	2b00      	cmp	r3, #0
 800a7de:	d0d0      	beq.n	800a782 <main+0x9e2>
 800a7e0:	4b0a      	ldr	r3, [pc, #40]	; (800a80c <main+0xa6c>)
 800a7e2:	4a17      	ldr	r2, [pc, #92]	; (800a840 <main+0xaa0>)
 800a7e4:	681b      	ldr	r3, [r3, #0]
 800a7e6:	9300      	str	r3, [sp, #0]
 800a7e8:	2100      	movs	r1, #0
 800a7ea:	4b11      	ldr	r3, [pc, #68]	; (800a830 <main+0xa90>)
 800a7ec:	4608      	mov	r0, r1
 800a7ee:	f7ff f9d5 	bl	8009b9c <Report>
 800a7f2:	e7be      	b.n	800a772 <main+0x9d2>
 800a7f4:	2301      	movs	r3, #1
 800a7f6:	930b      	str	r3, [sp, #44]	; 0x2c
 800a7f8:	e7e1      	b.n	800a7be <main+0xa1e>
 800a7fa:	4b04      	ldr	r3, [pc, #16]	; (800a80c <main+0xa6c>)
 800a7fc:	4a11      	ldr	r2, [pc, #68]	; (800a844 <main+0xaa4>)
 800a7fe:	681b      	ldr	r3, [r3, #0]
 800a800:	2101      	movs	r1, #1
 800a802:	2000      	movs	r0, #0
 800a804:	f7ff f9ca 	bl	8009b9c <Report>
 800a808:	e550      	b.n	800a2ac <main+0x50c>
 800a80a:	bf00      	nop
 800a80c:	20000030 	.word	0x20000030
 800a810:	20000eff 	.word	0x20000eff
 800a814:	0807fff0 	.word	0x0807fff0
 800a818:	08016aae 	.word	0x08016aae
 800a81c:	200002c8 	.word	0x200002c8
 800a820:	200002c4 	.word	0x200002c4
 800a824:	08016ae9 	.word	0x08016ae9
 800a828:	200002d2 	.word	0x200002d2
 800a82c:	200012d0 	.word	0x200012d0
 800a830:	200002d9 	.word	0x200002d9
 800a834:	08016b08 	.word	0x08016b08
 800a838:	08016b0e 	.word	0x08016b0e
 800a83c:	08016c03 	.word	0x08016c03
 800a840:	08016aa9 	.word	0x08016aa9
 800a844:	08016b14 	.word	0x08016b14

0800a848 <adcAddVal>:
 800a848:	b530      	push	{r4, r5, lr}
 800a84a:	4a0f      	ldr	r2, [pc, #60]	; (800a888 <adcAddVal+0x40>)
 800a84c:	4b0f      	ldr	r3, [pc, #60]	; (800a88c <adcAddVal+0x44>)
 800a84e:	7811      	ldrb	r1, [r2, #0]
 800a850:	b959      	cbnz	r1, 800a86a <adcAddVal+0x22>
 800a852:	8018      	strh	r0, [r3, #0]
 800a854:	8058      	strh	r0, [r3, #2]
 800a856:	8098      	strh	r0, [r3, #4]
 800a858:	80d8      	strh	r0, [r3, #6]
 800a85a:	8118      	strh	r0, [r3, #8]
 800a85c:	8158      	strh	r0, [r3, #10]
 800a85e:	8198      	strh	r0, [r3, #12]
 800a860:	81d8      	strh	r0, [r3, #14]
 800a862:	2308      	movs	r3, #8
 800a864:	7013      	strb	r3, [r2, #0]
 800a866:	7810      	ldrb	r0, [r2, #0]
 800a868:	bd30      	pop	{r4, r5, pc}
 800a86a:	f103 040e 	add.w	r4, r3, #14
 800a86e:	f834 5c02 	ldrh.w	r5, [r4, #-2]
 800a872:	f824 5902 	strh.w	r5, [r4], #-2
 800a876:	429c      	cmp	r4, r3
 800a878:	d1f9      	bne.n	800a86e <adcAddVal+0x26>
 800a87a:	2907      	cmp	r1, #7
 800a87c:	bf98      	it	ls
 800a87e:	3101      	addls	r1, #1
 800a880:	8020      	strh	r0, [r4, #0]
 800a882:	bf98      	it	ls
 800a884:	7011      	strbls	r1, [r2, #0]
 800a886:	e7ee      	b.n	800a866 <adcAddVal+0x1e>
 800a888:	20000278 	.word	0x20000278
 800a88c:	20000268 	.word	0x20000268

0800a890 <HAL_GPIO_EXTI_Callback>:
 800a890:	2804      	cmp	r0, #4
 800a892:	b510      	push	{r4, lr}
 800a894:	4601      	mov	r1, r0
 800a896:	d116      	bne.n	800a8c6 <HAL_GPIO_EXTI_Callback+0x36>
 800a898:	4b0b      	ldr	r3, [pc, #44]	; (800a8c8 <HAL_GPIO_EXTI_Callback+0x38>)
 800a89a:	781c      	ldrb	r4, [r3, #0]
 800a89c:	b19c      	cbz	r4, 800a8c6 <HAL_GPIO_EXTI_Callback+0x36>
 800a89e:	480b      	ldr	r0, [pc, #44]	; (800a8cc <HAL_GPIO_EXTI_Callback+0x3c>)
 800a8a0:	f001 fea4 	bl	800c5ec <HAL_GPIO_ReadPin>
 800a8a4:	b168      	cbz	r0, 800a8c2 <HAL_GPIO_EXTI_Callback+0x32>
 800a8a6:	2400      	movs	r4, #0
 800a8a8:	4622      	mov	r2, r4
 800a8aa:	4b09      	ldr	r3, [pc, #36]	; (800a8d0 <HAL_GPIO_EXTI_Callback+0x40>)
 800a8ac:	4807      	ldr	r0, [pc, #28]	; (800a8cc <HAL_GPIO_EXTI_Callback+0x3c>)
 800a8ae:	701c      	strb	r4, [r3, #0]
 800a8b0:	f44f 5180 	mov.w	r1, #4096	; 0x1000
 800a8b4:	f001 fea0 	bl	800c5f8 <HAL_GPIO_WritePin>
 800a8b8:	e8bd 4010 	ldmia.w	sp!, {r4, lr}
 800a8bc:	2003      	movs	r0, #3
 800a8be:	f7ff b9c5 	b.w	8009c4c <putEvt>
 800a8c2:	2201      	movs	r2, #1
 800a8c4:	e7f1      	b.n	800a8aa <HAL_GPIO_EXTI_Callback+0x1a>
 800a8c6:	bd10      	pop	{r4, pc}
 800a8c8:	20000279 	.word	0x20000279
 800a8cc:	40020400 	.word	0x40020400
 800a8d0:	200002d1 	.word	0x200002d1

0800a8d4 <HAL_ADC_ConvCpltCallback>:
 800a8d4:	b508      	push	{r3, lr}
 800a8d6:	6802      	ldr	r2, [r0, #0]
 800a8d8:	4b0e      	ldr	r3, [pc, #56]	; (800a914 <HAL_ADC_ConvCpltCallback+0x40>)
 800a8da:	429a      	cmp	r2, r3
 800a8dc:	d119      	bne.n	800a912 <HAL_ADC_ConvCpltCallback+0x3e>
 800a8de:	f001 f901 	bl	800bae4 <HAL_ADC_GetValue>
 800a8e2:	b280      	uxth	r0, r0
 800a8e4:	f7ff ffb0 	bl	800a848 <adcAddVal>
 800a8e8:	2808      	cmp	r0, #8
 800a8ea:	d10d      	bne.n	800a908 <HAL_ADC_ConvCpltCallback+0x34>
 800a8ec:	2300      	movs	r3, #0
 800a8ee:	490a      	ldr	r1, [pc, #40]	; (800a918 <HAL_ADC_ConvCpltCallback+0x44>)
 800a8f0:	461a      	mov	r2, r3
 800a8f2:	f831 0b02 	ldrh.w	r0, [r1], #2
 800a8f6:	3301      	adds	r3, #1
 800a8f8:	4402      	add	r2, r0
 800a8fa:	b2d8      	uxtb	r0, r3
 800a8fc:	2808      	cmp	r0, #8
 800a8fe:	b25b      	sxtb	r3, r3
 800a900:	d1f7      	bne.n	800a8f2 <HAL_ADC_ConvCpltCallback+0x1e>
 800a902:	4b06      	ldr	r3, [pc, #24]	; (800a91c <HAL_ADC_ConvCpltCallback+0x48>)
 800a904:	08d2      	lsrs	r2, r2, #3
 800a906:	801a      	strh	r2, [r3, #0]
 800a908:	e8bd 4008 	ldmia.w	sp!, {r3, lr}
 800a90c:	2005      	movs	r0, #5
 800a90e:	f7ff b99d 	b.w	8009c4c <putEvt>
 800a912:	bd08      	pop	{r3, pc}
 800a914:	40012000 	.word	0x40012000
 800a918:	20000268 	.word	0x20000268
 800a91c:	20000ada 	.word	0x20000ada

0800a920 <HAL_ADC_ErrorCallback>:
 800a920:	6802      	ldr	r2, [r0, #0]
 800a922:	4b04      	ldr	r3, [pc, #16]	; (800a934 <HAL_ADC_ErrorCallback+0x14>)
 800a924:	429a      	cmp	r2, r3
 800a926:	bf01      	itttt	eq
 800a928:	4a03      	ldreq	r2, [pc, #12]	; (800a938 <HAL_ADC_ErrorCallback+0x18>)
 800a92a:	6813      	ldreq	r3, [r2, #0]
 800a92c:	f043 0302 	orreq.w	r3, r3, #2
 800a930:	6013      	streq	r3, [r2, #0]
 800a932:	4770      	bx	lr
 800a934:	40012000 	.word	0x40012000
 800a938:	20000280 	.word	0x20000280

0800a93c <HAL_UART_RxCpltCallback>:
 800a93c:	e92d 43f7 	stmdb	sp!, {r0, r1, r2, r4, r5, r6, r7, r8, r9, lr}
 800a940:	4b93      	ldr	r3, [pc, #588]	; (800ab90 <HAL_UART_RxCpltCallback+0x254>)
 800a942:	6802      	ldr	r2, [r0, #0]
 800a944:	429a      	cmp	r2, r3
 800a946:	4606      	mov	r6, r0
 800a948:	d12a      	bne.n	800a9a0 <HAL_UART_RxCpltCallback+0x64>
 800a94a:	4f92      	ldr	r7, [pc, #584]	; (800ab94 <HAL_UART_RxCpltCallback+0x258>)
 800a94c:	4b92      	ldr	r3, [pc, #584]	; (800ab98 <HAL_UART_RxCpltCallback+0x25c>)
 800a94e:	4d93      	ldr	r5, [pc, #588]	; (800ab9c <HAL_UART_RxCpltCallback+0x260>)
 800a950:	7839      	ldrb	r1, [r7, #0]
 800a952:	781a      	ldrb	r2, [r3, #0]
 800a954:	882b      	ldrh	r3, [r5, #0]
 800a956:	b929      	cbnz	r1, 800a964 <HAL_UART_RxCpltCallback+0x28>
 800a958:	2a08      	cmp	r2, #8
 800a95a:	d024      	beq.n	800a9a6 <HAL_UART_RxCpltCallback+0x6a>
 800a95c:	4890      	ldr	r0, [pc, #576]	; (800aba0 <HAL_UART_RxCpltCallback+0x264>)
 800a95e:	f3c3 0109 	ubfx	r1, r3, #0, #10
 800a962:	5442      	strb	r2, [r0, r1]
 800a964:	2a0a      	cmp	r2, #10
 800a966:	d121      	bne.n	800a9ac <HAL_UART_RxCpltCallback+0x70>
 800a968:	4c8d      	ldr	r4, [pc, #564]	; (800aba0 <HAL_UART_RxCpltCallback+0x264>)
 800a96a:	2100      	movs	r1, #0
 800a96c:	54e1      	strb	r1, [r4, r3]
 800a96e:	46a0      	mov	r8, r4
 800a970:	b123      	cbz	r3, 800a97c <HAL_UART_RxCpltCallback+0x40>
 800a972:	3b01      	subs	r3, #1
 800a974:	5ce2      	ldrb	r2, [r4, r3]
 800a976:	2a0d      	cmp	r2, #13
 800a978:	bf08      	it	eq
 800a97a:	54e1      	strbeq	r1, [r4, r3]
 800a97c:	4b89      	ldr	r3, [pc, #548]	; (800aba4 <HAL_UART_RxCpltCallback+0x268>)
 800a97e:	6819      	ldr	r1, [r3, #0]
 800a980:	9101      	str	r1, [sp, #4]
 800a982:	4608      	mov	r0, r1
 800a984:	f7fd fc2c 	bl	80081e0 <strlen>
 800a988:	9901      	ldr	r1, [sp, #4]
 800a98a:	4602      	mov	r2, r0
 800a98c:	4884      	ldr	r0, [pc, #528]	; (800aba0 <HAL_UART_RxCpltCallback+0x264>)
 800a98e:	f004 ff1f 	bl	800f7d0 <strncmp>
 800a992:	b978      	cbnz	r0, 800a9b4 <HAL_UART_RxCpltCallback+0x78>
 800a994:	4b84      	ldr	r3, [pc, #528]	; (800aba8 <HAL_UART_RxCpltCallback+0x26c>)
 800a996:	781a      	ldrb	r2, [r3, #0]
 800a998:	2a00      	cmp	r2, #0
 800a99a:	d149      	bne.n	800aa30 <HAL_UART_RxCpltCallback+0xf4>
 800a99c:	2201      	movs	r2, #1
 800a99e:	701a      	strb	r2, [r3, #0]
 800a9a0:	b003      	add	sp, #12
 800a9a2:	e8bd 83f0 	ldmia.w	sp!, {r4, r5, r6, r7, r8, r9, pc}
 800a9a6:	b10b      	cbz	r3, 800a9ac <HAL_UART_RxCpltCallback+0x70>
 800a9a8:	3b01      	subs	r3, #1
 800a9aa:	802b      	strh	r3, [r5, #0]
 800a9ac:	882b      	ldrh	r3, [r5, #0]
 800a9ae:	3301      	adds	r3, #1
 800a9b0:	802b      	strh	r3, [r5, #0]
 800a9b2:	e044      	b.n	800aa3e <HAL_UART_RxCpltCallback+0x102>
 800a9b4:	4b7d      	ldr	r3, [pc, #500]	; (800abac <HAL_UART_RxCpltCallback+0x270>)
 800a9b6:	6819      	ldr	r1, [r3, #0]
 800a9b8:	9101      	str	r1, [sp, #4]
 800a9ba:	4608      	mov	r0, r1
 800a9bc:	f7fd fc10 	bl	80081e0 <strlen>
 800a9c0:	9901      	ldr	r1, [sp, #4]
 800a9c2:	4602      	mov	r2, r0
 800a9c4:	4876      	ldr	r0, [pc, #472]	; (800aba0 <HAL_UART_RxCpltCallback+0x264>)
 800a9c6:	f004 ff03 	bl	800f7d0 <strncmp>
 800a9ca:	b930      	cbnz	r0, 800a9da <HAL_UART_RxCpltCallback+0x9e>
 800a9cc:	4b78      	ldr	r3, [pc, #480]	; (800abb0 <HAL_UART_RxCpltCallback+0x274>)
 800a9ce:	2201      	movs	r2, #1
 800a9d0:	601a      	str	r2, [r3, #0]
 800a9d2:	2004      	movs	r0, #4
 800a9d4:	f7ff f93a 	bl	8009c4c <putEvt>
 800a9d8:	e02a      	b.n	800aa30 <HAL_UART_RxCpltCallback+0xf4>
 800a9da:	4b76      	ldr	r3, [pc, #472]	; (800abb4 <HAL_UART_RxCpltCallback+0x278>)
 800a9dc:	6819      	ldr	r1, [r3, #0]
 800a9de:	9101      	str	r1, [sp, #4]
 800a9e0:	4608      	mov	r0, r1
 800a9e2:	f7fd fbfd 	bl	80081e0 <strlen>
 800a9e6:	9901      	ldr	r1, [sp, #4]
 800a9e8:	4602      	mov	r2, r0
 800a9ea:	486d      	ldr	r0, [pc, #436]	; (800aba0 <HAL_UART_RxCpltCallback+0x264>)
 800a9ec:	f004 fef0 	bl	800f7d0 <strncmp>
 800a9f0:	b910      	cbnz	r0, 800a9f8 <HAL_UART_RxCpltCallback+0xbc>
 800a9f2:	4b6f      	ldr	r3, [pc, #444]	; (800abb0 <HAL_UART_RxCpltCallback+0x274>)
 800a9f4:	2208      	movs	r2, #8
 800a9f6:	e7eb      	b.n	800a9d0 <HAL_UART_RxCpltCallback+0x94>
 800a9f8:	4b6f      	ldr	r3, [pc, #444]	; (800abb8 <HAL_UART_RxCpltCallback+0x27c>)
 800a9fa:	6819      	ldr	r1, [r3, #0]
 800a9fc:	9101      	str	r1, [sp, #4]
 800a9fe:	4608      	mov	r0, r1
 800aa00:	f7fd fbee 	bl	80081e0 <strlen>
 800aa04:	9901      	ldr	r1, [sp, #4]
 800aa06:	4602      	mov	r2, r0
 800aa08:	4865      	ldr	r0, [pc, #404]	; (800aba0 <HAL_UART_RxCpltCallback+0x264>)
 800aa0a:	f004 fee1 	bl	800f7d0 <strncmp>
 800aa0e:	2800      	cmp	r0, #0
 800aa10:	d0df      	beq.n	800a9d2 <HAL_UART_RxCpltCallback+0x96>
 800aa12:	4b6a      	ldr	r3, [pc, #424]	; (800abbc <HAL_UART_RxCpltCallback+0x280>)
 800aa14:	6819      	ldr	r1, [r3, #0]
 800aa16:	9101      	str	r1, [sp, #4]
 800aa18:	4608      	mov	r0, r1
 800aa1a:	f7fd fbe1 	bl	80081e0 <strlen>
 800aa1e:	9901      	ldr	r1, [sp, #4]
 800aa20:	4602      	mov	r2, r0
 800aa22:	485f      	ldr	r0, [pc, #380]	; (800aba0 <HAL_UART_RxCpltCallback+0x264>)
 800aa24:	f004 fed4 	bl	800f7d0 <strncmp>
 800aa28:	b9a0      	cbnz	r0, 800aa54 <HAL_UART_RxCpltCallback+0x118>
 800aa2a:	4b65      	ldr	r3, [pc, #404]	; (800abc0 <HAL_UART_RxCpltCallback+0x284>)
 800aa2c:	2201      	movs	r2, #1
 800aa2e:	701a      	strb	r2, [r3, #0]
 800aa30:	2100      	movs	r1, #0
 800aa32:	485b      	ldr	r0, [pc, #364]	; (800aba0 <HAL_UART_RxCpltCallback+0x264>)
 800aa34:	8029      	strh	r1, [r5, #0]
 800aa36:	f44f 6280 	mov.w	r2, #1024	; 0x400
 800aa3a:	f004 fa13 	bl	800ee64 <memset>
 800aa3e:	783b      	ldrb	r3, [r7, #0]
 800aa40:	2b00      	cmp	r3, #0
 800aa42:	d1ad      	bne.n	800a9a0 <HAL_UART_RxCpltCallback+0x64>
 800aa44:	4954      	ldr	r1, [pc, #336]	; (800ab98 <HAL_UART_RxCpltCallback+0x25c>)
 800aa46:	2201      	movs	r2, #1
 800aa48:	4630      	mov	r0, r6
 800aa4a:	b003      	add	sp, #12
 800aa4c:	e8bd 43f0 	ldmia.w	sp!, {r4, r5, r6, r7, r8, r9, lr}
 800aa50:	f004 b9b3 	b.w	800edba <HAL_UART_Receive_IT>
 800aa54:	4b5b      	ldr	r3, [pc, #364]	; (800abc4 <HAL_UART_RxCpltCallback+0x288>)
 800aa56:	6819      	ldr	r1, [r3, #0]
 800aa58:	9101      	str	r1, [sp, #4]
 800aa5a:	4608      	mov	r0, r1
 800aa5c:	f7fd fbc0 	bl	80081e0 <strlen>
 800aa60:	9901      	ldr	r1, [sp, #4]
 800aa62:	4602      	mov	r2, r0
 800aa64:	484e      	ldr	r0, [pc, #312]	; (800aba0 <HAL_UART_RxCpltCallback+0x264>)
 800aa66:	f004 feb3 	bl	800f7d0 <strncmp>
 800aa6a:	b910      	cbnz	r0, 800aa72 <HAL_UART_RxCpltCallback+0x136>
 800aa6c:	4b54      	ldr	r3, [pc, #336]	; (800abc0 <HAL_UART_RxCpltCallback+0x284>)
 800aa6e:	7018      	strb	r0, [r3, #0]
 800aa70:	e7de      	b.n	800aa30 <HAL_UART_RxCpltCallback+0xf4>
 800aa72:	4b55      	ldr	r3, [pc, #340]	; (800abc8 <HAL_UART_RxCpltCallback+0x28c>)
 800aa74:	6819      	ldr	r1, [r3, #0]
 800aa76:	9101      	str	r1, [sp, #4]
 800aa78:	4608      	mov	r0, r1
 800aa7a:	f7fd fbb1 	bl	80081e0 <strlen>
 800aa7e:	9901      	ldr	r1, [sp, #4]
 800aa80:	4602      	mov	r2, r0
 800aa82:	4847      	ldr	r0, [pc, #284]	; (800aba0 <HAL_UART_RxCpltCallback+0x264>)
 800aa84:	f004 fea4 	bl	800f7d0 <strncmp>
 800aa88:	b908      	cbnz	r0, 800aa8e <HAL_UART_RxCpltCallback+0x152>
 800aa8a:	200b      	movs	r0, #11
 800aa8c:	e7a2      	b.n	800a9d4 <HAL_UART_RxCpltCallback+0x98>
 800aa8e:	4b4f      	ldr	r3, [pc, #316]	; (800abcc <HAL_UART_RxCpltCallback+0x290>)
 800aa90:	6819      	ldr	r1, [r3, #0]
 800aa92:	9101      	str	r1, [sp, #4]
 800aa94:	4608      	mov	r0, r1
 800aa96:	f7fd fba3 	bl	80081e0 <strlen>
 800aa9a:	9901      	ldr	r1, [sp, #4]
 800aa9c:	4602      	mov	r2, r0
 800aa9e:	4840      	ldr	r0, [pc, #256]	; (800aba0 <HAL_UART_RxCpltCallback+0x264>)
 800aaa0:	f004 fe96 	bl	800f7d0 <strncmp>
 800aaa4:	b908      	cbnz	r0, 800aaaa <HAL_UART_RxCpltCallback+0x16e>
 800aaa6:	200a      	movs	r0, #10
 800aaa8:	e794      	b.n	800a9d4 <HAL_UART_RxCpltCallback+0x98>
 800aaaa:	4b49      	ldr	r3, [pc, #292]	; (800abd0 <HAL_UART_RxCpltCallback+0x294>)
 800aaac:	6819      	ldr	r1, [r3, #0]
 800aaae:	9101      	str	r1, [sp, #4]
 800aab0:	4608      	mov	r0, r1
 800aab2:	f7fd fb95 	bl	80081e0 <strlen>
 800aab6:	9901      	ldr	r1, [sp, #4]
 800aab8:	4604      	mov	r4, r0
 800aaba:	4602      	mov	r2, r0
 800aabc:	4838      	ldr	r0, [pc, #224]	; (800aba0 <HAL_UART_RxCpltCallback+0x264>)
 800aabe:	f004 fe87 	bl	800f7d0 <strncmp>
 800aac2:	2800      	cmp	r0, #0
 800aac4:	d161      	bne.n	800ab8a <HAL_UART_RxCpltCallback+0x24e>
 800aac6:	4444      	add	r4, r8
 800aac8:	213a      	movs	r1, #58	; 0x3a
 800aaca:	4620      	mov	r0, r4
 800aacc:	f004 fe6b 	bl	800f7a6 <strchr>
 800aad0:	f8df 810c 	ldr.w	r8, [pc, #268]	; 800abe0 <HAL_UART_RxCpltCallback+0x2a4>
 800aad4:	4681      	mov	r9, r0
 800aad6:	b3c0      	cbz	r0, 800ab4a <HAL_UART_RxCpltCallback+0x20e>
 800aad8:	3001      	adds	r0, #1
 800aada:	f004 f986 	bl	800edea <atol>
 800aade:	b280      	uxth	r0, r0
 800aae0:	f5b0 7f80 	cmp.w	r0, #256	; 0x100
 800aae4:	bf84      	itt	hi
 800aae6:	f44f 7380 	movhi.w	r3, #256	; 0x100
 800aaea:	f8a8 3000 	strhhi.w	r3, [r8]
 800aaee:	f04f 0300 	mov.w	r3, #0
 800aaf2:	bf98      	it	ls
 800aaf4:	f8a8 0000 	strhls.w	r0, [r8]
 800aaf8:	f889 3000 	strb.w	r3, [r9]
 800aafc:	f8df 90e4 	ldr.w	r9, [pc, #228]	; 800abe4 <HAL_UART_RxCpltCallback+0x2a8>
 800ab00:	4934      	ldr	r1, [pc, #208]	; (800abd4 <HAL_UART_RxCpltCallback+0x298>)
 800ab02:	2300      	movs	r3, #0
 800ab04:	4620      	mov	r0, r4
 800ab06:	f8c9 3000 	str.w	r3, [r9]
 800ab0a:	f004 fe73 	bl	800f7f4 <strstr>
 800ab0e:	b308      	cbz	r0, 800ab54 <HAL_UART_RxCpltCallback+0x218>
 800ab10:	3402      	adds	r4, #2
 800ab12:	4620      	mov	r0, r4
 800ab14:	f7fd fb64 	bl	80081e0 <strlen>
 800ab18:	b2c1      	uxtb	r1, r0
 800ab1a:	4620      	mov	r0, r4
 800ab1c:	f7fe ff8e 	bl	8009a3c <hex2bin>
 800ab20:	f8b8 2000 	ldrh.w	r2, [r8]
 800ab24:	f8c9 0000 	str.w	r0, [r9]
 800ab28:	b36a      	cbz	r2, 800ab86 <HAL_UART_RxCpltCallback+0x24a>
 800ab2a:	f8d9 3000 	ldr.w	r3, [r9]
 800ab2e:	f103 4178 	add.w	r1, r3, #4160749568	; 0xf8000000
 800ab32:	f5b1 2f00 	cmp.w	r1, #524288	; 0x80000
 800ab36:	d211      	bcs.n	800ab5c <HAL_UART_RxCpltCallback+0x220>
 800ab38:	4927      	ldr	r1, [pc, #156]	; (800abd8 <HAL_UART_RxCpltCallback+0x29c>)
 800ab3a:	441a      	add	r2, r3
 800ab3c:	428a      	cmp	r2, r1
 800ab3e:	d902      	bls.n	800ab46 <HAL_UART_RxCpltCallback+0x20a>
 800ab40:	425b      	negs	r3, r3
 800ab42:	f8a8 3000 	strh.w	r3, [r8]
 800ab46:	2006      	movs	r0, #6
 800ab48:	e744      	b.n	800a9d4 <HAL_UART_RxCpltCallback+0x98>
 800ab4a:	f44f 7380 	mov.w	r3, #256	; 0x100
 800ab4e:	f8a8 3000 	strh.w	r3, [r8]
 800ab52:	e7d3      	b.n	800aafc <HAL_UART_RxCpltCallback+0x1c0>
 800ab54:	4620      	mov	r0, r4
 800ab56:	f004 f948 	bl	800edea <atol>
 800ab5a:	e7e1      	b.n	800ab20 <HAL_UART_RxCpltCallback+0x1e4>
 800ab5c:	f103 4160 	add.w	r1, r3, #3758096384	; 0xe0000000
 800ab60:	f501 4008 	add.w	r0, r1, #34816	; 0x8800
 800ab64:	f5b0 7f04 	cmp.w	r0, #528	; 0x210
 800ab68:	d207      	bcs.n	800ab7a <HAL_UART_RxCpltCallback+0x23e>
 800ab6a:	491c      	ldr	r1, [pc, #112]	; (800abdc <HAL_UART_RxCpltCallback+0x2a0>)
 800ab6c:	441a      	add	r2, r3
 800ab6e:	428a      	cmp	r2, r1
 800ab70:	d9e9      	bls.n	800ab46 <HAL_UART_RxCpltCallback+0x20a>
 800ab72:	f5c3 43f4 	rsb	r3, r3, #31232	; 0x7a00
 800ab76:	330f      	adds	r3, #15
 800ab78:	e7e3      	b.n	800ab42 <HAL_UART_RxCpltCallback+0x206>
 800ab7a:	f501 4180 	add.w	r1, r1, #16384	; 0x4000
 800ab7e:	290f      	cmp	r1, #15
 800ab80:	d801      	bhi.n	800ab86 <HAL_UART_RxCpltCallback+0x24a>
 800ab82:	2310      	movs	r3, #16
 800ab84:	e7dd      	b.n	800ab42 <HAL_UART_RxCpltCallback+0x206>
 800ab86:	2007      	movs	r0, #7
 800ab88:	e724      	b.n	800a9d4 <HAL_UART_RxCpltCallback+0x98>
 800ab8a:	2015      	movs	r0, #21
 800ab8c:	e722      	b.n	800a9d4 <HAL_UART_RxCpltCallback+0x98>
 800ab8e:	bf00      	nop
 800ab90:	40011000 	.word	0x40011000
 800ab94:	200002d8 	.word	0x200002d8
 800ab98:	20000afe 	.word	0x20000afe
 800ab9c:	200002d6 	.word	0x200002d6
 800aba0:	20000aff 	.word	0x20000aff
 800aba4:	20000018 	.word	0x20000018
 800aba8:	200002d4 	.word	0x200002d4
 800abac:	20000010 	.word	0x20000010
 800abb0:	2000004c 	.word	0x2000004c
 800abb4:	2000000c 	.word	0x2000000c
 800abb8:	20000000 	.word	0x20000000
 800abbc:	2000005c 	.word	0x2000005c
 800abc0:	20000aee 	.word	0x20000aee
 800abc4:	20000058 	.word	0x20000058
 800abc8:	20000004 	.word	0x20000004
 800abcc:	20000008 	.word	0x20000008
 800abd0:	20000014 	.word	0x20000014
 800abd4:	08016b5a 	.word	0x08016b5a
 800abd8:	08080000 	.word	0x08080000
 800abdc:	1fff7a0f 	.word	0x1fff7a0f
 800abe0:	200002c8 	.word	0x200002c8
 800abe4:	200002c4 	.word	0x200002c4

0800abe8 <HAL_UART_ErrorCallback>:
 800abe8:	6803      	ldr	r3, [r0, #0]
 800abea:	4a06      	ldr	r2, [pc, #24]	; (800ac04 <HAL_UART_ErrorCallback+0x1c>)
 800abec:	4293      	cmp	r3, r2
 800abee:	d003      	beq.n	800abf8 <HAL_UART_ErrorCallback+0x10>
 800abf0:	f5a2 424c 	sub.w	r2, r2, #52224	; 0xcc00
 800abf4:	4293      	cmp	r3, r2
 800abf6:	d104      	bne.n	800ac02 <HAL_UART_ErrorCallback+0x1a>
 800abf8:	4a03      	ldr	r2, [pc, #12]	; (800ac08 <HAL_UART_ErrorCallback+0x20>)
 800abfa:	6813      	ldr	r3, [r2, #0]
 800abfc:	f043 0301 	orr.w	r3, r3, #1
 800ac00:	6013      	str	r3, [r2, #0]
 800ac02:	4770      	bx	lr
 800ac04:	40011000 	.word	0x40011000
 800ac08:	20000280 	.word	0x20000280

0800ac0c <HAL_UART_TxCpltCallback>:
 800ac0c:	6802      	ldr	r2, [r0, #0]
 800ac0e:	4b03      	ldr	r3, [pc, #12]	; (800ac1c <HAL_UART_TxCpltCallback+0x10>)
 800ac10:	429a      	cmp	r2, r3
 800ac12:	bf02      	ittt	eq
 800ac14:	4b02      	ldreq	r3, [pc, #8]	; (800ac20 <HAL_UART_TxCpltCallback+0x14>)
 800ac16:	2201      	moveq	r2, #1
 800ac18:	701a      	strbeq	r2, [r3, #0]
 800ac1a:	4770      	bx	lr
 800ac1c:	40011000 	.word	0x40011000
 800ac20:	20000048 	.word	0x20000048

0800ac24 <HAL_I2C_ErrorCallback>:
 800ac24:	6802      	ldr	r2, [r0, #0]
 800ac26:	4b04      	ldr	r3, [pc, #16]	; (800ac38 <HAL_I2C_ErrorCallback+0x14>)
 800ac28:	429a      	cmp	r2, r3
 800ac2a:	bf01      	itttt	eq
 800ac2c:	4a03      	ldreq	r2, [pc, #12]	; (800ac3c <HAL_I2C_ErrorCallback+0x18>)
 800ac2e:	6813      	ldreq	r3, [r2, #0]
 800ac30:	f043 030f 	orreq.w	r3, r3, #15
 800ac34:	6013      	streq	r3, [r2, #0]
 800ac36:	4770      	bx	lr
 800ac38:	40005400 	.word	0x40005400
 800ac3c:	20000280 	.word	0x20000280

0800ac40 <HAL_I2C_MasterTxCpltCallback>:
 800ac40:	6802      	ldr	r2, [r0, #0]
 800ac42:	4b03      	ldr	r3, [pc, #12]	; (800ac50 <HAL_I2C_MasterTxCpltCallback+0x10>)
 800ac44:	429a      	cmp	r2, r3
 800ac46:	bf02      	ittt	eq
 800ac48:	4b02      	ldreq	r3, [pc, #8]	; (800ac54 <HAL_I2C_MasterTxCpltCallback+0x14>)
 800ac4a:	2201      	moveq	r2, #1
 800ac4c:	701a      	strbeq	r2, [r3, #0]
 800ac4e:	4770      	bx	lr
 800ac50:	40005400 	.word	0x40005400
 800ac54:	20000036 	.word	0x20000036

0800ac58 <HAL_I2C_MasterRxCpltCallback>:
 800ac58:	6802      	ldr	r2, [r0, #0]
 800ac5a:	4b03      	ldr	r3, [pc, #12]	; (800ac68 <HAL_I2C_MasterRxCpltCallback+0x10>)
 800ac5c:	429a      	cmp	r2, r3
 800ac5e:	bf02      	ittt	eq
 800ac60:	4b02      	ldreq	r3, [pc, #8]	; (800ac6c <HAL_I2C_MasterRxCpltCallback+0x14>)
 800ac62:	2201      	moveq	r2, #1
 800ac64:	701a      	strbeq	r2, [r3, #0]
 800ac66:	4770      	bx	lr
 800ac68:	40005400 	.word	0x40005400
 800ac6c:	20000035 	.word	0x20000035

0800ac70 <HAL_TIM_PeriodElapsedCallback>:
 800ac70:	b508      	push	{r3, lr}
 800ac72:	6802      	ldr	r2, [r0, #0]
 800ac74:	4b0c      	ldr	r3, [pc, #48]	; (800aca8 <HAL_TIM_PeriodElapsedCallback+0x38>)
 800ac76:	429a      	cmp	r2, r3
 800ac78:	d115      	bne.n	800aca6 <HAL_TIM_PeriodElapsedCallback+0x36>
 800ac7a:	f7fe ff47 	bl	8009b0c <inc_mSecCounter>
 800ac7e:	4b0b      	ldr	r3, [pc, #44]	; (800acac <HAL_TIM_PeriodElapsedCallback+0x3c>)
 800ac80:	6819      	ldr	r1, [r3, #0]
 800ac82:	2264      	movs	r2, #100	; 0x64
 800ac84:	fbb1 f3f2 	udiv	r3, r1, r2
 800ac88:	fb02 1313 	mls	r3, r2, r3, r1
 800ac8c:	b95b      	cbnz	r3, 800aca6 <HAL_TIM_PeriodElapsedCallback+0x36>
 800ac8e:	f7fe ff45 	bl	8009b1c <inc_secCounter>
 800ac92:	4807      	ldr	r0, [pc, #28]	; (800acb0 <HAL_TIM_PeriodElapsedCallback+0x40>)
 800ac94:	f44f 5100 	mov.w	r1, #8192	; 0x2000
 800ac98:	f001 fcb3 	bl	800c602 <HAL_GPIO_TogglePin>
 800ac9c:	e8bd 4008 	ldmia.w	sp!, {r3, lr}
 800aca0:	2002      	movs	r0, #2
 800aca2:	f7fe bfd3 	b.w	8009c4c <putEvt>
 800aca6:	bd08      	pop	{r3, pc}
 800aca8:	40000400 	.word	0x40000400
 800acac:	200002cc 	.word	0x200002cc
 800acb0:	40020800 	.word	0x40020800

0800acb4 <Error_Handler>:
 800acb4:	b672      	cpsid	i
 800acb6:	e7fe      	b.n	800acb6 <Error_Handler+0x2>

0800acb8 <MQ135_getCorrectionFactor>:
 800acb8:	e92d 4370 	stmdb	sp!, {r4, r5, r6, r8, r9, lr}
 800acbc:	ee10 0a10 	vmov	r0, s0
 800acc0:	ee10 6a90 	vmov	r6, s1
 800acc4:	f7fd fc48 	bl	8008558 <__aeabi_f2d>
 800acc8:	a320      	add	r3, pc, #128	; (adr r3, 800ad4c <MQ135_getCorrectionFactor+0x94>)
 800acca:	e9d3 2300 	ldrd	r2, r3, [r3]
 800acce:	4604      	mov	r4, r0
 800acd0:	460d      	mov	r5, r1
 800acd2:	f7fd fc99 	bl	8008608 <__aeabi_dmul>
 800acd6:	4622      	mov	r2, r4
 800acd8:	462b      	mov	r3, r5
 800acda:	f7fd fc95 	bl	8008608 <__aeabi_dmul>
 800acde:	a31d      	add	r3, pc, #116	; (adr r3, 800ad54 <MQ135_getCorrectionFactor+0x9c>)
 800ace0:	e9d3 2300 	ldrd	r2, r3, [r3]
 800ace4:	4680      	mov	r8, r0
 800ace6:	4689      	mov	r9, r1
 800ace8:	4620      	mov	r0, r4
 800acea:	4629      	mov	r1, r5
 800acec:	f7fd fc8c 	bl	8008608 <__aeabi_dmul>
 800acf0:	4602      	mov	r2, r0
 800acf2:	460b      	mov	r3, r1
 800acf4:	4640      	mov	r0, r8
 800acf6:	4649      	mov	r1, r9
 800acf8:	f7fd face 	bl	8008298 <__aeabi_dsub>
 800acfc:	a317      	add	r3, pc, #92	; (adr r3, 800ad5c <MQ135_getCorrectionFactor+0xa4>)
 800acfe:	e9d3 2300 	ldrd	r2, r3, [r3]
 800ad02:	f7fd facb 	bl	800829c <__adddf3>
 800ad06:	4604      	mov	r4, r0
 800ad08:	4630      	mov	r0, r6
 800ad0a:	460d      	mov	r5, r1
 800ad0c:	f7fd fc24 	bl	8008558 <__aeabi_f2d>
 800ad10:	4b0d      	ldr	r3, [pc, #52]	; (800ad48 <MQ135_getCorrectionFactor+0x90>)
 800ad12:	2200      	movs	r2, #0
 800ad14:	f7fd fac0 	bl	8008298 <__aeabi_dsub>
 800ad18:	a309      	add	r3, pc, #36	; (adr r3, 800ad40 <MQ135_getCorrectionFactor+0x88>)
 800ad1a:	e9d3 2300 	ldrd	r2, r3, [r3]
 800ad1e:	f7fd fc73 	bl	8008608 <__aeabi_dmul>
 800ad22:	4602      	mov	r2, r0
 800ad24:	460b      	mov	r3, r1
 800ad26:	4620      	mov	r0, r4
 800ad28:	4629      	mov	r1, r5
 800ad2a:	f7fd fab5 	bl	8008298 <__aeabi_dsub>
 800ad2e:	f7fd ff43 	bl	8008bb8 <__aeabi_d2f>
 800ad32:	ee00 0a10 	vmov	s0, r0
 800ad36:	e8bd 8370 	ldmia.w	sp!, {r4, r5, r6, r8, r9, pc}
 800ad3a:	bf00      	nop
 800ad3c:	f3af 8000 	nop.w
 800ad40:	487fcb92 	.word	0x487fcb92
 800ad44:	3f5d7dbf 	.word	0x3f5d7dbf
 800ad48:	40408000 	.word	0x40408000
 800ad4c:	8db8bac7 	.word	0x8db8bac7
 800ad50:	3f36f006 	.word	0x3f36f006
 800ad54:	ec6bce85 	.word	0xec6bce85
 800ad58:	3f9bd512 	.word	0x3f9bd512
 800ad5c:	fa97e133 	.word	0xfa97e133
 800ad60:	3ff65379 	.word	0x3ff65379
 800ad64:	00000000 	.word	0x00000000

0800ad68 <MQ135_getResistance>:
 800ad68:	b508      	push	{r3, lr}
 800ad6a:	4b13      	ldr	r3, [pc, #76]	; (800adb8 <MQ135_getResistance+0x50>)
 800ad6c:	8818      	ldrh	r0, [r3, #0]
 800ad6e:	ee07 0a90 	vmov	s15, r0
 800ad72:	eef8 7ae7 	vcvt.f32.s32	s15, s15
 800ad76:	ee17 0a90 	vmov	r0, s15
 800ad7a:	f7fd fbed 	bl	8008558 <__aeabi_f2d>
 800ad7e:	4602      	mov	r2, r0
 800ad80:	460b      	mov	r3, r1
 800ad82:	a10b      	add	r1, pc, #44	; (adr r1, 800adb0 <MQ135_getResistance+0x48>)
 800ad84:	e9d1 0100 	ldrd	r0, r1, [r1]
 800ad88:	f7fd fd68 	bl	800885c <__aeabi_ddiv>
 800ad8c:	4b0b      	ldr	r3, [pc, #44]	; (800adbc <MQ135_getResistance+0x54>)
 800ad8e:	2200      	movs	r2, #0
 800ad90:	f7fd fc3a 	bl	8008608 <__aeabi_dmul>
 800ad94:	4b0a      	ldr	r3, [pc, #40]	; (800adc0 <MQ135_getResistance+0x58>)
 800ad96:	2200      	movs	r2, #0
 800ad98:	f7fd fa7e 	bl	8008298 <__aeabi_dsub>
 800ad9c:	4b09      	ldr	r3, [pc, #36]	; (800adc4 <MQ135_getResistance+0x5c>)
 800ad9e:	2200      	movs	r2, #0
 800ada0:	f7fd fc32 	bl	8008608 <__aeabi_dmul>
 800ada4:	f7fd ff08 	bl	8008bb8 <__aeabi_d2f>
 800ada8:	ee00 0a10 	vmov	s0, r0
 800adac:	bd08      	pop	{r3, pc}
 800adae:	bf00      	nop
 800adb0:	00000000 	.word	0x00000000
 800adb4:	40affe00 	.word	0x40affe00
 800adb8:	20000ada 	.word	0x20000ada
 800adbc:	40140000 	.word	0x40140000
 800adc0:	3ff00000 	.word	0x3ff00000
 800adc4:	40240000 	.word	0x40240000

0800adc8 <MQ135_getCorrectedResistance>:
 800adc8:	b500      	push	{lr}
 800adca:	ed2d 8b02 	vpush	{d8}
 800adce:	b083      	sub	sp, #12
 800add0:	eef0 8a40 	vmov.f32	s17, s0
 800add4:	edcd 0a01 	vstr	s1, [sp, #4]
 800add8:	f7ff ffc6 	bl	800ad68 <MQ135_getResistance>
 800addc:	eddd 0a01 	vldr	s1, [sp, #4]
 800ade0:	eeb0 8a40 	vmov.f32	s16, s0
 800ade4:	eeb0 0a68 	vmov.f32	s0, s17
 800ade8:	f7ff ff66 	bl	800acb8 <MQ135_getCorrectionFactor>
 800adec:	ee88 0a00 	vdiv.f32	s0, s16, s0
 800adf0:	b003      	add	sp, #12
 800adf2:	ecbd 8b02 	vpop	{d8}
 800adf6:	f85d fb04 	ldr.w	pc, [sp], #4
 800adfa:	0000      	movs	r0, r0
 800adfc:	0000      	movs	r0, r0
	...

0800ae00 <MQ135_getPPM>:
 800ae00:	b508      	push	{r3, lr}
 800ae02:	f7ff ffb1 	bl	800ad68 <MQ135_getResistance>
 800ae06:	4b12      	ldr	r3, [pc, #72]	; (800ae50 <MQ135_getPPM+0x50>)
 800ae08:	edd3 7a00 	vldr	s15, [r3]
 800ae0c:	eec0 7a27 	vdiv.f32	s15, s0, s15
 800ae10:	ee17 0a90 	vmov	r0, s15
 800ae14:	f7fd fba0 	bl	8008558 <__aeabi_f2d>
 800ae18:	ed9f 1b09 	vldr	d1, [pc, #36]	; 800ae40 <MQ135_getPPM+0x40>
 800ae1c:	ec41 0b10 	vmov	d0, r0, r1
 800ae20:	f006 ffc6 	bl	8011db0 <pow>
 800ae24:	a308      	add	r3, pc, #32	; (adr r3, 800ae48 <MQ135_getPPM+0x48>)
 800ae26:	e9d3 2300 	ldrd	r2, r3, [r3]
 800ae2a:	ec51 0b10 	vmov	r0, r1, d0
 800ae2e:	f7fd fbeb 	bl	8008608 <__aeabi_dmul>
 800ae32:	f7fd fec1 	bl	8008bb8 <__aeabi_d2f>
 800ae36:	ee00 0a10 	vmov	s0, r0
 800ae3a:	bd08      	pop	{r3, pc}
 800ae3c:	f3af 8000 	nop.w
 800ae40:	bf42646d 	.word	0xbf42646d
 800ae44:	c00626fb 	.word	0xc00626fb
 800ae48:	490f3d8b 	.word	0x490f3d8b
 800ae4c:	405d2688 	.word	0x405d2688
 800ae50:	20000054 	.word	0x20000054
 800ae54:	00000000 	.word	0x00000000

0800ae58 <MQ135_getCorrectedPPM>:
 800ae58:	b508      	push	{r3, lr}
 800ae5a:	f7ff ffb5 	bl	800adc8 <MQ135_getCorrectedResistance>
 800ae5e:	4b12      	ldr	r3, [pc, #72]	; (800aea8 <MQ135_getCorrectedPPM+0x50>)
 800ae60:	edd3 7a00 	vldr	s15, [r3]
 800ae64:	eec0 7a27 	vdiv.f32	s15, s0, s15
 800ae68:	ee17 0a90 	vmov	r0, s15
 800ae6c:	f7fd fb74 	bl	8008558 <__aeabi_f2d>
 800ae70:	ed9f 1b09 	vldr	d1, [pc, #36]	; 800ae98 <MQ135_getCorrectedPPM+0x40>
 800ae74:	ec41 0b10 	vmov	d0, r0, r1
 800ae78:	f006 ff9a 	bl	8011db0 <pow>
 800ae7c:	a308      	add	r3, pc, #32	; (adr r3, 800aea0 <MQ135_getCorrectedPPM+0x48>)
 800ae7e:	e9d3 2300 	ldrd	r2, r3, [r3]
 800ae82:	ec51 0b10 	vmov	r0, r1, d0
 800ae86:	f7fd fbbf 	bl	8008608 <__aeabi_dmul>
 800ae8a:	f7fd fe95 	bl	8008bb8 <__aeabi_d2f>
 800ae8e:	ee00 0a10 	vmov	s0, r0
 800ae92:	bd08      	pop	{r3, pc}
 800ae94:	f3af 8000 	nop.w
 800ae98:	bf42646d 	.word	0xbf42646d
 800ae9c:	c00626fb 	.word	0xc00626fb
 800aea0:	490f3d8b 	.word	0x490f3d8b
 800aea4:	405d2688 	.word	0x405d2688
 800aea8:	20000054 	.word	0x20000054
 800aeac:	00000000 	.word	0x00000000

0800aeb0 <MQ135_getRZero>:
 800aeb0:	b508      	push	{r3, lr}
 800aeb2:	f7ff ff59 	bl	800ad68 <MQ135_getResistance>
 800aeb6:	ee10 0a10 	vmov	r0, s0
 800aeba:	f7fd fb4d 	bl	8008558 <__aeabi_f2d>
 800aebe:	a306      	add	r3, pc, #24	; (adr r3, 800aed8 <MQ135_getRZero+0x28>)
 800aec0:	e9d3 2300 	ldrd	r2, r3, [r3]
 800aec4:	f7fd fba0 	bl	8008608 <__aeabi_dmul>
 800aec8:	f7fd fe76 	bl	8008bb8 <__aeabi_d2f>
 800aecc:	ee00 0a10 	vmov	s0, r0
 800aed0:	bd08      	pop	{r3, pc}
 800aed2:	bf00      	nop
 800aed4:	f3af 8000 	nop.w
 800aed8:	3d9f968c 	.word	0x3d9f968c
 800aedc:	3ff92155 	.word	0x3ff92155

0800aee0 <MQ135_getCorrectedRZero>:
 800aee0:	b508      	push	{r3, lr}
 800aee2:	f7ff ff71 	bl	800adc8 <MQ135_getCorrectedResistance>
 800aee6:	ee10 0a10 	vmov	r0, s0
 800aeea:	f7fd fb35 	bl	8008558 <__aeabi_f2d>
 800aeee:	a306      	add	r3, pc, #24	; (adr r3, 800af08 <MQ135_getCorrectedRZero+0x28>)
 800aef0:	e9d3 2300 	ldrd	r2, r3, [r3]
 800aef4:	f7fd fb88 	bl	8008608 <__aeabi_dmul>
 800aef8:	f7fd fe5e 	bl	8008bb8 <__aeabi_d2f>
 800aefc:	ee00 0a10 	vmov	s0, r0
 800af00:	bd08      	pop	{r3, pc}
 800af02:	bf00      	nop
 800af04:	f3af 8000 	nop.w
 800af08:	3d9f968c 	.word	0x3d9f968c
 800af0c:	3ff92155 	.word	0x3ff92155

0800af10 <ppmColor>:
 800af10:	eddf 7a14 	vldr	s15, [pc, #80]	; 800af64 <ppmColor+0x54>
 800af14:	eeb4 0ae7 	vcmpe.f32	s0, s15
 800af18:	eef1 fa10 	vmrs	APSR_nzcv, fpscr
 800af1c:	eddf 7a12 	vldr	s15, [pc, #72]	; 800af68 <ppmColor+0x58>
 800af20:	dd04      	ble.n	800af2c <ppmColor+0x1c>
 800af22:	eeb4 0ae7 	vcmpe.f32	s0, s15
 800af26:	eef1 fa10 	vmrs	APSR_nzcv, fpscr
 800af2a:	d415      	bmi.n	800af58 <ppmColor+0x48>
 800af2c:	eeb4 0ae7 	vcmpe.f32	s0, s15
 800af30:	eef1 fa10 	vmrs	APSR_nzcv, fpscr
 800af34:	eddf 7a0d 	vldr	s15, [pc, #52]	; 800af6c <ppmColor+0x5c>
 800af38:	dd04      	ble.n	800af44 <ppmColor+0x34>
 800af3a:	eeb4 0ae7 	vcmpe.f32	s0, s15
 800af3e:	eef1 fa10 	vmrs	APSR_nzcv, fpscr
 800af42:	d40c      	bmi.n	800af5e <ppmColor+0x4e>
 800af44:	eeb4 0ae7 	vcmpe.f32	s0, s15
 800af48:	eef1 fa10 	vmrs	APSR_nzcv, fpscr
 800af4c:	bfcc      	ite	gt
 800af4e:	f44f 4078 	movgt.w	r0, #63488	; 0xf800
 800af52:	f44f 60fc 	movle.w	r0, #2016	; 0x7e0
 800af56:	4770      	bx	lr
 800af58:	f64f 70e0 	movw	r0, #65504	; 0xffe0
 800af5c:	4770      	bx	lr
 800af5e:	f64f 001f 	movw	r0, #63519	; 0xf81f
 800af62:	4770      	bx	lr
 800af64:	43c80000 	.word	0x43c80000
 800af68:	44160000 	.word	0x44160000
 800af6c:	447a0000 	.word	0x447a0000

0800af70 <SF04_CheckCrc>:
 800af70:	b510      	push	{r4, lr}
 800af72:	4602      	mov	r2, r0
 800af74:	4401      	add	r1, r0
 800af76:	2000      	movs	r0, #0
 800af78:	4291      	cmp	r1, r2
 800af7a:	d100      	bne.n	800af7e <SF04_CheckCrc+0xe>
 800af7c:	bd10      	pop	{r4, pc}
 800af7e:	f812 3b01 	ldrb.w	r3, [r2], #1
 800af82:	2408      	movs	r4, #8
 800af84:	4058      	eors	r0, r3
 800af86:	f010 0f80 	tst.w	r0, #128	; 0x80
 800af8a:	ea4f 0340 	mov.w	r3, r0, lsl #1
 800af8e:	bf18      	it	ne
 800af90:	f083 0331 	eorne.w	r3, r3, #49	; 0x31
 800af94:	b2d8      	uxtb	r0, r3
 800af96:	1e63      	subs	r3, r4, #1
 800af98:	f013 04ff 	ands.w	r4, r3, #255	; 0xff
 800af9c:	d1f3      	bne.n	800af86 <SF04_CheckCrc+0x16>
 800af9e:	e7eb      	b.n	800af78 <SF04_CheckCrc+0x8>

0800afa0 <si7021_reset>:
 800afa0:	b51f      	push	{r0, r1, r2, r3, r4, lr}
 800afa2:	23fe      	movs	r3, #254	; 0xfe
 800afa4:	f88d 300f 	strb.w	r3, [sp, #15]
 800afa8:	4b0b      	ldr	r3, [pc, #44]	; (800afd8 <si7021_reset+0x38>)
 800afaa:	480c      	ldr	r0, [pc, #48]	; (800afdc <si7021_reset+0x3c>)
 800afac:	2200      	movs	r2, #0
 800afae:	701a      	strb	r2, [r3, #0]
 800afb0:	4b0b      	ldr	r3, [pc, #44]	; (800afe0 <si7021_reset+0x40>)
 800afb2:	681b      	ldr	r3, [r3, #0]
 800afb4:	9300      	str	r3, [sp, #0]
 800afb6:	6800      	ldr	r0, [r0, #0]
 800afb8:	2301      	movs	r3, #1
 800afba:	f10d 020f 	add.w	r2, sp, #15
 800afbe:	2180      	movs	r1, #128	; 0x80
 800afc0:	f001 fcb0 	bl	800c924 <HAL_I2C_Master_Transmit>
 800afc4:	b120      	cbz	r0, 800afd0 <si7021_reset+0x30>
 800afc6:	4a07      	ldr	r2, [pc, #28]	; (800afe4 <si7021_reset+0x44>)
 800afc8:	6813      	ldr	r3, [r2, #0]
 800afca:	f043 030f 	orr.w	r3, r3, #15
 800afce:	6013      	str	r3, [r2, #0]
 800afd0:	b005      	add	sp, #20
 800afd2:	f85d fb04 	ldr.w	pc, [sp], #4
 800afd6:	bf00      	nop
 800afd8:	20000036 	.word	0x20000036
 800afdc:	20000040 	.word	0x20000040
 800afe0:	08016c58 	.word	0x08016c58
 800afe4:	20000280 	.word	0x20000280

0800afe8 <si7021_read_raw_rh>:
 800afe8:	e92d 43f0 	stmdb	sp!, {r4, r5, r6, r7, r8, r9, lr}
 800afec:	b085      	sub	sp, #20
 800afee:	23e5      	movs	r3, #229	; 0xe5
 800aff0:	f88d 300f 	strb.w	r3, [sp, #15]
 800aff4:	4b24      	ldr	r3, [pc, #144]	; (800b088 <si7021_read_raw_rh+0xa0>)
 800aff6:	4c25      	ldr	r4, [pc, #148]	; (800b08c <si7021_read_raw_rh+0xa4>)
 800aff8:	f8d3 8000 	ldr.w	r8, [r3]
 800affc:	f8cd 8000 	str.w	r8, [sp]
 800b000:	2301      	movs	r3, #1
 800b002:	f10d 020f 	add.w	r2, sp, #15
 800b006:	4607      	mov	r7, r0
 800b008:	460e      	mov	r6, r1
 800b00a:	6820      	ldr	r0, [r4, #0]
 800b00c:	f8df 9088 	ldr.w	r9, [pc, #136]	; 800b098 <si7021_read_raw_rh+0xb0>
 800b010:	2180      	movs	r1, #128	; 0x80
 800b012:	f001 fc87 	bl	800c924 <HAL_I2C_Master_Transmit>
 800b016:	2300      	movs	r3, #0
 800b018:	f889 3000 	strb.w	r3, [r9]
 800b01c:	4a1c      	ldr	r2, [pc, #112]	; (800b090 <si7021_read_raw_rh+0xa8>)
 800b01e:	4605      	mov	r5, r0
 800b020:	2303      	movs	r3, #3
 800b022:	6820      	ldr	r0, [r4, #0]
 800b024:	2180      	movs	r1, #128	; 0x80
 800b026:	f001 fd55 	bl	800cad4 <HAL_I2C_Master_Receive_DMA>
 800b02a:	4604      	mov	r4, r0
 800b02c:	f899 3000 	ldrb.w	r3, [r9]
 800b030:	b943      	cbnz	r3, 800b044 <si7021_read_raw_rh+0x5c>
 800b032:	f1b8 0801 	subs.w	r8, r8, #1
 800b036:	d101      	bne.n	800b03c <si7021_read_raw_rh+0x54>
 800b038:	2403      	movs	r4, #3
 800b03a:	e01d      	b.n	800b078 <si7021_read_raw_rh+0x90>
 800b03c:	2001      	movs	r0, #1
 800b03e:	f000 fc21 	bl	800b884 <HAL_Delay>
 800b042:	e7f3      	b.n	800b02c <si7021_read_raw_rh+0x44>
 800b044:	f1b8 0f00 	cmp.w	r8, #0
 800b048:	d0f6      	beq.n	800b038 <si7021_read_raw_rh+0x50>
 800b04a:	432c      	orrs	r4, r5
 800b04c:	f014 04ff 	ands.w	r4, r4, #255	; 0xff
 800b050:	d112      	bne.n	800b078 <si7021_read_raw_rh+0x90>
 800b052:	4d0f      	ldr	r5, [pc, #60]	; (800b090 <si7021_read_raw_rh+0xa8>)
 800b054:	2102      	movs	r1, #2
 800b056:	4628      	mov	r0, r5
 800b058:	f7ff ff8a 	bl	800af70 <SF04_CheckCrc>
 800b05c:	78ab      	ldrb	r3, [r5, #2]
 800b05e:	70e8      	strb	r0, [r5, #3]
 800b060:	4283      	cmp	r3, r0
 800b062:	bf15      	itete	ne
 800b064:	4a0b      	ldrne	r2, [pc, #44]	; (800b094 <si7021_read_raw_rh+0xac>)
 800b066:	782b      	ldrbeq	r3, [r5, #0]
 800b068:	6813      	ldrne	r3, [r2, #0]
 800b06a:	703b      	strbeq	r3, [r7, #0]
 800b06c:	bf07      	ittee	eq
 800b06e:	786b      	ldrbeq	r3, [r5, #1]
 800b070:	7033      	strbeq	r3, [r6, #0]
 800b072:	f043 0310 	orrne.w	r3, r3, #16
 800b076:	6013      	strne	r3, [r2, #0]
 800b078:	4a06      	ldr	r2, [pc, #24]	; (800b094 <si7021_read_raw_rh+0xac>)
 800b07a:	6813      	ldr	r3, [r2, #0]
 800b07c:	431c      	orrs	r4, r3
 800b07e:	6014      	str	r4, [r2, #0]
 800b080:	b005      	add	sp, #20
 800b082:	e8bd 83f0 	ldmia.w	sp!, {r4, r5, r6, r7, r8, r9, pc}
 800b086:	bf00      	nop
 800b088:	08016c58 	.word	0x08016c58
 800b08c:	20000040 	.word	0x20000040
 800b090:	20000ae6 	.word	0x20000ae6
 800b094:	20000280 	.word	0x20000280
 800b098:	20000035 	.word	0x20000035

0800b09c <si7021_read_raw_temp>:
 800b09c:	e92d 43f0 	stmdb	sp!, {r4, r5, r6, r7, r8, r9, lr}
 800b0a0:	b085      	sub	sp, #20
 800b0a2:	23e3      	movs	r3, #227	; 0xe3
 800b0a4:	f88d 300f 	strb.w	r3, [sp, #15]
 800b0a8:	4b23      	ldr	r3, [pc, #140]	; (800b138 <si7021_read_raw_temp+0x9c>)
 800b0aa:	4c24      	ldr	r4, [pc, #144]	; (800b13c <si7021_read_raw_temp+0xa0>)
 800b0ac:	681b      	ldr	r3, [r3, #0]
 800b0ae:	9300      	str	r3, [sp, #0]
 800b0b0:	f10d 020f 	add.w	r2, sp, #15
 800b0b4:	2301      	movs	r3, #1
 800b0b6:	4607      	mov	r7, r0
 800b0b8:	460e      	mov	r6, r1
 800b0ba:	6820      	ldr	r0, [r4, #0]
 800b0bc:	f8df 8090 	ldr.w	r8, [pc, #144]	; 800b150 <si7021_read_raw_temp+0xb4>
 800b0c0:	2180      	movs	r1, #128	; 0x80
 800b0c2:	f001 fc2f 	bl	800c924 <HAL_I2C_Master_Transmit>
 800b0c6:	2300      	movs	r3, #0
 800b0c8:	f888 3000 	strb.w	r3, [r8]
 800b0cc:	4a1c      	ldr	r2, [pc, #112]	; (800b140 <si7021_read_raw_temp+0xa4>)
 800b0ce:	2303      	movs	r3, #3
 800b0d0:	4605      	mov	r5, r0
 800b0d2:	2180      	movs	r1, #128	; 0x80
 800b0d4:	6820      	ldr	r0, [r4, #0]
 800b0d6:	f001 fcfd 	bl	800cad4 <HAL_I2C_Master_Receive_DMA>
 800b0da:	4b1a      	ldr	r3, [pc, #104]	; (800b144 <si7021_read_raw_temp+0xa8>)
 800b0dc:	681c      	ldr	r4, [r3, #0]
 800b0de:	4681      	mov	r9, r0
 800b0e0:	f898 3000 	ldrb.w	r3, [r8]
 800b0e4:	b93b      	cbnz	r3, 800b0f6 <si7021_read_raw_temp+0x5a>
 800b0e6:	3c01      	subs	r4, #1
 800b0e8:	d101      	bne.n	800b0ee <si7021_read_raw_temp+0x52>
 800b0ea:	2403      	movs	r4, #3
 800b0ec:	e01d      	b.n	800b12a <si7021_read_raw_temp+0x8e>
 800b0ee:	2001      	movs	r0, #1
 800b0f0:	f000 fbc8 	bl	800b884 <HAL_Delay>
 800b0f4:	e7f4      	b.n	800b0e0 <si7021_read_raw_temp+0x44>
 800b0f6:	2c00      	cmp	r4, #0
 800b0f8:	d0f7      	beq.n	800b0ea <si7021_read_raw_temp+0x4e>
 800b0fa:	ea45 0409 	orr.w	r4, r5, r9
 800b0fe:	f014 04ff 	ands.w	r4, r4, #255	; 0xff
 800b102:	d112      	bne.n	800b12a <si7021_read_raw_temp+0x8e>
 800b104:	4d10      	ldr	r5, [pc, #64]	; (800b148 <si7021_read_raw_temp+0xac>)
 800b106:	2102      	movs	r1, #2
 800b108:	1d28      	adds	r0, r5, #4
 800b10a:	f7ff ff31 	bl	800af70 <SF04_CheckCrc>
 800b10e:	79ab      	ldrb	r3, [r5, #6]
 800b110:	71e8      	strb	r0, [r5, #7]
 800b112:	4283      	cmp	r3, r0
 800b114:	bf15      	itete	ne
 800b116:	4a0d      	ldrne	r2, [pc, #52]	; (800b14c <si7021_read_raw_temp+0xb0>)
 800b118:	792b      	ldrbeq	r3, [r5, #4]
 800b11a:	6813      	ldrne	r3, [r2, #0]
 800b11c:	703b      	strbeq	r3, [r7, #0]
 800b11e:	bf07      	ittee	eq
 800b120:	796b      	ldrbeq	r3, [r5, #5]
 800b122:	7033      	strbeq	r3, [r6, #0]
 800b124:	f043 0310 	orrne.w	r3, r3, #16
 800b128:	6013      	strne	r3, [r2, #0]
 800b12a:	4a08      	ldr	r2, [pc, #32]	; (800b14c <si7021_read_raw_temp+0xb0>)
 800b12c:	6813      	ldr	r3, [r2, #0]
 800b12e:	431c      	orrs	r4, r3
 800b130:	6014      	str	r4, [r2, #0]
 800b132:	b005      	add	sp, #20
 800b134:	e8bd 83f0 	ldmia.w	sp!, {r4, r5, r6, r7, r8, r9, pc}
 800b138:	08016c58 	.word	0x08016c58
 800b13c:	20000040 	.word	0x20000040
 800b140:	20000aea 	.word	0x20000aea
 800b144:	08016c54 	.word	0x08016c54
 800b148:	20000ae6 	.word	0x20000ae6
 800b14c:	20000280 	.word	0x20000280
 800b150:	20000035 	.word	0x20000035
 800b154:	00000000 	.word	0x00000000

0800b158 <si7021_read_temp>:
 800b158:	b507      	push	{r0, r1, r2, lr}
 800b15a:	f10d 0107 	add.w	r1, sp, #7
 800b15e:	f10d 0006 	add.w	r0, sp, #6
 800b162:	f7ff ff9b 	bl	800b09c <si7021_read_raw_temp>
 800b166:	4b18      	ldr	r3, [pc, #96]	; (800b1c8 <si7021_read_temp+0x70>)
 800b168:	681b      	ldr	r3, [r3, #0]
 800b16a:	071b      	lsls	r3, r3, #28
 800b16c:	d122      	bne.n	800b1b4 <si7021_read_temp+0x5c>
 800b16e:	f89d 3006 	ldrb.w	r3, [sp, #6]
 800b172:	f89d 0007 	ldrb.w	r0, [sp, #7]
 800b176:	eb00 2003 	add.w	r0, r0, r3, lsl #8
 800b17a:	ee07 0a90 	vmov	s15, r0
 800b17e:	eef8 7ae7 	vcvt.f32.s32	s15, s15
 800b182:	ee17 0a90 	vmov	r0, s15
 800b186:	f7fd f9e7 	bl	8008558 <__aeabi_f2d>
 800b18a:	a30b      	add	r3, pc, #44	; (adr r3, 800b1b8 <si7021_read_temp+0x60>)
 800b18c:	e9d3 2300 	ldrd	r2, r3, [r3]
 800b190:	f7fd fa3a 	bl	8008608 <__aeabi_dmul>
 800b194:	4b0d      	ldr	r3, [pc, #52]	; (800b1cc <si7021_read_temp+0x74>)
 800b196:	2200      	movs	r2, #0
 800b198:	f7fd fa36 	bl	8008608 <__aeabi_dmul>
 800b19c:	a308      	add	r3, pc, #32	; (adr r3, 800b1c0 <si7021_read_temp+0x68>)
 800b19e:	e9d3 2300 	ldrd	r2, r3, [r3]
 800b1a2:	f7fd f879 	bl	8008298 <__aeabi_dsub>
 800b1a6:	f7fd fd07 	bl	8008bb8 <__aeabi_d2f>
 800b1aa:	4b09      	ldr	r3, [pc, #36]	; (800b1d0 <si7021_read_temp+0x78>)
 800b1ac:	6058      	str	r0, [r3, #4]
 800b1ae:	b003      	add	sp, #12
 800b1b0:	f85d fb04 	ldr.w	pc, [sp], #4
 800b1b4:	2000      	movs	r0, #0
 800b1b6:	e7f8      	b.n	800b1aa <si7021_read_temp+0x52>
 800b1b8:	3d70a3d7 	.word	0x3d70a3d7
 800b1bc:	4065f70a 	.word	0x4065f70a
 800b1c0:	cccccccd 	.word	0xcccccccd
 800b1c4:	40476ccc 	.word	0x40476ccc
 800b1c8:	20000280 	.word	0x20000280
 800b1cc:	3ef00000 	.word	0x3ef00000
 800b1d0:	20000ade 	.word	0x20000ade

0800b1d4 <si7021_read_humi>:
 800b1d4:	b507      	push	{r0, r1, r2, lr}
 800b1d6:	f10d 0107 	add.w	r1, sp, #7
 800b1da:	f10d 0006 	add.w	r0, sp, #6
 800b1de:	f7ff ff03 	bl	800afe8 <si7021_read_raw_rh>
 800b1e2:	4b13      	ldr	r3, [pc, #76]	; (800b230 <si7021_read_humi+0x5c>)
 800b1e4:	681b      	ldr	r3, [r3, #0]
 800b1e6:	071b      	lsls	r3, r3, #28
 800b1e8:	d120      	bne.n	800b22c <si7021_read_humi+0x58>
 800b1ea:	f89d 3006 	ldrb.w	r3, [sp, #6]
 800b1ee:	f89d 0007 	ldrb.w	r0, [sp, #7]
 800b1f2:	eb00 2003 	add.w	r0, r0, r3, lsl #8
 800b1f6:	ee07 0a90 	vmov	s15, r0
 800b1fa:	eef8 7ae7 	vcvt.f32.s32	s15, s15
 800b1fe:	ee17 0a90 	vmov	r0, s15
 800b202:	f7fd f9a9 	bl	8008558 <__aeabi_f2d>
 800b206:	4b0b      	ldr	r3, [pc, #44]	; (800b234 <si7021_read_humi+0x60>)
 800b208:	2200      	movs	r2, #0
 800b20a:	f7fd f9fd 	bl	8008608 <__aeabi_dmul>
 800b20e:	4b0a      	ldr	r3, [pc, #40]	; (800b238 <si7021_read_humi+0x64>)
 800b210:	2200      	movs	r2, #0
 800b212:	f7fd f9f9 	bl	8008608 <__aeabi_dmul>
 800b216:	4b09      	ldr	r3, [pc, #36]	; (800b23c <si7021_read_humi+0x68>)
 800b218:	2200      	movs	r2, #0
 800b21a:	f7fd f83d 	bl	8008298 <__aeabi_dsub>
 800b21e:	f7fd fccb 	bl	8008bb8 <__aeabi_d2f>
 800b222:	4b07      	ldr	r3, [pc, #28]	; (800b240 <si7021_read_humi+0x6c>)
 800b224:	6018      	str	r0, [r3, #0]
 800b226:	b003      	add	sp, #12
 800b228:	f85d fb04 	ldr.w	pc, [sp], #4
 800b22c:	2000      	movs	r0, #0
 800b22e:	e7f8      	b.n	800b222 <si7021_read_humi+0x4e>
 800b230:	20000280 	.word	0x20000280
 800b234:	405f4000 	.word	0x405f4000
 800b238:	3ef00000 	.word	0x3ef00000
 800b23c:	40180000 	.word	0x40180000
 800b240:	20000ade 	.word	0x20000ade

0800b244 <HAL_MspInit>:
 800b244:	b507      	push	{r0, r1, r2, lr}
 800b246:	4b10      	ldr	r3, [pc, #64]	; (800b288 <HAL_MspInit+0x44>)
 800b248:	2200      	movs	r2, #0
 800b24a:	9200      	str	r2, [sp, #0]
 800b24c:	6c59      	ldr	r1, [r3, #68]	; 0x44
 800b24e:	f441 4180 	orr.w	r1, r1, #16384	; 0x4000
 800b252:	6459      	str	r1, [r3, #68]	; 0x44
 800b254:	6c59      	ldr	r1, [r3, #68]	; 0x44
 800b256:	f401 4180 	and.w	r1, r1, #16384	; 0x4000
 800b25a:	9100      	str	r1, [sp, #0]
 800b25c:	9900      	ldr	r1, [sp, #0]
 800b25e:	9201      	str	r2, [sp, #4]
 800b260:	6c19      	ldr	r1, [r3, #64]	; 0x40
 800b262:	f041 5180 	orr.w	r1, r1, #268435456	; 0x10000000
 800b266:	6419      	str	r1, [r3, #64]	; 0x40
 800b268:	6c1b      	ldr	r3, [r3, #64]	; 0x40
 800b26a:	f003 5380 	and.w	r3, r3, #268435456	; 0x10000000
 800b26e:	9301      	str	r3, [sp, #4]
 800b270:	4611      	mov	r1, r2
 800b272:	2004      	movs	r0, #4
 800b274:	9b01      	ldr	r3, [sp, #4]
 800b276:	f000 fd7d 	bl	800bd74 <HAL_NVIC_SetPriority>
 800b27a:	2004      	movs	r0, #4
 800b27c:	b003      	add	sp, #12
 800b27e:	f85d eb04 	ldr.w	lr, [sp], #4
 800b282:	f000 bda9 	b.w	800bdd8 <HAL_NVIC_EnableIRQ>
 800b286:	bf00      	nop
 800b288:	40023800 	.word	0x40023800

0800b28c <HAL_ADC_MspInit>:
 800b28c:	b510      	push	{r4, lr}
 800b28e:	4604      	mov	r4, r0
 800b290:	b088      	sub	sp, #32
 800b292:	2214      	movs	r2, #20
 800b294:	2100      	movs	r1, #0
 800b296:	a803      	add	r0, sp, #12
 800b298:	f003 fde4 	bl	800ee64 <memset>
 800b29c:	6822      	ldr	r2, [r4, #0]
 800b29e:	4b16      	ldr	r3, [pc, #88]	; (800b2f8 <HAL_ADC_MspInit+0x6c>)
 800b2a0:	429a      	cmp	r2, r3
 800b2a2:	d127      	bne.n	800b2f4 <HAL_ADC_MspInit+0x68>
 800b2a4:	f503 338c 	add.w	r3, r3, #71680	; 0x11800
 800b2a8:	2400      	movs	r4, #0
 800b2aa:	9401      	str	r4, [sp, #4]
 800b2ac:	6c5a      	ldr	r2, [r3, #68]	; 0x44
 800b2ae:	4813      	ldr	r0, [pc, #76]	; (800b2fc <HAL_ADC_MspInit+0x70>)
 800b2b0:	f442 7280 	orr.w	r2, r2, #256	; 0x100
 800b2b4:	645a      	str	r2, [r3, #68]	; 0x44
 800b2b6:	6c5a      	ldr	r2, [r3, #68]	; 0x44
 800b2b8:	f402 7280 	and.w	r2, r2, #256	; 0x100
 800b2bc:	9201      	str	r2, [sp, #4]
 800b2be:	9a01      	ldr	r2, [sp, #4]
 800b2c0:	9402      	str	r4, [sp, #8]
 800b2c2:	6b1a      	ldr	r2, [r3, #48]	; 0x30
 800b2c4:	f042 0201 	orr.w	r2, r2, #1
 800b2c8:	631a      	str	r2, [r3, #48]	; 0x30
 800b2ca:	6b1b      	ldr	r3, [r3, #48]	; 0x30
 800b2cc:	9405      	str	r4, [sp, #20]
 800b2ce:	f003 0301 	and.w	r3, r3, #1
 800b2d2:	9302      	str	r3, [sp, #8]
 800b2d4:	2202      	movs	r2, #2
 800b2d6:	9b02      	ldr	r3, [sp, #8]
 800b2d8:	a903      	add	r1, sp, #12
 800b2da:	2303      	movs	r3, #3
 800b2dc:	e9cd 2303 	strd	r2, r3, [sp, #12]
 800b2e0:	f001 f8bc 	bl	800c45c <HAL_GPIO_Init>
 800b2e4:	2012      	movs	r0, #18
 800b2e6:	4622      	mov	r2, r4
 800b2e8:	2101      	movs	r1, #1
 800b2ea:	f000 fd43 	bl	800bd74 <HAL_NVIC_SetPriority>
 800b2ee:	2012      	movs	r0, #18
 800b2f0:	f000 fd72 	bl	800bdd8 <HAL_NVIC_EnableIRQ>
 800b2f4:	b008      	add	sp, #32
 800b2f6:	bd10      	pop	{r4, pc}
 800b2f8:	40012000 	.word	0x40012000
 800b2fc:	40020000 	.word	0x40020000

0800b300 <HAL_I2C_MspInit>:
 800b300:	b570      	push	{r4, r5, r6, lr}
 800b302:	4606      	mov	r6, r0
 800b304:	b088      	sub	sp, #32
 800b306:	2214      	movs	r2, #20
 800b308:	2100      	movs	r1, #0
 800b30a:	a803      	add	r0, sp, #12
 800b30c:	f003 fdaa 	bl	800ee64 <memset>
 800b310:	6832      	ldr	r2, [r6, #0]
 800b312:	4b37      	ldr	r3, [pc, #220]	; (800b3f0 <HAL_I2C_MspInit+0xf0>)
 800b314:	429a      	cmp	r2, r3
 800b316:	d168      	bne.n	800b3ea <HAL_I2C_MspInit+0xea>
 800b318:	4c36      	ldr	r4, [pc, #216]	; (800b3f4 <HAL_I2C_MspInit+0xf4>)
 800b31a:	2500      	movs	r5, #0
 800b31c:	9501      	str	r5, [sp, #4]
 800b31e:	6b23      	ldr	r3, [r4, #48]	; 0x30
 800b320:	f043 0302 	orr.w	r3, r3, #2
 800b324:	6323      	str	r3, [r4, #48]	; 0x30
 800b326:	6b23      	ldr	r3, [r4, #48]	; 0x30
 800b328:	f003 0302 	and.w	r3, r3, #2
 800b32c:	9301      	str	r3, [sp, #4]
 800b32e:	9b01      	ldr	r3, [sp, #4]
 800b330:	21c0      	movs	r1, #192	; 0xc0
 800b332:	2312      	movs	r3, #18
 800b334:	e9cd 1303 	strd	r1, r3, [sp, #12]
 800b338:	2001      	movs	r0, #1
 800b33a:	2303      	movs	r3, #3
 800b33c:	e9cd 0305 	strd	r0, r3, [sp, #20]
 800b340:	a903      	add	r1, sp, #12
 800b342:	2304      	movs	r3, #4
 800b344:	482c      	ldr	r0, [pc, #176]	; (800b3f8 <HAL_I2C_MspInit+0xf8>)
 800b346:	9307      	str	r3, [sp, #28]
 800b348:	f001 f888 	bl	800c45c <HAL_GPIO_Init>
 800b34c:	9502      	str	r5, [sp, #8]
 800b34e:	6c23      	ldr	r3, [r4, #64]	; 0x40
 800b350:	f8df c0b4 	ldr.w	ip, [pc, #180]	; 800b408 <HAL_I2C_MspInit+0x108>
 800b354:	f443 1300 	orr.w	r3, r3, #2097152	; 0x200000
 800b358:	6423      	str	r3, [r4, #64]	; 0x40
 800b35a:	6c23      	ldr	r3, [r4, #64]	; 0x40
 800b35c:	4c27      	ldr	r4, [pc, #156]	; (800b3fc <HAL_I2C_MspInit+0xfc>)
 800b35e:	f403 1300 	and.w	r3, r3, #2097152	; 0x200000
 800b362:	9302      	str	r3, [sp, #8]
 800b364:	9b02      	ldr	r3, [sp, #8]
 800b366:	f04f 7300 	mov.w	r3, #33554432	; 0x2000000
 800b36a:	e9c4 c300 	strd	ip, r3, [r4]
 800b36e:	f44f 6380 	mov.w	r3, #1024	; 0x400
 800b372:	e9c4 3504 	strd	r3, r5, [r4, #16]
 800b376:	4620      	mov	r0, r4
 800b378:	f44f 3300 	mov.w	r3, #131072	; 0x20000
 800b37c:	e9c4 5502 	strd	r5, r5, [r4, #8]
 800b380:	e9c4 5506 	strd	r5, r5, [r4, #24]
 800b384:	e9c4 3508 	strd	r3, r5, [r4, #32]
 800b388:	f000 fd74 	bl	800be74 <HAL_DMA_Init>
 800b38c:	b108      	cbz	r0, 800b392 <HAL_I2C_MspInit+0x92>
 800b38e:	f7ff fc91 	bl	800acb4 <Error_Handler>
 800b392:	4a1b      	ldr	r2, [pc, #108]	; (800b400 <HAL_I2C_MspInit+0x100>)
 800b394:	63b4      	str	r4, [r6, #56]	; 0x38
 800b396:	63a6      	str	r6, [r4, #56]	; 0x38
 800b398:	4c1a      	ldr	r4, [pc, #104]	; (800b404 <HAL_I2C_MspInit+0x104>)
 800b39a:	2300      	movs	r3, #0
 800b39c:	e9c4 2300 	strd	r2, r3, [r4]
 800b3a0:	2240      	movs	r2, #64	; 0x40
 800b3a2:	e9c4 2302 	strd	r2, r3, [r4, #8]
 800b3a6:	f44f 6280 	mov.w	r2, #1024	; 0x400
 800b3aa:	e9c4 2304 	strd	r2, r3, [r4, #16]
 800b3ae:	4620      	mov	r0, r4
 800b3b0:	f44f 3200 	mov.w	r2, #131072	; 0x20000
 800b3b4:	e9c4 3306 	strd	r3, r3, [r4, #24]
 800b3b8:	e9c4 2308 	strd	r2, r3, [r4, #32]
 800b3bc:	f000 fd5a 	bl	800be74 <HAL_DMA_Init>
 800b3c0:	b108      	cbz	r0, 800b3c6 <HAL_I2C_MspInit+0xc6>
 800b3c2:	f7ff fc77 	bl	800acb4 <Error_Handler>
 800b3c6:	2200      	movs	r2, #0
 800b3c8:	2101      	movs	r1, #1
 800b3ca:	6374      	str	r4, [r6, #52]	; 0x34
 800b3cc:	201f      	movs	r0, #31
 800b3ce:	63a6      	str	r6, [r4, #56]	; 0x38
 800b3d0:	f000 fcd0 	bl	800bd74 <HAL_NVIC_SetPriority>
 800b3d4:	201f      	movs	r0, #31
 800b3d6:	f000 fcff 	bl	800bdd8 <HAL_NVIC_EnableIRQ>
 800b3da:	2020      	movs	r0, #32
 800b3dc:	2200      	movs	r2, #0
 800b3de:	2101      	movs	r1, #1
 800b3e0:	f000 fcc8 	bl	800bd74 <HAL_NVIC_SetPriority>
 800b3e4:	2020      	movs	r0, #32
 800b3e6:	f000 fcf7 	bl	800bdd8 <HAL_NVIC_EnableIRQ>
 800b3ea:	b008      	add	sp, #32
 800b3ec:	bd70      	pop	{r4, r5, r6, pc}
 800b3ee:	bf00      	nop
 800b3f0:	40005400 	.word	0x40005400
 800b3f4:	40023800 	.word	0x40023800
 800b3f8:	40020400 	.word	0x40020400
 800b3fc:	20001270 	.word	0x20001270
 800b400:	40026028 	.word	0x40026028
 800b404:	20000fc8 	.word	0x20000fc8
 800b408:	40026010 	.word	0x40026010

0800b40c <HAL_SPI_MspInit>:
 800b40c:	b570      	push	{r4, r5, r6, lr}
 800b40e:	4606      	mov	r6, r0
 800b410:	b088      	sub	sp, #32
 800b412:	2214      	movs	r2, #20
 800b414:	2100      	movs	r1, #0
 800b416:	a803      	add	r0, sp, #12
 800b418:	f003 fd24 	bl	800ee64 <memset>
 800b41c:	6832      	ldr	r2, [r6, #0]
 800b41e:	4b25      	ldr	r3, [pc, #148]	; (800b4b4 <HAL_SPI_MspInit+0xa8>)
 800b420:	429a      	cmp	r2, r3
 800b422:	d145      	bne.n	800b4b0 <HAL_SPI_MspInit+0xa4>
 800b424:	2500      	movs	r5, #0
 800b426:	f503 3300 	add.w	r3, r3, #131072	; 0x20000
 800b42a:	9501      	str	r5, [sp, #4]
 800b42c:	6c1a      	ldr	r2, [r3, #64]	; 0x40
 800b42e:	4822      	ldr	r0, [pc, #136]	; (800b4b8 <HAL_SPI_MspInit+0xac>)
 800b430:	4c22      	ldr	r4, [pc, #136]	; (800b4bc <HAL_SPI_MspInit+0xb0>)
 800b432:	f442 4280 	orr.w	r2, r2, #16384	; 0x4000
 800b436:	641a      	str	r2, [r3, #64]	; 0x40
 800b438:	6c1a      	ldr	r2, [r3, #64]	; 0x40
 800b43a:	f402 4280 	and.w	r2, r2, #16384	; 0x4000
 800b43e:	9201      	str	r2, [sp, #4]
 800b440:	9a01      	ldr	r2, [sp, #4]
 800b442:	9502      	str	r5, [sp, #8]
 800b444:	6b1a      	ldr	r2, [r3, #48]	; 0x30
 800b446:	f042 0202 	orr.w	r2, r2, #2
 800b44a:	631a      	str	r2, [r3, #48]	; 0x30
 800b44c:	6b1b      	ldr	r3, [r3, #48]	; 0x30
 800b44e:	9505      	str	r5, [sp, #20]
 800b450:	f003 0302 	and.w	r3, r3, #2
 800b454:	9302      	str	r3, [sp, #8]
 800b456:	9b02      	ldr	r3, [sp, #8]
 800b458:	f44f 4220 	mov.w	r2, #40960	; 0xa000
 800b45c:	2302      	movs	r3, #2
 800b45e:	e9cd 2303 	strd	r2, r3, [sp, #12]
 800b462:	2103      	movs	r1, #3
 800b464:	2305      	movs	r3, #5
 800b466:	e9cd 1306 	strd	r1, r3, [sp, #24]
 800b46a:	a903      	add	r1, sp, #12
 800b46c:	f000 fff6 	bl	800c45c <HAL_GPIO_Init>
 800b470:	4b13      	ldr	r3, [pc, #76]	; (800b4c0 <HAL_SPI_MspInit+0xb4>)
 800b472:	e9c4 3500 	strd	r3, r5, [r4]
 800b476:	2340      	movs	r3, #64	; 0x40
 800b478:	e9c4 3502 	strd	r3, r5, [r4, #8]
 800b47c:	f44f 6380 	mov.w	r3, #1024	; 0x400
 800b480:	e9c4 3504 	strd	r3, r5, [r4, #16]
 800b484:	4620      	mov	r0, r4
 800b486:	f44f 3340 	mov.w	r3, #196608	; 0x30000
 800b48a:	e9c4 5506 	strd	r5, r5, [r4, #24]
 800b48e:	e9c4 3508 	strd	r3, r5, [r4, #32]
 800b492:	f000 fcef 	bl	800be74 <HAL_DMA_Init>
 800b496:	b108      	cbz	r0, 800b49c <HAL_SPI_MspInit+0x90>
 800b498:	f7ff fc0c 	bl	800acb4 <Error_Handler>
 800b49c:	2024      	movs	r0, #36	; 0x24
 800b49e:	64b4      	str	r4, [r6, #72]	; 0x48
 800b4a0:	2200      	movs	r2, #0
 800b4a2:	2105      	movs	r1, #5
 800b4a4:	63a6      	str	r6, [r4, #56]	; 0x38
 800b4a6:	f000 fc65 	bl	800bd74 <HAL_NVIC_SetPriority>
 800b4aa:	2024      	movs	r0, #36	; 0x24
 800b4ac:	f000 fc94 	bl	800bdd8 <HAL_NVIC_EnableIRQ>
 800b4b0:	b008      	add	sp, #32
 800b4b2:	bd70      	pop	{r4, r5, r6, pc}
 800b4b4:	40003800 	.word	0x40003800
 800b4b8:	40020400 	.word	0x40020400
 800b4bc:	20001414 	.word	0x20001414
 800b4c0:	40026070 	.word	0x40026070

0800b4c4 <HAL_TIM_Base_MspInit>:
 800b4c4:	b507      	push	{r0, r1, r2, lr}
 800b4c6:	4b0f      	ldr	r3, [pc, #60]	; (800b504 <HAL_TIM_Base_MspInit+0x40>)
 800b4c8:	6802      	ldr	r2, [r0, #0]
 800b4ca:	429a      	cmp	r2, r3
 800b4cc:	d116      	bne.n	800b4fc <HAL_TIM_Base_MspInit+0x38>
 800b4ce:	2200      	movs	r2, #0
 800b4d0:	f503 330d 	add.w	r3, r3, #144384	; 0x23400
 800b4d4:	9201      	str	r2, [sp, #4]
 800b4d6:	6c19      	ldr	r1, [r3, #64]	; 0x40
 800b4d8:	f041 0102 	orr.w	r1, r1, #2
 800b4dc:	6419      	str	r1, [r3, #64]	; 0x40
 800b4de:	6c1b      	ldr	r3, [r3, #64]	; 0x40
 800b4e0:	f003 0302 	and.w	r3, r3, #2
 800b4e4:	9301      	str	r3, [sp, #4]
 800b4e6:	2102      	movs	r1, #2
 800b4e8:	201d      	movs	r0, #29
 800b4ea:	9b01      	ldr	r3, [sp, #4]
 800b4ec:	f000 fc42 	bl	800bd74 <HAL_NVIC_SetPriority>
 800b4f0:	201d      	movs	r0, #29
 800b4f2:	b003      	add	sp, #12
 800b4f4:	f85d eb04 	ldr.w	lr, [sp], #4
 800b4f8:	f000 bc6e 	b.w	800bdd8 <HAL_NVIC_EnableIRQ>
 800b4fc:	b003      	add	sp, #12
 800b4fe:	f85d fb04 	ldr.w	pc, [sp], #4
 800b502:	bf00      	nop
 800b504:	40000400 	.word	0x40000400

0800b508 <HAL_UART_MspInit>:
 800b508:	b5f0      	push	{r4, r5, r6, r7, lr}
 800b50a:	4606      	mov	r6, r0
 800b50c:	b089      	sub	sp, #36	; 0x24
 800b50e:	2214      	movs	r2, #20
 800b510:	2100      	movs	r1, #0
 800b512:	a803      	add	r0, sp, #12
 800b514:	f003 fca6 	bl	800ee64 <memset>
 800b518:	6832      	ldr	r2, [r6, #0]
 800b51a:	4b39      	ldr	r3, [pc, #228]	; (800b600 <HAL_UART_MspInit+0xf8>)
 800b51c:	429a      	cmp	r2, r3
 800b51e:	d16c      	bne.n	800b5fa <HAL_UART_MspInit+0xf2>
 800b520:	2500      	movs	r5, #0
 800b522:	f503 3394 	add.w	r3, r3, #75776	; 0x12800
 800b526:	9501      	str	r5, [sp, #4]
 800b528:	6c5a      	ldr	r2, [r3, #68]	; 0x44
 800b52a:	4c36      	ldr	r4, [pc, #216]	; (800b604 <HAL_UART_MspInit+0xfc>)
 800b52c:	f042 0210 	orr.w	r2, r2, #16
 800b530:	645a      	str	r2, [r3, #68]	; 0x44
 800b532:	6c5a      	ldr	r2, [r3, #68]	; 0x44
 800b534:	f002 0210 	and.w	r2, r2, #16
 800b538:	9201      	str	r2, [sp, #4]
 800b53a:	9a01      	ldr	r2, [sp, #4]
 800b53c:	9502      	str	r5, [sp, #8]
 800b53e:	6b1a      	ldr	r2, [r3, #48]	; 0x30
 800b540:	f042 0201 	orr.w	r2, r2, #1
 800b544:	631a      	str	r2, [r3, #48]	; 0x30
 800b546:	6b1b      	ldr	r3, [r3, #48]	; 0x30
 800b548:	9505      	str	r5, [sp, #20]
 800b54a:	f003 0301 	and.w	r3, r3, #1
 800b54e:	9302      	str	r3, [sp, #8]
 800b550:	9b02      	ldr	r3, [sp, #8]
 800b552:	f44f 60c0 	mov.w	r0, #1536	; 0x600
 800b556:	2302      	movs	r3, #2
 800b558:	e9cd 0303 	strd	r0, r3, [sp, #12]
 800b55c:	2703      	movs	r7, #3
 800b55e:	2307      	movs	r3, #7
 800b560:	4829      	ldr	r0, [pc, #164]	; (800b608 <HAL_UART_MspInit+0x100>)
 800b562:	a903      	add	r1, sp, #12
 800b564:	e9cd 7306 	strd	r7, r3, [sp, #24]
 800b568:	f000 ff78 	bl	800c45c <HAL_GPIO_Init>
 800b56c:	f8df c0a4 	ldr.w	ip, [pc, #164]	; 800b614 <HAL_UART_MspInit+0x10c>
 800b570:	6325      	str	r5, [r4, #48]	; 0x30
 800b572:	f04f 6300 	mov.w	r3, #134217728	; 0x8000000
 800b576:	e9c4 c300 	strd	ip, r3, [r4]
 800b57a:	2340      	movs	r3, #64	; 0x40
 800b57c:	e9c4 3502 	strd	r3, r5, [r4, #8]
 800b580:	f44f 6380 	mov.w	r3, #1024	; 0x400
 800b584:	e9c4 3504 	strd	r3, r5, [r4, #16]
 800b588:	f44f 3e80 	mov.w	lr, #65536	; 0x10000
 800b58c:	2304      	movs	r3, #4
 800b58e:	4620      	mov	r0, r4
 800b590:	e9c4 5506 	strd	r5, r5, [r4, #24]
 800b594:	e9c4 e308 	strd	lr, r3, [r4, #32]
 800b598:	e9c4 750a 	strd	r7, r5, [r4, #40]	; 0x28
 800b59c:	f000 fc6a 	bl	800be74 <HAL_DMA_Init>
 800b5a0:	b108      	cbz	r0, 800b5a6 <HAL_UART_MspInit+0x9e>
 800b5a2:	f7ff fb87 	bl	800acb4 <Error_Handler>
 800b5a6:	4a19      	ldr	r2, [pc, #100]	; (800b60c <HAL_UART_MspInit+0x104>)
 800b5a8:	6374      	str	r4, [r6, #52]	; 0x34
 800b5aa:	63a6      	str	r6, [r4, #56]	; 0x38
 800b5ac:	4c18      	ldr	r4, [pc, #96]	; (800b610 <HAL_UART_MspInit+0x108>)
 800b5ae:	f04f 6300 	mov.w	r3, #134217728	; 0x8000000
 800b5b2:	e9c4 2300 	strd	r2, r3, [r4]
 800b5b6:	2300      	movs	r3, #0
 800b5b8:	f44f 6280 	mov.w	r2, #1024	; 0x400
 800b5bc:	e9c4 2304 	strd	r2, r3, [r4, #16]
 800b5c0:	f44f 3180 	mov.w	r1, #65536	; 0x10000
 800b5c4:	2204      	movs	r2, #4
 800b5c6:	e9c4 1208 	strd	r1, r2, [r4, #32]
 800b5ca:	4620      	mov	r0, r4
 800b5cc:	2203      	movs	r2, #3
 800b5ce:	e9c4 3302 	strd	r3, r3, [r4, #8]
 800b5d2:	e9c4 3306 	strd	r3, r3, [r4, #24]
 800b5d6:	e9c4 230a 	strd	r2, r3, [r4, #40]	; 0x28
 800b5da:	6323      	str	r3, [r4, #48]	; 0x30
 800b5dc:	f000 fc4a 	bl	800be74 <HAL_DMA_Init>
 800b5e0:	b108      	cbz	r0, 800b5e6 <HAL_UART_MspInit+0xde>
 800b5e2:	f7ff fb67 	bl	800acb4 <Error_Handler>
 800b5e6:	63b4      	str	r4, [r6, #56]	; 0x38
 800b5e8:	2025      	movs	r0, #37	; 0x25
 800b5ea:	2200      	movs	r2, #0
 800b5ec:	2103      	movs	r1, #3
 800b5ee:	63a6      	str	r6, [r4, #56]	; 0x38
 800b5f0:	f000 fbc0 	bl	800bd74 <HAL_NVIC_SetPriority>
 800b5f4:	2025      	movs	r0, #37	; 0x25
 800b5f6:	f000 fbef 	bl	800bdd8 <HAL_NVIC_EnableIRQ>
 800b5fa:	b009      	add	sp, #36	; 0x24
 800b5fc:	bdf0      	pop	{r4, r5, r6, r7, pc}
 800b5fe:	bf00      	nop
 800b600:	40011000 	.word	0x40011000
 800b604:	200010c4 	.word	0x200010c4
 800b608:	40020000 	.word	0x40020000
 800b60c:	40026440 	.word	0x40026440
 800b610:	2000116c 	.word	0x2000116c
 800b614:	400264b8 	.word	0x400264b8

0800b618 <NMI_Handler>:
 800b618:	e7fe      	b.n	800b618 <NMI_Handler>

0800b61a <HardFault_Handler>:
 800b61a:	e7fe      	b.n	800b61a <HardFault_Handler>

0800b61c <MemManage_Handler>:
 800b61c:	e7fe      	b.n	800b61c <MemManage_Handler>

0800b61e <BusFault_Handler>:
 800b61e:	e7fe      	b.n	800b61e <BusFault_Handler>

0800b620 <UsageFault_Handler>:
 800b620:	e7fe      	b.n	800b620 <UsageFault_Handler>

0800b622 <SVC_Handler>:
 800b622:	4770      	bx	lr

0800b624 <DebugMon_Handler>:
 800b624:	4770      	bx	lr

0800b626 <PendSV_Handler>:
 800b626:	4770      	bx	lr

0800b628 <SysTick_Handler>:
 800b628:	f000 b91a 	b.w	800b860 <HAL_IncTick>

0800b62c <FLASH_IRQHandler>:
 800b62c:	f000 be62 	b.w	800c2f4 <HAL_FLASH_IRQHandler>

0800b630 <EXTI2_IRQHandler>:
 800b630:	2004      	movs	r0, #4
 800b632:	f000 bfef 	b.w	800c614 <HAL_GPIO_EXTI_IRQHandler>
	...

0800b638 <DMA1_Stream0_IRQHandler>:
 800b638:	4801      	ldr	r0, [pc, #4]	; (800b640 <DMA1_Stream0_IRQHandler+0x8>)
 800b63a:	f000 bd2b 	b.w	800c094 <HAL_DMA_IRQHandler>
 800b63e:	bf00      	nop
 800b640:	20001270 	.word	0x20001270

0800b644 <DMA1_Stream1_IRQHandler>:
 800b644:	4801      	ldr	r0, [pc, #4]	; (800b64c <DMA1_Stream1_IRQHandler+0x8>)
 800b646:	f000 bd25 	b.w	800c094 <HAL_DMA_IRQHandler>
 800b64a:	bf00      	nop
 800b64c:	20000fc8 	.word	0x20000fc8

0800b650 <DMA1_Stream4_IRQHandler>:
 800b650:	4801      	ldr	r0, [pc, #4]	; (800b658 <DMA1_Stream4_IRQHandler+0x8>)
 800b652:	f000 bd1f 	b.w	800c094 <HAL_DMA_IRQHandler>
 800b656:	bf00      	nop
 800b658:	20001414 	.word	0x20001414

0800b65c <DMA1_Stream6_IRQHandler>:
 800b65c:	4770      	bx	lr
	...

0800b660 <ADC_IRQHandler>:
 800b660:	4801      	ldr	r0, [pc, #4]	; (800b668 <ADC_IRQHandler+0x8>)
 800b662:	f000 ba43 	b.w	800baec <HAL_ADC_IRQHandler>
 800b666:	bf00      	nop
 800b668:	20001124 	.word	0x20001124

0800b66c <TIM3_IRQHandler>:
 800b66c:	4801      	ldr	r0, [pc, #4]	; (800b674 <TIM3_IRQHandler+0x8>)
 800b66e:	f002 be89 	b.w	800e384 <HAL_TIM_IRQHandler>
 800b672:	bf00      	nop
 800b674:	2000107c 	.word	0x2000107c

0800b678 <I2C1_EV_IRQHandler>:
 800b678:	4801      	ldr	r0, [pc, #4]	; (800b680 <I2C1_EV_IRQHandler+0x8>)
 800b67a:	f001 bcd1 	b.w	800d020 <HAL_I2C_EV_IRQHandler>
 800b67e:	bf00      	nop
 800b680:	20001028 	.word	0x20001028

0800b684 <I2C1_ER_IRQHandler>:
 800b684:	4801      	ldr	r0, [pc, #4]	; (800b68c <I2C1_ER_IRQHandler+0x8>)
 800b686:	f002 b8ff 	b.w	800d888 <HAL_I2C_ER_IRQHandler>
 800b68a:	bf00      	nop
 800b68c:	20001028 	.word	0x20001028

0800b690 <SPI2_IRQHandler>:
 800b690:	4801      	ldr	r0, [pc, #4]	; (800b698 <SPI2_IRQHandler+0x8>)
 800b692:	f002 bdb3 	b.w	800e1fc <HAL_SPI_IRQHandler>
 800b696:	bf00      	nop
 800b698:	20000f10 	.word	0x20000f10

0800b69c <USART1_IRQHandler>:
 800b69c:	4801      	ldr	r0, [pc, #4]	; (800b6a4 <USART1_IRQHandler+0x8>)
 800b69e:	f003 ba25 	b.w	800eaec <HAL_UART_IRQHandler>
 800b6a2:	bf00      	nop
 800b6a4:	2000122c 	.word	0x2000122c

0800b6a8 <USART2_IRQHandler>:
 800b6a8:	4770      	bx	lr
	...

0800b6ac <DMA2_Stream0_IRQHandler>:
 800b6ac:	4801      	ldr	r0, [pc, #4]	; (800b6b4 <DMA2_Stream0_IRQHandler+0x8>)
 800b6ae:	f000 bcf1 	b.w	800c094 <HAL_DMA_IRQHandler>
 800b6b2:	bf00      	nop
 800b6b4:	20000f68 	.word	0x20000f68

0800b6b8 <DMA2_Stream2_IRQHandler>:
 800b6b8:	4801      	ldr	r0, [pc, #4]	; (800b6c0 <DMA2_Stream2_IRQHandler+0x8>)
 800b6ba:	f000 bceb 	b.w	800c094 <HAL_DMA_IRQHandler>
 800b6be:	bf00      	nop
 800b6c0:	2000116c 	.word	0x2000116c

0800b6c4 <DMA2_Stream7_IRQHandler>:
 800b6c4:	4801      	ldr	r0, [pc, #4]	; (800b6cc <DMA2_Stream7_IRQHandler+0x8>)
 800b6c6:	f000 bce5 	b.w	800c094 <HAL_DMA_IRQHandler>
 800b6ca:	bf00      	nop
 800b6cc:	200010c4 	.word	0x200010c4

0800b6d0 <_getpid>:
 800b6d0:	2001      	movs	r0, #1
 800b6d2:	4770      	bx	lr

0800b6d4 <_kill>:
 800b6d4:	b508      	push	{r3, lr}
 800b6d6:	f003 fb8d 	bl	800edf4 <__errno>
 800b6da:	2316      	movs	r3, #22
 800b6dc:	6003      	str	r3, [r0, #0]
 800b6de:	f04f 30ff 	mov.w	r0, #4294967295	; 0xffffffff
 800b6e2:	bd08      	pop	{r3, pc}

0800b6e4 <_exit>:
 800b6e4:	b508      	push	{r3, lr}
 800b6e6:	f003 fb85 	bl	800edf4 <__errno>
 800b6ea:	2316      	movs	r3, #22
 800b6ec:	6003      	str	r3, [r0, #0]
 800b6ee:	e7fe      	b.n	800b6ee <_exit+0xa>

0800b6f0 <_read>:
 800b6f0:	b570      	push	{r4, r5, r6, lr}
 800b6f2:	460e      	mov	r6, r1
 800b6f4:	4614      	mov	r4, r2
 800b6f6:	2500      	movs	r5, #0
 800b6f8:	42a5      	cmp	r5, r4
 800b6fa:	db01      	blt.n	800b700 <_read+0x10>
 800b6fc:	4620      	mov	r0, r4
 800b6fe:	bd70      	pop	{r4, r5, r6, pc}
 800b700:	f3af 8000 	nop.w
 800b704:	5570      	strb	r0, [r6, r5]
 800b706:	3501      	adds	r5, #1
 800b708:	e7f6      	b.n	800b6f8 <_read+0x8>

0800b70a <_write>:
 800b70a:	b570      	push	{r4, r5, r6, lr}
 800b70c:	460e      	mov	r6, r1
 800b70e:	4614      	mov	r4, r2
 800b710:	2500      	movs	r5, #0
 800b712:	42a5      	cmp	r5, r4
 800b714:	db01      	blt.n	800b71a <_write+0x10>
 800b716:	4620      	mov	r0, r4
 800b718:	bd70      	pop	{r4, r5, r6, pc}
 800b71a:	5d70      	ldrb	r0, [r6, r5]
 800b71c:	f3af 8000 	nop.w
 800b720:	3501      	adds	r5, #1
 800b722:	e7f6      	b.n	800b712 <_write+0x8>

0800b724 <_close>:
 800b724:	f04f 30ff 	mov.w	r0, #4294967295	; 0xffffffff
 800b728:	4770      	bx	lr

0800b72a <_fstat>:
 800b72a:	f44f 5300 	mov.w	r3, #8192	; 0x2000
 800b72e:	604b      	str	r3, [r1, #4]
 800b730:	2000      	movs	r0, #0
 800b732:	4770      	bx	lr

0800b734 <_isatty>:
 800b734:	2001      	movs	r0, #1
 800b736:	4770      	bx	lr

0800b738 <_lseek>:
 800b738:	2000      	movs	r0, #0
 800b73a:	4770      	bx	lr

0800b73c <_sbrk>:
 800b73c:	4b0b      	ldr	r3, [pc, #44]	; (800b76c <_sbrk+0x30>)
 800b73e:	6819      	ldr	r1, [r3, #0]
 800b740:	b510      	push	{r4, lr}
 800b742:	4602      	mov	r2, r0
 800b744:	b909      	cbnz	r1, 800b74a <_sbrk+0xe>
 800b746:	490a      	ldr	r1, [pc, #40]	; (800b770 <_sbrk+0x34>)
 800b748:	6019      	str	r1, [r3, #0]
 800b74a:	6818      	ldr	r0, [r3, #0]
 800b74c:	4909      	ldr	r1, [pc, #36]	; (800b774 <_sbrk+0x38>)
 800b74e:	4c0a      	ldr	r4, [pc, #40]	; (800b778 <_sbrk+0x3c>)
 800b750:	4402      	add	r2, r0
 800b752:	1b09      	subs	r1, r1, r4
 800b754:	428a      	cmp	r2, r1
 800b756:	d906      	bls.n	800b766 <_sbrk+0x2a>
 800b758:	f003 fb4c 	bl	800edf4 <__errno>
 800b75c:	230c      	movs	r3, #12
 800b75e:	6003      	str	r3, [r0, #0]
 800b760:	f04f 30ff 	mov.w	r0, #4294967295	; 0xffffffff
 800b764:	bd10      	pop	{r4, pc}
 800b766:	601a      	str	r2, [r3, #0]
 800b768:	e7fc      	b.n	800b764 <_sbrk+0x28>
 800b76a:	bf00      	nop
 800b76c:	20000af0 	.word	0x20000af0
 800b770:	200014a8 	.word	0x200014a8
 800b774:	20020000 	.word	0x20020000
 800b778:	00000800 	.word	0x00000800

0800b77c <SystemInit>:
 800b77c:	4a03      	ldr	r2, [pc, #12]	; (800b78c <SystemInit+0x10>)
 800b77e:	f8d2 3088 	ldr.w	r3, [r2, #136]	; 0x88
 800b782:	f443 0370 	orr.w	r3, r3, #15728640	; 0xf00000
 800b786:	f8c2 3088 	str.w	r3, [r2, #136]	; 0x88
 800b78a:	4770      	bx	lr
 800b78c:	e000ed00 	.word	0xe000ed00

0800b790 <Reset_Handler>:
 800b790:	f8df d034 	ldr.w	sp, [pc, #52]	; 800b7c8 <LoopFillZerobss+0x12>
 800b794:	480d      	ldr	r0, [pc, #52]	; (800b7cc <LoopFillZerobss+0x16>)
 800b796:	490e      	ldr	r1, [pc, #56]	; (800b7d0 <LoopFillZerobss+0x1a>)
 800b798:	4a0e      	ldr	r2, [pc, #56]	; (800b7d4 <LoopFillZerobss+0x1e>)
 800b79a:	2300      	movs	r3, #0
 800b79c:	e002      	b.n	800b7a4 <LoopCopyDataInit>

0800b79e <CopyDataInit>:
 800b79e:	58d4      	ldr	r4, [r2, r3]
 800b7a0:	50c4      	str	r4, [r0, r3]
 800b7a2:	3304      	adds	r3, #4

0800b7a4 <LoopCopyDataInit>:
 800b7a4:	18c4      	adds	r4, r0, r3
 800b7a6:	428c      	cmp	r4, r1
 800b7a8:	d3f9      	bcc.n	800b79e <CopyDataInit>
 800b7aa:	4a0b      	ldr	r2, [pc, #44]	; (800b7d8 <LoopFillZerobss+0x22>)
 800b7ac:	4c0b      	ldr	r4, [pc, #44]	; (800b7dc <LoopFillZerobss+0x26>)
 800b7ae:	2300      	movs	r3, #0
 800b7b0:	e001      	b.n	800b7b6 <LoopFillZerobss>

0800b7b2 <FillZerobss>:
 800b7b2:	6013      	str	r3, [r2, #0]
 800b7b4:	3204      	adds	r2, #4

0800b7b6 <LoopFillZerobss>:
 800b7b6:	42a2      	cmp	r2, r4
 800b7b8:	d3fb      	bcc.n	800b7b2 <FillZerobss>
 800b7ba:	f7ff ffdf 	bl	800b77c <SystemInit>
 800b7be:	f003 fb1f 	bl	800ee00 <__libc_init_array>
 800b7c2:	f7fe faed 	bl	8009da0 <main>
 800b7c6:	4770      	bx	lr
 800b7c8:	20020000 	.word	0x20020000
 800b7cc:	20000000 	.word	0x20000000
 800b7d0:	20000240 	.word	0x20000240
 800b7d4:	080170c0 	.word	0x080170c0
 800b7d8:	20000240 	.word	0x20000240
 800b7dc:	200014a8 	.word	0x200014a8

0800b7e0 <DMA1_Stream2_IRQHandler>:
 800b7e0:	e7fe      	b.n	800b7e0 <DMA1_Stream2_IRQHandler>
	...

0800b7e4 <HAL_InitTick>:
 800b7e4:	b538      	push	{r3, r4, r5, lr}
 800b7e6:	4a0e      	ldr	r2, [pc, #56]	; (800b820 <HAL_InitTick+0x3c>)
 800b7e8:	4b0e      	ldr	r3, [pc, #56]	; (800b824 <HAL_InitTick+0x40>)
 800b7ea:	4605      	mov	r5, r0
 800b7ec:	7818      	ldrb	r0, [r3, #0]
 800b7ee:	f44f 737a 	mov.w	r3, #1000	; 0x3e8
 800b7f2:	fbb3 f3f0 	udiv	r3, r3, r0
 800b7f6:	6810      	ldr	r0, [r2, #0]
 800b7f8:	fbb0 f0f3 	udiv	r0, r0, r3
 800b7fc:	f000 fb0e 	bl	800be1c <HAL_SYSTICK_Config>
 800b800:	4604      	mov	r4, r0
 800b802:	b958      	cbnz	r0, 800b81c <HAL_InitTick+0x38>
 800b804:	2d0f      	cmp	r5, #15
 800b806:	d809      	bhi.n	800b81c <HAL_InitTick+0x38>
 800b808:	4602      	mov	r2, r0
 800b80a:	4629      	mov	r1, r5
 800b80c:	f04f 30ff 	mov.w	r0, #4294967295	; 0xffffffff
 800b810:	f000 fab0 	bl	800bd74 <HAL_NVIC_SetPriority>
 800b814:	4b04      	ldr	r3, [pc, #16]	; (800b828 <HAL_InitTick+0x44>)
 800b816:	4620      	mov	r0, r4
 800b818:	601d      	str	r5, [r3, #0]
 800b81a:	bd38      	pop	{r3, r4, r5, pc}
 800b81c:	2001      	movs	r0, #1
 800b81e:	e7fc      	b.n	800b81a <HAL_InitTick+0x36>
 800b820:	20000060 	.word	0x20000060
 800b824:	20000064 	.word	0x20000064
 800b828:	20000068 	.word	0x20000068

0800b82c <HAL_Init>:
 800b82c:	b508      	push	{r3, lr}
 800b82e:	4b0b      	ldr	r3, [pc, #44]	; (800b85c <HAL_Init+0x30>)
 800b830:	681a      	ldr	r2, [r3, #0]
 800b832:	f442 7200 	orr.w	r2, r2, #512	; 0x200
 800b836:	601a      	str	r2, [r3, #0]
 800b838:	681a      	ldr	r2, [r3, #0]
 800b83a:	f442 6280 	orr.w	r2, r2, #1024	; 0x400
 800b83e:	601a      	str	r2, [r3, #0]
 800b840:	681a      	ldr	r2, [r3, #0]
 800b842:	f442 7280 	orr.w	r2, r2, #256	; 0x100
 800b846:	601a      	str	r2, [r3, #0]
 800b848:	2003      	movs	r0, #3
 800b84a:	f000 fa81 	bl	800bd50 <HAL_NVIC_SetPriorityGrouping>
 800b84e:	200f      	movs	r0, #15
 800b850:	f7ff ffc8 	bl	800b7e4 <HAL_InitTick>
 800b854:	f7ff fcf6 	bl	800b244 <HAL_MspInit>
 800b858:	2000      	movs	r0, #0
 800b85a:	bd08      	pop	{r3, pc}
 800b85c:	40023c00 	.word	0x40023c00

0800b860 <HAL_IncTick>:
 800b860:	4a03      	ldr	r2, [pc, #12]	; (800b870 <HAL_IncTick+0x10>)
 800b862:	4b04      	ldr	r3, [pc, #16]	; (800b874 <HAL_IncTick+0x14>)
 800b864:	6811      	ldr	r1, [r2, #0]
 800b866:	781b      	ldrb	r3, [r3, #0]
 800b868:	440b      	add	r3, r1
 800b86a:	6013      	str	r3, [r2, #0]
 800b86c:	4770      	bx	lr
 800b86e:	bf00      	nop
 800b870:	20001474 	.word	0x20001474
 800b874:	20000064 	.word	0x20000064

0800b878 <HAL_GetTick>:
 800b878:	4b01      	ldr	r3, [pc, #4]	; (800b880 <HAL_GetTick+0x8>)
 800b87a:	6818      	ldr	r0, [r3, #0]
 800b87c:	4770      	bx	lr
 800b87e:	bf00      	nop
 800b880:	20001474 	.word	0x20001474

0800b884 <HAL_Delay>:
 800b884:	b538      	push	{r3, r4, r5, lr}
 800b886:	4604      	mov	r4, r0
 800b888:	f7ff fff6 	bl	800b878 <HAL_GetTick>
 800b88c:	1c63      	adds	r3, r4, #1
 800b88e:	bf1c      	itt	ne
 800b890:	4b05      	ldrne	r3, [pc, #20]	; (800b8a8 <HAL_Delay+0x24>)
 800b892:	781b      	ldrbne	r3, [r3, #0]
 800b894:	4605      	mov	r5, r0
 800b896:	bf18      	it	ne
 800b898:	18e4      	addne	r4, r4, r3
 800b89a:	f7ff ffed 	bl	800b878 <HAL_GetTick>
 800b89e:	1b43      	subs	r3, r0, r5
 800b8a0:	42a3      	cmp	r3, r4
 800b8a2:	d3fa      	bcc.n	800b89a <HAL_Delay+0x16>
 800b8a4:	bd38      	pop	{r3, r4, r5, pc}
 800b8a6:	bf00      	nop
 800b8a8:	20000064 	.word	0x20000064

0800b8ac <HAL_ADC_Init>:
 800b8ac:	b538      	push	{r3, r4, r5, lr}
 800b8ae:	4604      	mov	r4, r0
 800b8b0:	2800      	cmp	r0, #0
 800b8b2:	f000 809b 	beq.w	800b9ec <HAL_ADC_Init+0x140>
 800b8b6:	6c05      	ldr	r5, [r0, #64]	; 0x40
 800b8b8:	b925      	cbnz	r5, 800b8c4 <HAL_ADC_Init+0x18>
 800b8ba:	f7ff fce7 	bl	800b28c <HAL_ADC_MspInit>
 800b8be:	6465      	str	r5, [r4, #68]	; 0x44
 800b8c0:	f884 503c 	strb.w	r5, [r4, #60]	; 0x3c
 800b8c4:	6c23      	ldr	r3, [r4, #64]	; 0x40
 800b8c6:	06db      	lsls	r3, r3, #27
 800b8c8:	f100 808e 	bmi.w	800b9e8 <HAL_ADC_Init+0x13c>
 800b8cc:	6c23      	ldr	r3, [r4, #64]	; 0x40
 800b8ce:	f423 5388 	bic.w	r3, r3, #4352	; 0x1100
 800b8d2:	f023 0302 	bic.w	r3, r3, #2
 800b8d6:	f043 0302 	orr.w	r3, r3, #2
 800b8da:	6423      	str	r3, [r4, #64]	; 0x40
 800b8dc:	4b44      	ldr	r3, [pc, #272]	; (800b9f0 <HAL_ADC_Init+0x144>)
 800b8de:	685a      	ldr	r2, [r3, #4]
 800b8e0:	f422 3240 	bic.w	r2, r2, #196608	; 0x30000
 800b8e4:	605a      	str	r2, [r3, #4]
 800b8e6:	685a      	ldr	r2, [r3, #4]
 800b8e8:	6861      	ldr	r1, [r4, #4]
 800b8ea:	430a      	orrs	r2, r1
 800b8ec:	605a      	str	r2, [r3, #4]
 800b8ee:	6823      	ldr	r3, [r4, #0]
 800b8f0:	6921      	ldr	r1, [r4, #16]
 800b8f2:	685a      	ldr	r2, [r3, #4]
 800b8f4:	f422 7280 	bic.w	r2, r2, #256	; 0x100
 800b8f8:	605a      	str	r2, [r3, #4]
 800b8fa:	685a      	ldr	r2, [r3, #4]
 800b8fc:	ea42 2201 	orr.w	r2, r2, r1, lsl #8
 800b900:	605a      	str	r2, [r3, #4]
 800b902:	685a      	ldr	r2, [r3, #4]
 800b904:	68a1      	ldr	r1, [r4, #8]
 800b906:	f022 7240 	bic.w	r2, r2, #50331648	; 0x3000000
 800b90a:	605a      	str	r2, [r3, #4]
 800b90c:	685a      	ldr	r2, [r3, #4]
 800b90e:	430a      	orrs	r2, r1
 800b910:	605a      	str	r2, [r3, #4]
 800b912:	689a      	ldr	r2, [r3, #8]
 800b914:	68e1      	ldr	r1, [r4, #12]
 800b916:	f422 6200 	bic.w	r2, r2, #2048	; 0x800
 800b91a:	609a      	str	r2, [r3, #8]
 800b91c:	689a      	ldr	r2, [r3, #8]
 800b91e:	430a      	orrs	r2, r1
 800b920:	609a      	str	r2, [r3, #8]
 800b922:	4934      	ldr	r1, [pc, #208]	; (800b9f4 <HAL_ADC_Init+0x148>)
 800b924:	6aa2      	ldr	r2, [r4, #40]	; 0x28
 800b926:	428a      	cmp	r2, r1
 800b928:	d052      	beq.n	800b9d0 <HAL_ADC_Init+0x124>
 800b92a:	6899      	ldr	r1, [r3, #8]
 800b92c:	f021 6170 	bic.w	r1, r1, #251658240	; 0xf000000
 800b930:	6099      	str	r1, [r3, #8]
 800b932:	6899      	ldr	r1, [r3, #8]
 800b934:	430a      	orrs	r2, r1
 800b936:	609a      	str	r2, [r3, #8]
 800b938:	689a      	ldr	r2, [r3, #8]
 800b93a:	6ae1      	ldr	r1, [r4, #44]	; 0x2c
 800b93c:	f022 5240 	bic.w	r2, r2, #805306368	; 0x30000000
 800b940:	609a      	str	r2, [r3, #8]
 800b942:	689a      	ldr	r2, [r3, #8]
 800b944:	430a      	orrs	r2, r1
 800b946:	609a      	str	r2, [r3, #8]
 800b948:	689a      	ldr	r2, [r3, #8]
 800b94a:	f022 0202 	bic.w	r2, r2, #2
 800b94e:	609a      	str	r2, [r3, #8]
 800b950:	689a      	ldr	r2, [r3, #8]
 800b952:	7e21      	ldrb	r1, [r4, #24]
 800b954:	ea42 0241 	orr.w	r2, r2, r1, lsl #1
 800b958:	609a      	str	r2, [r3, #8]
 800b95a:	f894 2020 	ldrb.w	r2, [r4, #32]
 800b95e:	2a00      	cmp	r2, #0
 800b960:	d03e      	beq.n	800b9e0 <HAL_ADC_Init+0x134>
 800b962:	685a      	ldr	r2, [r3, #4]
 800b964:	6a61      	ldr	r1, [r4, #36]	; 0x24
 800b966:	f442 6200 	orr.w	r2, r2, #2048	; 0x800
 800b96a:	605a      	str	r2, [r3, #4]
 800b96c:	685a      	ldr	r2, [r3, #4]
 800b96e:	f422 4260 	bic.w	r2, r2, #57344	; 0xe000
 800b972:	605a      	str	r2, [r3, #4]
 800b974:	685a      	ldr	r2, [r3, #4]
 800b976:	3901      	subs	r1, #1
 800b978:	ea42 3241 	orr.w	r2, r2, r1, lsl #13
 800b97c:	605a      	str	r2, [r3, #4]
 800b97e:	6ada      	ldr	r2, [r3, #44]	; 0x2c
 800b980:	69e1      	ldr	r1, [r4, #28]
 800b982:	f422 0270 	bic.w	r2, r2, #15728640	; 0xf00000
 800b986:	62da      	str	r2, [r3, #44]	; 0x2c
 800b988:	6ada      	ldr	r2, [r3, #44]	; 0x2c
 800b98a:	3901      	subs	r1, #1
 800b98c:	ea42 5201 	orr.w	r2, r2, r1, lsl #20
 800b990:	62da      	str	r2, [r3, #44]	; 0x2c
 800b992:	689a      	ldr	r2, [r3, #8]
 800b994:	f422 7200 	bic.w	r2, r2, #512	; 0x200
 800b998:	609a      	str	r2, [r3, #8]
 800b99a:	689a      	ldr	r2, [r3, #8]
 800b99c:	f894 1030 	ldrb.w	r1, [r4, #48]	; 0x30
 800b9a0:	ea42 2241 	orr.w	r2, r2, r1, lsl #9
 800b9a4:	609a      	str	r2, [r3, #8]
 800b9a6:	689a      	ldr	r2, [r3, #8]
 800b9a8:	6961      	ldr	r1, [r4, #20]
 800b9aa:	f422 6280 	bic.w	r2, r2, #1024	; 0x400
 800b9ae:	609a      	str	r2, [r3, #8]
 800b9b0:	689a      	ldr	r2, [r3, #8]
 800b9b2:	2000      	movs	r0, #0
 800b9b4:	ea42 2281 	orr.w	r2, r2, r1, lsl #10
 800b9b8:	609a      	str	r2, [r3, #8]
 800b9ba:	6460      	str	r0, [r4, #68]	; 0x44
 800b9bc:	6c23      	ldr	r3, [r4, #64]	; 0x40
 800b9be:	f023 0303 	bic.w	r3, r3, #3
 800b9c2:	f043 0301 	orr.w	r3, r3, #1
 800b9c6:	6423      	str	r3, [r4, #64]	; 0x40
 800b9c8:	2300      	movs	r3, #0
 800b9ca:	f884 303c 	strb.w	r3, [r4, #60]	; 0x3c
 800b9ce:	bd38      	pop	{r3, r4, r5, pc}
 800b9d0:	689a      	ldr	r2, [r3, #8]
 800b9d2:	f022 6270 	bic.w	r2, r2, #251658240	; 0xf000000
 800b9d6:	609a      	str	r2, [r3, #8]
 800b9d8:	689a      	ldr	r2, [r3, #8]
 800b9da:	f022 5240 	bic.w	r2, r2, #805306368	; 0x30000000
 800b9de:	e7b2      	b.n	800b946 <HAL_ADC_Init+0x9a>
 800b9e0:	685a      	ldr	r2, [r3, #4]
 800b9e2:	f422 6200 	bic.w	r2, r2, #2048	; 0x800
 800b9e6:	e7c9      	b.n	800b97c <HAL_ADC_Init+0xd0>
 800b9e8:	2001      	movs	r0, #1
 800b9ea:	e7ed      	b.n	800b9c8 <HAL_ADC_Init+0x11c>
 800b9ec:	2001      	movs	r0, #1
 800b9ee:	e7ee      	b.n	800b9ce <HAL_ADC_Init+0x122>
 800b9f0:	40012300 	.word	0x40012300
 800b9f4:	0f000001 	.word	0x0f000001

0800b9f8 <HAL_ADC_Start_IT>:
 800b9f8:	b082      	sub	sp, #8
 800b9fa:	2300      	movs	r3, #0
 800b9fc:	9301      	str	r3, [sp, #4]
 800b9fe:	f890 303c 	ldrb.w	r3, [r0, #60]	; 0x3c
 800ba02:	2b01      	cmp	r3, #1
 800ba04:	d062      	beq.n	800bacc <HAL_ADC_Start_IT+0xd4>
 800ba06:	2301      	movs	r3, #1
 800ba08:	6802      	ldr	r2, [r0, #0]
 800ba0a:	f880 303c 	strb.w	r3, [r0, #60]	; 0x3c
 800ba0e:	6893      	ldr	r3, [r2, #8]
 800ba10:	07d9      	lsls	r1, r3, #31
 800ba12:	d50c      	bpl.n	800ba2e <HAL_ADC_Start_IT+0x36>
 800ba14:	6893      	ldr	r3, [r2, #8]
 800ba16:	f013 0301 	ands.w	r3, r3, #1
 800ba1a:	d11a      	bne.n	800ba52 <HAL_ADC_Start_IT+0x5a>
 800ba1c:	6c02      	ldr	r2, [r0, #64]	; 0x40
 800ba1e:	f042 0210 	orr.w	r2, r2, #16
 800ba22:	6402      	str	r2, [r0, #64]	; 0x40
 800ba24:	6c42      	ldr	r2, [r0, #68]	; 0x44
 800ba26:	f042 0201 	orr.w	r2, r2, #1
 800ba2a:	6442      	str	r2, [r0, #68]	; 0x44
 800ba2c:	e04c      	b.n	800bac8 <HAL_ADC_Start_IT+0xd0>
 800ba2e:	6893      	ldr	r3, [r2, #8]
 800ba30:	4928      	ldr	r1, [pc, #160]	; (800bad4 <HAL_ADC_Start_IT+0xdc>)
 800ba32:	f043 0301 	orr.w	r3, r3, #1
 800ba36:	6093      	str	r3, [r2, #8]
 800ba38:	4b27      	ldr	r3, [pc, #156]	; (800bad8 <HAL_ADC_Start_IT+0xe0>)
 800ba3a:	681b      	ldr	r3, [r3, #0]
 800ba3c:	fbb3 f3f1 	udiv	r3, r3, r1
 800ba40:	eb03 0343 	add.w	r3, r3, r3, lsl #1
 800ba44:	9301      	str	r3, [sp, #4]
 800ba46:	9b01      	ldr	r3, [sp, #4]
 800ba48:	2b00      	cmp	r3, #0
 800ba4a:	d0e3      	beq.n	800ba14 <HAL_ADC_Start_IT+0x1c>
 800ba4c:	9b01      	ldr	r3, [sp, #4]
 800ba4e:	3b01      	subs	r3, #1
 800ba50:	e7f8      	b.n	800ba44 <HAL_ADC_Start_IT+0x4c>
 800ba52:	6c03      	ldr	r3, [r0, #64]	; 0x40
 800ba54:	f423 63e0 	bic.w	r3, r3, #1792	; 0x700
 800ba58:	f023 0301 	bic.w	r3, r3, #1
 800ba5c:	f443 7380 	orr.w	r3, r3, #256	; 0x100
 800ba60:	6403      	str	r3, [r0, #64]	; 0x40
 800ba62:	6853      	ldr	r3, [r2, #4]
 800ba64:	055b      	lsls	r3, r3, #21
 800ba66:	bf41      	itttt	mi
 800ba68:	6c03      	ldrmi	r3, [r0, #64]	; 0x40
 800ba6a:	f423 5340 	bicmi.w	r3, r3, #12288	; 0x3000
 800ba6e:	f443 5380 	orrmi.w	r3, r3, #4096	; 0x1000
 800ba72:	6403      	strmi	r3, [r0, #64]	; 0x40
 800ba74:	6c03      	ldr	r3, [r0, #64]	; 0x40
 800ba76:	f413 5380 	ands.w	r3, r3, #4096	; 0x1000
 800ba7a:	bf1c      	itt	ne
 800ba7c:	6c43      	ldrne	r3, [r0, #68]	; 0x44
 800ba7e:	f023 0306 	bicne.w	r3, r3, #6
 800ba82:	6443      	str	r3, [r0, #68]	; 0x44
 800ba84:	f06f 0122 	mvn.w	r1, #34	; 0x22
 800ba88:	2300      	movs	r3, #0
 800ba8a:	f880 303c 	strb.w	r3, [r0, #60]	; 0x3c
 800ba8e:	6011      	str	r1, [r2, #0]
 800ba90:	6851      	ldr	r1, [r2, #4]
 800ba92:	f041 6180 	orr.w	r1, r1, #67108864	; 0x4000000
 800ba96:	f041 0120 	orr.w	r1, r1, #32
 800ba9a:	6051      	str	r1, [r2, #4]
 800ba9c:	490f      	ldr	r1, [pc, #60]	; (800badc <HAL_ADC_Start_IT+0xe4>)
 800ba9e:	6849      	ldr	r1, [r1, #4]
 800baa0:	f011 011f 	ands.w	r1, r1, #31
 800baa4:	d109      	bne.n	800baba <HAL_ADC_Start_IT+0xc2>
 800baa6:	6890      	ldr	r0, [r2, #8]
 800baa8:	f010 5040 	ands.w	r0, r0, #805306368	; 0x30000000
 800baac:	d110      	bne.n	800bad0 <HAL_ADC_Start_IT+0xd8>
 800baae:	6893      	ldr	r3, [r2, #8]
 800bab0:	f043 4380 	orr.w	r3, r3, #1073741824	; 0x40000000
 800bab4:	6093      	str	r3, [r2, #8]
 800bab6:	b002      	add	sp, #8
 800bab8:	4770      	bx	lr
 800baba:	4909      	ldr	r1, [pc, #36]	; (800bae0 <HAL_ADC_Start_IT+0xe8>)
 800babc:	428a      	cmp	r2, r1
 800babe:	d103      	bne.n	800bac8 <HAL_ADC_Start_IT+0xd0>
 800bac0:	6890      	ldr	r0, [r2, #8]
 800bac2:	f010 5040 	ands.w	r0, r0, #805306368	; 0x30000000
 800bac6:	d0f2      	beq.n	800baae <HAL_ADC_Start_IT+0xb6>
 800bac8:	4618      	mov	r0, r3
 800baca:	e7f4      	b.n	800bab6 <HAL_ADC_Start_IT+0xbe>
 800bacc:	2002      	movs	r0, #2
 800bace:	e7f2      	b.n	800bab6 <HAL_ADC_Start_IT+0xbe>
 800bad0:	4608      	mov	r0, r1
 800bad2:	e7f0      	b.n	800bab6 <HAL_ADC_Start_IT+0xbe>
 800bad4:	000f4240 	.word	0x000f4240
 800bad8:	20000060 	.word	0x20000060
 800badc:	40012300 	.word	0x40012300
 800bae0:	40012000 	.word	0x40012000

0800bae4 <HAL_ADC_GetValue>:
 800bae4:	6803      	ldr	r3, [r0, #0]
 800bae6:	6cd8      	ldr	r0, [r3, #76]	; 0x4c
 800bae8:	4770      	bx	lr

0800baea <HAL_ADC_LevelOutOfWindowCallback>:
 800baea:	4770      	bx	lr

0800baec <HAL_ADC_IRQHandler>:
 800baec:	b538      	push	{r3, r4, r5, lr}
 800baee:	6803      	ldr	r3, [r0, #0]
 800baf0:	6819      	ldr	r1, [r3, #0]
 800baf2:	685a      	ldr	r2, [r3, #4]
 800baf4:	078d      	lsls	r5, r1, #30
 800baf6:	4604      	mov	r4, r0
 800baf8:	d52b      	bpl.n	800bb52 <HAL_ADC_IRQHandler+0x66>
 800bafa:	0690      	lsls	r0, r2, #26
 800bafc:	d529      	bpl.n	800bb52 <HAL_ADC_IRQHandler+0x66>
 800bafe:	6c22      	ldr	r2, [r4, #64]	; 0x40
 800bb00:	06d1      	lsls	r1, r2, #27
 800bb02:	bf5e      	ittt	pl
 800bb04:	6c22      	ldrpl	r2, [r4, #64]	; 0x40
 800bb06:	f442 7200 	orrpl.w	r2, r2, #512	; 0x200
 800bb0a:	6422      	strpl	r2, [r4, #64]	; 0x40
 800bb0c:	689a      	ldr	r2, [r3, #8]
 800bb0e:	f012 5f40 	tst.w	r2, #805306368	; 0x30000000
 800bb12:	d117      	bne.n	800bb44 <HAL_ADC_IRQHandler+0x58>
 800bb14:	7e22      	ldrb	r2, [r4, #24]
 800bb16:	b9aa      	cbnz	r2, 800bb44 <HAL_ADC_IRQHandler+0x58>
 800bb18:	6ada      	ldr	r2, [r3, #44]	; 0x2c
 800bb1a:	f412 0f70 	tst.w	r2, #15728640	; 0xf00000
 800bb1e:	d002      	beq.n	800bb26 <HAL_ADC_IRQHandler+0x3a>
 800bb20:	689a      	ldr	r2, [r3, #8]
 800bb22:	0552      	lsls	r2, r2, #21
 800bb24:	d40e      	bmi.n	800bb44 <HAL_ADC_IRQHandler+0x58>
 800bb26:	685a      	ldr	r2, [r3, #4]
 800bb28:	f022 0220 	bic.w	r2, r2, #32
 800bb2c:	605a      	str	r2, [r3, #4]
 800bb2e:	6c23      	ldr	r3, [r4, #64]	; 0x40
 800bb30:	f423 7380 	bic.w	r3, r3, #256	; 0x100
 800bb34:	6423      	str	r3, [r4, #64]	; 0x40
 800bb36:	6c23      	ldr	r3, [r4, #64]	; 0x40
 800bb38:	04db      	lsls	r3, r3, #19
 800bb3a:	bf5e      	ittt	pl
 800bb3c:	6c23      	ldrpl	r3, [r4, #64]	; 0x40
 800bb3e:	f043 0301 	orrpl.w	r3, r3, #1
 800bb42:	6423      	strpl	r3, [r4, #64]	; 0x40
 800bb44:	4620      	mov	r0, r4
 800bb46:	f7fe fec5 	bl	800a8d4 <HAL_ADC_ConvCpltCallback>
 800bb4a:	6823      	ldr	r3, [r4, #0]
 800bb4c:	f06f 0212 	mvn.w	r2, #18
 800bb50:	601a      	str	r2, [r3, #0]
 800bb52:	6823      	ldr	r3, [r4, #0]
 800bb54:	6819      	ldr	r1, [r3, #0]
 800bb56:	685a      	ldr	r2, [r3, #4]
 800bb58:	074d      	lsls	r5, r1, #29
 800bb5a:	d532      	bpl.n	800bbc2 <HAL_ADC_IRQHandler+0xd6>
 800bb5c:	0610      	lsls	r0, r2, #24
 800bb5e:	d530      	bpl.n	800bbc2 <HAL_ADC_IRQHandler+0xd6>
 800bb60:	6c22      	ldr	r2, [r4, #64]	; 0x40
 800bb62:	06d1      	lsls	r1, r2, #27
 800bb64:	bf5e      	ittt	pl
 800bb66:	6c22      	ldrpl	r2, [r4, #64]	; 0x40
 800bb68:	f442 5200 	orrpl.w	r2, r2, #8192	; 0x2000
 800bb6c:	6422      	strpl	r2, [r4, #64]	; 0x40
 800bb6e:	689a      	ldr	r2, [r3, #8]
 800bb70:	f412 1f40 	tst.w	r2, #3145728	; 0x300000
 800bb74:	d11e      	bne.n	800bbb4 <HAL_ADC_IRQHandler+0xc8>
 800bb76:	6b9a      	ldr	r2, [r3, #56]	; 0x38
 800bb78:	f412 1f40 	tst.w	r2, #3145728	; 0x300000
 800bb7c:	d002      	beq.n	800bb84 <HAL_ADC_IRQHandler+0x98>
 800bb7e:	689a      	ldr	r2, [r3, #8]
 800bb80:	0552      	lsls	r2, r2, #21
 800bb82:	d417      	bmi.n	800bbb4 <HAL_ADC_IRQHandler+0xc8>
 800bb84:	685a      	ldr	r2, [r3, #4]
 800bb86:	0555      	lsls	r5, r2, #21
 800bb88:	d414      	bmi.n	800bbb4 <HAL_ADC_IRQHandler+0xc8>
 800bb8a:	689a      	ldr	r2, [r3, #8]
 800bb8c:	f012 5f40 	tst.w	r2, #805306368	; 0x30000000
 800bb90:	d110      	bne.n	800bbb4 <HAL_ADC_IRQHandler+0xc8>
 800bb92:	7e22      	ldrb	r2, [r4, #24]
 800bb94:	b972      	cbnz	r2, 800bbb4 <HAL_ADC_IRQHandler+0xc8>
 800bb96:	685a      	ldr	r2, [r3, #4]
 800bb98:	f022 0280 	bic.w	r2, r2, #128	; 0x80
 800bb9c:	605a      	str	r2, [r3, #4]
 800bb9e:	6c23      	ldr	r3, [r4, #64]	; 0x40
 800bba0:	f423 5380 	bic.w	r3, r3, #4096	; 0x1000
 800bba4:	6423      	str	r3, [r4, #64]	; 0x40
 800bba6:	6c23      	ldr	r3, [r4, #64]	; 0x40
 800bba8:	05d8      	lsls	r0, r3, #23
 800bbaa:	bf5e      	ittt	pl
 800bbac:	6c23      	ldrpl	r3, [r4, #64]	; 0x40
 800bbae:	f043 0301 	orrpl.w	r3, r3, #1
 800bbb2:	6423      	strpl	r3, [r4, #64]	; 0x40
 800bbb4:	4620      	mov	r0, r4
 800bbb6:	f000 f8c9 	bl	800bd4c <HAL_ADCEx_InjectedConvCpltCallback>
 800bbba:	6823      	ldr	r3, [r4, #0]
 800bbbc:	f06f 020c 	mvn.w	r2, #12
 800bbc0:	601a      	str	r2, [r3, #0]
 800bbc2:	6823      	ldr	r3, [r4, #0]
 800bbc4:	6819      	ldr	r1, [r3, #0]
 800bbc6:	685a      	ldr	r2, [r3, #4]
 800bbc8:	07c9      	lsls	r1, r1, #31
 800bbca:	d50f      	bpl.n	800bbec <HAL_ADC_IRQHandler+0x100>
 800bbcc:	0655      	lsls	r5, r2, #25
 800bbce:	d50d      	bpl.n	800bbec <HAL_ADC_IRQHandler+0x100>
 800bbd0:	681b      	ldr	r3, [r3, #0]
 800bbd2:	07d8      	lsls	r0, r3, #31
 800bbd4:	d50a      	bpl.n	800bbec <HAL_ADC_IRQHandler+0x100>
 800bbd6:	6c23      	ldr	r3, [r4, #64]	; 0x40
 800bbd8:	f443 3380 	orr.w	r3, r3, #65536	; 0x10000
 800bbdc:	6423      	str	r3, [r4, #64]	; 0x40
 800bbde:	4620      	mov	r0, r4
 800bbe0:	f7ff ff83 	bl	800baea <HAL_ADC_LevelOutOfWindowCallback>
 800bbe4:	6823      	ldr	r3, [r4, #0]
 800bbe6:	f06f 0201 	mvn.w	r2, #1
 800bbea:	601a      	str	r2, [r3, #0]
 800bbec:	6823      	ldr	r3, [r4, #0]
 800bbee:	6819      	ldr	r1, [r3, #0]
 800bbf0:	685a      	ldr	r2, [r3, #4]
 800bbf2:	0689      	lsls	r1, r1, #26
 800bbf4:	d50d      	bpl.n	800bc12 <HAL_ADC_IRQHandler+0x126>
 800bbf6:	0152      	lsls	r2, r2, #5
 800bbf8:	d50b      	bpl.n	800bc12 <HAL_ADC_IRQHandler+0x126>
 800bbfa:	6c62      	ldr	r2, [r4, #68]	; 0x44
 800bbfc:	f06f 0520 	mvn.w	r5, #32
 800bc00:	f042 0202 	orr.w	r2, r2, #2
 800bc04:	6462      	str	r2, [r4, #68]	; 0x44
 800bc06:	4620      	mov	r0, r4
 800bc08:	601d      	str	r5, [r3, #0]
 800bc0a:	f7fe fe89 	bl	800a920 <HAL_ADC_ErrorCallback>
 800bc0e:	6823      	ldr	r3, [r4, #0]
 800bc10:	601d      	str	r5, [r3, #0]
 800bc12:	bd38      	pop	{r3, r4, r5, pc}

0800bc14 <HAL_ADC_ConfigChannel>:
 800bc14:	b5f7      	push	{r0, r1, r2, r4, r5, r6, r7, lr}
 800bc16:	2300      	movs	r3, #0
 800bc18:	9301      	str	r3, [sp, #4]
 800bc1a:	f890 303c 	ldrb.w	r3, [r0, #60]	; 0x3c
 800bc1e:	2b01      	cmp	r3, #1
 800bc20:	d069      	beq.n	800bcf6 <HAL_ADC_ConfigChannel+0xe2>
 800bc22:	2301      	movs	r3, #1
 800bc24:	f880 303c 	strb.w	r3, [r0, #60]	; 0x3c
 800bc28:	680d      	ldr	r5, [r1, #0]
 800bc2a:	6803      	ldr	r3, [r0, #0]
 800bc2c:	688e      	ldr	r6, [r1, #8]
 800bc2e:	2d09      	cmp	r5, #9
 800bc30:	b2ac      	uxth	r4, r5
 800bc32:	d934      	bls.n	800bc9e <HAL_ADC_ConfigChannel+0x8a>
 800bc34:	eb04 0244 	add.w	r2, r4, r4, lsl #1
 800bc38:	68df      	ldr	r7, [r3, #12]
 800bc3a:	3a1e      	subs	r2, #30
 800bc3c:	f04f 0c07 	mov.w	ip, #7
 800bc40:	fa0c fc02 	lsl.w	ip, ip, r2
 800bc44:	ea27 070c 	bic.w	r7, r7, ip
 800bc48:	60df      	str	r7, [r3, #12]
 800bc4a:	68df      	ldr	r7, [r3, #12]
 800bc4c:	fa06 f202 	lsl.w	r2, r6, r2
 800bc50:	433a      	orrs	r2, r7
 800bc52:	60da      	str	r2, [r3, #12]
 800bc54:	6849      	ldr	r1, [r1, #4]
 800bc56:	2906      	cmp	r1, #6
 800bc58:	eb01 0281 	add.w	r2, r1, r1, lsl #2
 800bc5c:	d82f      	bhi.n	800bcbe <HAL_ADC_ConfigChannel+0xaa>
 800bc5e:	6b59      	ldr	r1, [r3, #52]	; 0x34
 800bc60:	3a05      	subs	r2, #5
 800bc62:	261f      	movs	r6, #31
 800bc64:	4096      	lsls	r6, r2
 800bc66:	ea21 0106 	bic.w	r1, r1, r6
 800bc6a:	6359      	str	r1, [r3, #52]	; 0x34
 800bc6c:	6b59      	ldr	r1, [r3, #52]	; 0x34
 800bc6e:	fa04 f202 	lsl.w	r2, r4, r2
 800bc72:	430a      	orrs	r2, r1
 800bc74:	635a      	str	r2, [r3, #52]	; 0x34
 800bc76:	4a30      	ldr	r2, [pc, #192]	; (800bd38 <HAL_ADC_ConfigChannel+0x124>)
 800bc78:	4293      	cmp	r3, r2
 800bc7a:	d10a      	bne.n	800bc92 <HAL_ADC_ConfigChannel+0x7e>
 800bc7c:	2d12      	cmp	r5, #18
 800bc7e:	d13c      	bne.n	800bcfa <HAL_ADC_ConfigChannel+0xe6>
 800bc80:	4b2e      	ldr	r3, [pc, #184]	; (800bd3c <HAL_ADC_ConfigChannel+0x128>)
 800bc82:	685a      	ldr	r2, [r3, #4]
 800bc84:	f422 0200 	bic.w	r2, r2, #8388608	; 0x800000
 800bc88:	605a      	str	r2, [r3, #4]
 800bc8a:	685a      	ldr	r2, [r3, #4]
 800bc8c:	f442 0280 	orr.w	r2, r2, #4194304	; 0x400000
 800bc90:	605a      	str	r2, [r3, #4]
 800bc92:	2300      	movs	r3, #0
 800bc94:	f880 303c 	strb.w	r3, [r0, #60]	; 0x3c
 800bc98:	4618      	mov	r0, r3
 800bc9a:	b003      	add	sp, #12
 800bc9c:	bdf0      	pop	{r4, r5, r6, r7, pc}
 800bc9e:	691f      	ldr	r7, [r3, #16]
 800bca0:	eb05 0245 	add.w	r2, r5, r5, lsl #1
 800bca4:	f04f 0c07 	mov.w	ip, #7
 800bca8:	fa0c fc02 	lsl.w	ip, ip, r2
 800bcac:	ea27 070c 	bic.w	r7, r7, ip
 800bcb0:	611f      	str	r7, [r3, #16]
 800bcb2:	691f      	ldr	r7, [r3, #16]
 800bcb4:	fa06 f202 	lsl.w	r2, r6, r2
 800bcb8:	433a      	orrs	r2, r7
 800bcba:	611a      	str	r2, [r3, #16]
 800bcbc:	e7ca      	b.n	800bc54 <HAL_ADC_ConfigChannel+0x40>
 800bcbe:	290c      	cmp	r1, #12
 800bcc0:	f04f 011f 	mov.w	r1, #31
 800bcc4:	d80b      	bhi.n	800bcde <HAL_ADC_ConfigChannel+0xca>
 800bcc6:	6b1e      	ldr	r6, [r3, #48]	; 0x30
 800bcc8:	3a23      	subs	r2, #35	; 0x23
 800bcca:	4091      	lsls	r1, r2
 800bccc:	ea26 0101 	bic.w	r1, r6, r1
 800bcd0:	6319      	str	r1, [r3, #48]	; 0x30
 800bcd2:	6b19      	ldr	r1, [r3, #48]	; 0x30
 800bcd4:	fa04 f202 	lsl.w	r2, r4, r2
 800bcd8:	430a      	orrs	r2, r1
 800bcda:	631a      	str	r2, [r3, #48]	; 0x30
 800bcdc:	e7cb      	b.n	800bc76 <HAL_ADC_ConfigChannel+0x62>
 800bcde:	6ade      	ldr	r6, [r3, #44]	; 0x2c
 800bce0:	3a41      	subs	r2, #65	; 0x41
 800bce2:	4091      	lsls	r1, r2
 800bce4:	ea26 0101 	bic.w	r1, r6, r1
 800bce8:	62d9      	str	r1, [r3, #44]	; 0x2c
 800bcea:	6ad9      	ldr	r1, [r3, #44]	; 0x2c
 800bcec:	fa04 f202 	lsl.w	r2, r4, r2
 800bcf0:	430a      	orrs	r2, r1
 800bcf2:	62da      	str	r2, [r3, #44]	; 0x2c
 800bcf4:	e7bf      	b.n	800bc76 <HAL_ADC_ConfigChannel+0x62>
 800bcf6:	2002      	movs	r0, #2
 800bcf8:	e7cf      	b.n	800bc9a <HAL_ADC_ConfigChannel+0x86>
 800bcfa:	4b11      	ldr	r3, [pc, #68]	; (800bd40 <HAL_ADC_ConfigChannel+0x12c>)
 800bcfc:	429d      	cmp	r5, r3
 800bcfe:	d001      	beq.n	800bd04 <HAL_ADC_ConfigChannel+0xf0>
 800bd00:	2d11      	cmp	r5, #17
 800bd02:	d1c6      	bne.n	800bc92 <HAL_ADC_ConfigChannel+0x7e>
 800bd04:	4b0d      	ldr	r3, [pc, #52]	; (800bd3c <HAL_ADC_ConfigChannel+0x128>)
 800bd06:	685a      	ldr	r2, [r3, #4]
 800bd08:	f422 0280 	bic.w	r2, r2, #4194304	; 0x400000
 800bd0c:	605a      	str	r2, [r3, #4]
 800bd0e:	685a      	ldr	r2, [r3, #4]
 800bd10:	f442 0200 	orr.w	r2, r2, #8388608	; 0x800000
 800bd14:	605a      	str	r2, [r3, #4]
 800bd16:	4b0a      	ldr	r3, [pc, #40]	; (800bd40 <HAL_ADC_ConfigChannel+0x12c>)
 800bd18:	429d      	cmp	r5, r3
 800bd1a:	d1ba      	bne.n	800bc92 <HAL_ADC_ConfigChannel+0x7e>
 800bd1c:	4b09      	ldr	r3, [pc, #36]	; (800bd44 <HAL_ADC_ConfigChannel+0x130>)
 800bd1e:	4a0a      	ldr	r2, [pc, #40]	; (800bd48 <HAL_ADC_ConfigChannel+0x134>)
 800bd20:	681b      	ldr	r3, [r3, #0]
 800bd22:	fbb3 f2f2 	udiv	r2, r3, r2
 800bd26:	230a      	movs	r3, #10
 800bd28:	4353      	muls	r3, r2
 800bd2a:	9301      	str	r3, [sp, #4]
 800bd2c:	9b01      	ldr	r3, [sp, #4]
 800bd2e:	2b00      	cmp	r3, #0
 800bd30:	d0af      	beq.n	800bc92 <HAL_ADC_ConfigChannel+0x7e>
 800bd32:	9b01      	ldr	r3, [sp, #4]
 800bd34:	3b01      	subs	r3, #1
 800bd36:	e7f8      	b.n	800bd2a <HAL_ADC_ConfigChannel+0x116>
 800bd38:	40012000 	.word	0x40012000
 800bd3c:	40012300 	.word	0x40012300
 800bd40:	10000012 	.word	0x10000012
 800bd44:	20000060 	.word	0x20000060
 800bd48:	000f4240 	.word	0x000f4240

0800bd4c <HAL_ADCEx_InjectedConvCpltCallback>:
 800bd4c:	4770      	bx	lr
	...

0800bd50 <HAL_NVIC_SetPriorityGrouping>:
 800bd50:	4907      	ldr	r1, [pc, #28]	; (800bd70 <HAL_NVIC_SetPriorityGrouping+0x20>)
 800bd52:	68ca      	ldr	r2, [r1, #12]
 800bd54:	f422 62e0 	bic.w	r2, r2, #1792	; 0x700
 800bd58:	0203      	lsls	r3, r0, #8
 800bd5a:	0412      	lsls	r2, r2, #16
 800bd5c:	f403 63e0 	and.w	r3, r3, #1792	; 0x700
 800bd60:	0c12      	lsrs	r2, r2, #16
 800bd62:	4313      	orrs	r3, r2
 800bd64:	f043 63bf 	orr.w	r3, r3, #100139008	; 0x5f80000
 800bd68:	f443 3300 	orr.w	r3, r3, #131072	; 0x20000
 800bd6c:	60cb      	str	r3, [r1, #12]
 800bd6e:	4770      	bx	lr
 800bd70:	e000ed00 	.word	0xe000ed00

0800bd74 <HAL_NVIC_SetPriority>:
 800bd74:	4b16      	ldr	r3, [pc, #88]	; (800bdd0 <HAL_NVIC_SetPriority+0x5c>)
 800bd76:	b530      	push	{r4, r5, lr}
 800bd78:	68dc      	ldr	r4, [r3, #12]
 800bd7a:	f3c4 2402 	ubfx	r4, r4, #8, #3
 800bd7e:	f1c4 0507 	rsb	r5, r4, #7
 800bd82:	1d23      	adds	r3, r4, #4
 800bd84:	2d04      	cmp	r5, #4
 800bd86:	bf28      	it	cs
 800bd88:	2504      	movcs	r5, #4
 800bd8a:	2b06      	cmp	r3, #6
 800bd8c:	f04f 33ff 	mov.w	r3, #4294967295	; 0xffffffff
 800bd90:	bf8c      	ite	hi
 800bd92:	3c03      	subhi	r4, #3
 800bd94:	2400      	movls	r4, #0
 800bd96:	fa03 f505 	lsl.w	r5, r3, r5
 800bd9a:	ea21 0105 	bic.w	r1, r1, r5
 800bd9e:	40a3      	lsls	r3, r4
 800bda0:	ea22 0203 	bic.w	r2, r2, r3
 800bda4:	40a1      	lsls	r1, r4
 800bda6:	2800      	cmp	r0, #0
 800bda8:	ea41 0302 	orr.w	r3, r1, r2
 800bdac:	bfac      	ite	ge
 800bdae:	f100 4060 	addge.w	r0, r0, #3758096384	; 0xe0000000
 800bdb2:	4a08      	ldrlt	r2, [pc, #32]	; (800bdd4 <HAL_NVIC_SetPriority+0x60>)
 800bdb4:	ea4f 1303 	mov.w	r3, r3, lsl #4
 800bdb8:	bfb8      	it	lt
 800bdba:	f000 000f 	andlt.w	r0, r0, #15
 800bdbe:	b2db      	uxtb	r3, r3
 800bdc0:	bfaa      	itet	ge
 800bdc2:	f500 4061 	addge.w	r0, r0, #57600	; 0xe100
 800bdc6:	5413      	strblt	r3, [r2, r0]
 800bdc8:	f880 3300 	strbge.w	r3, [r0, #768]	; 0x300
 800bdcc:	bd30      	pop	{r4, r5, pc}
 800bdce:	bf00      	nop
 800bdd0:	e000ed00 	.word	0xe000ed00
 800bdd4:	e000ed14 	.word	0xe000ed14

0800bdd8 <HAL_NVIC_EnableIRQ>:
 800bdd8:	2800      	cmp	r0, #0
 800bdda:	db08      	blt.n	800bdee <HAL_NVIC_EnableIRQ+0x16>
 800bddc:	0942      	lsrs	r2, r0, #5
 800bdde:	2301      	movs	r3, #1
 800bde0:	f000 001f 	and.w	r0, r0, #31
 800bde4:	fa03 f000 	lsl.w	r0, r3, r0
 800bde8:	4b01      	ldr	r3, [pc, #4]	; (800bdf0 <HAL_NVIC_EnableIRQ+0x18>)
 800bdea:	f843 0022 	str.w	r0, [r3, r2, lsl #2]
 800bdee:	4770      	bx	lr
 800bdf0:	e000e100 	.word	0xe000e100

0800bdf4 <HAL_NVIC_DisableIRQ>:
 800bdf4:	2800      	cmp	r0, #0
 800bdf6:	db0d      	blt.n	800be14 <HAL_NVIC_DisableIRQ+0x20>
 800bdf8:	0943      	lsrs	r3, r0, #5
 800bdfa:	2201      	movs	r2, #1
 800bdfc:	f000 001f 	and.w	r0, r0, #31
 800be00:	fa02 f000 	lsl.w	r0, r2, r0
 800be04:	3320      	adds	r3, #32
 800be06:	4a04      	ldr	r2, [pc, #16]	; (800be18 <HAL_NVIC_DisableIRQ+0x24>)
 800be08:	f842 0023 	str.w	r0, [r2, r3, lsl #2]
 800be0c:	f3bf 8f4f 	dsb	sy
 800be10:	f3bf 8f6f 	isb	sy
 800be14:	4770      	bx	lr
 800be16:	bf00      	nop
 800be18:	e000e100 	.word	0xe000e100

0800be1c <HAL_SYSTICK_Config>:
 800be1c:	3801      	subs	r0, #1
 800be1e:	f1b0 7f80 	cmp.w	r0, #16777216	; 0x1000000
 800be22:	d20a      	bcs.n	800be3a <HAL_SYSTICK_Config+0x1e>
 800be24:	4b06      	ldr	r3, [pc, #24]	; (800be40 <HAL_SYSTICK_Config+0x24>)
 800be26:	4a07      	ldr	r2, [pc, #28]	; (800be44 <HAL_SYSTICK_Config+0x28>)
 800be28:	6058      	str	r0, [r3, #4]
 800be2a:	21f0      	movs	r1, #240	; 0xf0
 800be2c:	f882 1023 	strb.w	r1, [r2, #35]	; 0x23
 800be30:	2000      	movs	r0, #0
 800be32:	2207      	movs	r2, #7
 800be34:	6098      	str	r0, [r3, #8]
 800be36:	601a      	str	r2, [r3, #0]
 800be38:	4770      	bx	lr
 800be3a:	2001      	movs	r0, #1
 800be3c:	4770      	bx	lr
 800be3e:	bf00      	nop
 800be40:	e000e010 	.word	0xe000e010
 800be44:	e000ed00 	.word	0xe000ed00

0800be48 <DMA_CalcBaseAndBitshift>:
 800be48:	6803      	ldr	r3, [r0, #0]
 800be4a:	b510      	push	{r4, lr}
 800be4c:	4c08      	ldr	r4, [pc, #32]	; (800be70 <DMA_CalcBaseAndBitshift+0x28>)
 800be4e:	4602      	mov	r2, r0
 800be50:	b2d9      	uxtb	r1, r3
 800be52:	3910      	subs	r1, #16
 800be54:	2018      	movs	r0, #24
 800be56:	fbb1 f0f0 	udiv	r0, r1, r0
 800be5a:	5c20      	ldrb	r0, [r4, r0]
 800be5c:	65d0      	str	r0, [r2, #92]	; 0x5c
 800be5e:	f423 707f 	bic.w	r0, r3, #1020	; 0x3fc
 800be62:	f020 0003 	bic.w	r0, r0, #3
 800be66:	295f      	cmp	r1, #95	; 0x5f
 800be68:	bf88      	it	hi
 800be6a:	3004      	addhi	r0, #4
 800be6c:	6590      	str	r0, [r2, #88]	; 0x58
 800be6e:	bd10      	pop	{r4, pc}
 800be70:	08016c7f 	.word	0x08016c7f

0800be74 <HAL_DMA_Init>:
 800be74:	b570      	push	{r4, r5, r6, lr}
 800be76:	4604      	mov	r4, r0
 800be78:	f7ff fcfe 	bl	800b878 <HAL_GetTick>
 800be7c:	4605      	mov	r5, r0
 800be7e:	2c00      	cmp	r4, #0
 800be80:	d073      	beq.n	800bf6a <HAL_DMA_Init+0xf6>
 800be82:	2302      	movs	r3, #2
 800be84:	f884 3035 	strb.w	r3, [r4, #53]	; 0x35
 800be88:	6822      	ldr	r2, [r4, #0]
 800be8a:	2300      	movs	r3, #0
 800be8c:	f884 3034 	strb.w	r3, [r4, #52]	; 0x34
 800be90:	6813      	ldr	r3, [r2, #0]
 800be92:	f023 0301 	bic.w	r3, r3, #1
 800be96:	6013      	str	r3, [r2, #0]
 800be98:	6821      	ldr	r1, [r4, #0]
 800be9a:	680b      	ldr	r3, [r1, #0]
 800be9c:	07d8      	lsls	r0, r3, #31
 800be9e:	d42f      	bmi.n	800bf00 <HAL_DMA_Init+0x8c>
 800bea0:	680b      	ldr	r3, [r1, #0]
 800bea2:	4d33      	ldr	r5, [pc, #204]	; (800bf70 <HAL_DMA_Init+0xfc>)
 800bea4:	69a0      	ldr	r0, [r4, #24]
 800bea6:	401d      	ands	r5, r3
 800bea8:	e9d4 2301 	ldrd	r2, r3, [r4, #4]
 800beac:	4313      	orrs	r3, r2
 800beae:	68e2      	ldr	r2, [r4, #12]
 800beb0:	4313      	orrs	r3, r2
 800beb2:	6922      	ldr	r2, [r4, #16]
 800beb4:	4313      	orrs	r3, r2
 800beb6:	6962      	ldr	r2, [r4, #20]
 800beb8:	4313      	orrs	r3, r2
 800beba:	69e2      	ldr	r2, [r4, #28]
 800bebc:	4303      	orrs	r3, r0
 800bebe:	4313      	orrs	r3, r2
 800bec0:	6a22      	ldr	r2, [r4, #32]
 800bec2:	4313      	orrs	r3, r2
 800bec4:	6a62      	ldr	r2, [r4, #36]	; 0x24
 800bec6:	2a04      	cmp	r2, #4
 800bec8:	ea43 0305 	orr.w	r3, r3, r5
 800becc:	bf02      	ittt	eq
 800bece:	e9d4 560b 	ldrdeq	r5, r6, [r4, #44]	; 0x2c
 800bed2:	4335      	orreq	r5, r6
 800bed4:	432b      	orreq	r3, r5
 800bed6:	600b      	str	r3, [r1, #0]
 800bed8:	694b      	ldr	r3, [r1, #20]
 800beda:	2a04      	cmp	r2, #4
 800bedc:	f023 0307 	bic.w	r3, r3, #7
 800bee0:	ea43 0302 	orr.w	r3, r3, r2
 800bee4:	d133      	bne.n	800bf4e <HAL_DMA_Init+0xda>
 800bee6:	6aa2      	ldr	r2, [r4, #40]	; 0x28
 800bee8:	6ae5      	ldr	r5, [r4, #44]	; 0x2c
 800beea:	4313      	orrs	r3, r2
 800beec:	b37d      	cbz	r5, 800bf4e <HAL_DMA_Init+0xda>
 800beee:	b990      	cbnz	r0, 800bf16 <HAL_DMA_Init+0xa2>
 800bef0:	2a01      	cmp	r2, #1
 800bef2:	d021      	beq.n	800bf38 <HAL_DMA_Init+0xc4>
 800bef4:	f032 0202 	bics.w	r2, r2, #2
 800bef8:	d129      	bne.n	800bf4e <HAL_DMA_Init+0xda>
 800befa:	01ea      	lsls	r2, r5, #7
 800befc:	d527      	bpl.n	800bf4e <HAL_DMA_Init+0xda>
 800befe:	e01e      	b.n	800bf3e <HAL_DMA_Init+0xca>
 800bf00:	f7ff fcba 	bl	800b878 <HAL_GetTick>
 800bf04:	1b40      	subs	r0, r0, r5
 800bf06:	2805      	cmp	r0, #5
 800bf08:	d9c6      	bls.n	800be98 <HAL_DMA_Init+0x24>
 800bf0a:	2320      	movs	r3, #32
 800bf0c:	6563      	str	r3, [r4, #84]	; 0x54
 800bf0e:	2003      	movs	r0, #3
 800bf10:	f884 0035 	strb.w	r0, [r4, #53]	; 0x35
 800bf14:	bd70      	pop	{r4, r5, r6, pc}
 800bf16:	f5b0 5f00 	cmp.w	r0, #8192	; 0x2000
 800bf1a:	d114      	bne.n	800bf46 <HAL_DMA_Init+0xd2>
 800bf1c:	2a03      	cmp	r2, #3
 800bf1e:	d816      	bhi.n	800bf4e <HAL_DMA_Init+0xda>
 800bf20:	a001      	add	r0, pc, #4	; (adr r0, 800bf28 <HAL_DMA_Init+0xb4>)
 800bf22:	f850 f022 	ldr.w	pc, [r0, r2, lsl #2]
 800bf26:	bf00      	nop
 800bf28:	0800bf3f 	.word	0x0800bf3f
 800bf2c:	0800befb 	.word	0x0800befb
 800bf30:	0800bf3f 	.word	0x0800bf3f
 800bf34:	0800bf39 	.word	0x0800bf39
 800bf38:	f1b5 7fc0 	cmp.w	r5, #25165824	; 0x1800000
 800bf3c:	d107      	bne.n	800bf4e <HAL_DMA_Init+0xda>
 800bf3e:	2340      	movs	r3, #64	; 0x40
 800bf40:	6563      	str	r3, [r4, #84]	; 0x54
 800bf42:	2001      	movs	r0, #1
 800bf44:	e7e4      	b.n	800bf10 <HAL_DMA_Init+0x9c>
 800bf46:	2a02      	cmp	r2, #2
 800bf48:	d9f9      	bls.n	800bf3e <HAL_DMA_Init+0xca>
 800bf4a:	2a03      	cmp	r2, #3
 800bf4c:	d0d5      	beq.n	800befa <HAL_DMA_Init+0x86>
 800bf4e:	614b      	str	r3, [r1, #20]
 800bf50:	4620      	mov	r0, r4
 800bf52:	f7ff ff79 	bl	800be48 <DMA_CalcBaseAndBitshift>
 800bf56:	6de2      	ldr	r2, [r4, #92]	; 0x5c
 800bf58:	233f      	movs	r3, #63	; 0x3f
 800bf5a:	4093      	lsls	r3, r2
 800bf5c:	6083      	str	r3, [r0, #8]
 800bf5e:	2000      	movs	r0, #0
 800bf60:	2301      	movs	r3, #1
 800bf62:	6560      	str	r0, [r4, #84]	; 0x54
 800bf64:	f884 3035 	strb.w	r3, [r4, #53]	; 0x35
 800bf68:	e7d4      	b.n	800bf14 <HAL_DMA_Init+0xa0>
 800bf6a:	2001      	movs	r0, #1
 800bf6c:	e7d2      	b.n	800bf14 <HAL_DMA_Init+0xa0>
 800bf6e:	bf00      	nop
 800bf70:	f010803f 	.word	0xf010803f

0800bf74 <HAL_DMA_Start_IT>:
 800bf74:	b570      	push	{r4, r5, r6, lr}
 800bf76:	f890 4034 	ldrb.w	r4, [r0, #52]	; 0x34
 800bf7a:	6d86      	ldr	r6, [r0, #88]	; 0x58
 800bf7c:	2c01      	cmp	r4, #1
 800bf7e:	d031      	beq.n	800bfe4 <HAL_DMA_Start_IT+0x70>
 800bf80:	2401      	movs	r4, #1
 800bf82:	f880 4034 	strb.w	r4, [r0, #52]	; 0x34
 800bf86:	f890 4035 	ldrb.w	r4, [r0, #53]	; 0x35
 800bf8a:	2c01      	cmp	r4, #1
 800bf8c:	f04f 0500 	mov.w	r5, #0
 800bf90:	f04f 0402 	mov.w	r4, #2
 800bf94:	d124      	bne.n	800bfe0 <HAL_DMA_Start_IT+0x6c>
 800bf96:	f880 4035 	strb.w	r4, [r0, #53]	; 0x35
 800bf9a:	6804      	ldr	r4, [r0, #0]
 800bf9c:	6545      	str	r5, [r0, #84]	; 0x54
 800bf9e:	6825      	ldr	r5, [r4, #0]
 800bfa0:	f425 2580 	bic.w	r5, r5, #262144	; 0x40000
 800bfa4:	6025      	str	r5, [r4, #0]
 800bfa6:	6063      	str	r3, [r4, #4]
 800bfa8:	6883      	ldr	r3, [r0, #8]
 800bfaa:	2b40      	cmp	r3, #64	; 0x40
 800bfac:	bf0e      	itee	eq
 800bfae:	60a2      	streq	r2, [r4, #8]
 800bfb0:	60a1      	strne	r1, [r4, #8]
 800bfb2:	60e2      	strne	r2, [r4, #12]
 800bfb4:	6dc2      	ldr	r2, [r0, #92]	; 0x5c
 800bfb6:	bf08      	it	eq
 800bfb8:	60e1      	streq	r1, [r4, #12]
 800bfba:	233f      	movs	r3, #63	; 0x3f
 800bfbc:	4093      	lsls	r3, r2
 800bfbe:	60b3      	str	r3, [r6, #8]
 800bfc0:	6823      	ldr	r3, [r4, #0]
 800bfc2:	f043 0316 	orr.w	r3, r3, #22
 800bfc6:	6023      	str	r3, [r4, #0]
 800bfc8:	6c03      	ldr	r3, [r0, #64]	; 0x40
 800bfca:	b11b      	cbz	r3, 800bfd4 <HAL_DMA_Start_IT+0x60>
 800bfcc:	6823      	ldr	r3, [r4, #0]
 800bfce:	f043 0308 	orr.w	r3, r3, #8
 800bfd2:	6023      	str	r3, [r4, #0]
 800bfd4:	6823      	ldr	r3, [r4, #0]
 800bfd6:	f043 0301 	orr.w	r3, r3, #1
 800bfda:	6023      	str	r3, [r4, #0]
 800bfdc:	2000      	movs	r0, #0
 800bfde:	bd70      	pop	{r4, r5, r6, pc}
 800bfe0:	f880 5034 	strb.w	r5, [r0, #52]	; 0x34
 800bfe4:	2002      	movs	r0, #2
 800bfe6:	e7fa      	b.n	800bfde <HAL_DMA_Start_IT+0x6a>

0800bfe8 <HAL_DMA_Abort>:
 800bfe8:	b570      	push	{r4, r5, r6, lr}
 800bfea:	4604      	mov	r4, r0
 800bfec:	6d86      	ldr	r6, [r0, #88]	; 0x58
 800bfee:	f7ff fc43 	bl	800b878 <HAL_GetTick>
 800bff2:	f894 3035 	ldrb.w	r3, [r4, #53]	; 0x35
 800bff6:	2b02      	cmp	r3, #2
 800bff8:	4605      	mov	r5, r0
 800bffa:	d006      	beq.n	800c00a <HAL_DMA_Abort+0x22>
 800bffc:	2380      	movs	r3, #128	; 0x80
 800bffe:	6563      	str	r3, [r4, #84]	; 0x54
 800c000:	2300      	movs	r3, #0
 800c002:	f884 3034 	strb.w	r3, [r4, #52]	; 0x34
 800c006:	2001      	movs	r0, #1
 800c008:	bd70      	pop	{r4, r5, r6, pc}
 800c00a:	6823      	ldr	r3, [r4, #0]
 800c00c:	681a      	ldr	r2, [r3, #0]
 800c00e:	f022 0216 	bic.w	r2, r2, #22
 800c012:	601a      	str	r2, [r3, #0]
 800c014:	695a      	ldr	r2, [r3, #20]
 800c016:	f022 0280 	bic.w	r2, r2, #128	; 0x80
 800c01a:	615a      	str	r2, [r3, #20]
 800c01c:	6c22      	ldr	r2, [r4, #64]	; 0x40
 800c01e:	b90a      	cbnz	r2, 800c024 <HAL_DMA_Abort+0x3c>
 800c020:	6ca2      	ldr	r2, [r4, #72]	; 0x48
 800c022:	b11a      	cbz	r2, 800c02c <HAL_DMA_Abort+0x44>
 800c024:	681a      	ldr	r2, [r3, #0]
 800c026:	f022 0208 	bic.w	r2, r2, #8
 800c02a:	601a      	str	r2, [r3, #0]
 800c02c:	681a      	ldr	r2, [r3, #0]
 800c02e:	f022 0201 	bic.w	r2, r2, #1
 800c032:	601a      	str	r2, [r3, #0]
 800c034:	6823      	ldr	r3, [r4, #0]
 800c036:	681b      	ldr	r3, [r3, #0]
 800c038:	f013 0301 	ands.w	r3, r3, #1
 800c03c:	d10a      	bne.n	800c054 <HAL_DMA_Abort+0x6c>
 800c03e:	6de1      	ldr	r1, [r4, #92]	; 0x5c
 800c040:	223f      	movs	r2, #63	; 0x3f
 800c042:	408a      	lsls	r2, r1
 800c044:	60b2      	str	r2, [r6, #8]
 800c046:	2201      	movs	r2, #1
 800c048:	f884 2035 	strb.w	r2, [r4, #53]	; 0x35
 800c04c:	f884 3034 	strb.w	r3, [r4, #52]	; 0x34
 800c050:	4618      	mov	r0, r3
 800c052:	e7d9      	b.n	800c008 <HAL_DMA_Abort+0x20>
 800c054:	f7ff fc10 	bl	800b878 <HAL_GetTick>
 800c058:	1b40      	subs	r0, r0, r5
 800c05a:	2805      	cmp	r0, #5
 800c05c:	d9ea      	bls.n	800c034 <HAL_DMA_Abort+0x4c>
 800c05e:	2320      	movs	r3, #32
 800c060:	6563      	str	r3, [r4, #84]	; 0x54
 800c062:	2003      	movs	r0, #3
 800c064:	2300      	movs	r3, #0
 800c066:	f884 0035 	strb.w	r0, [r4, #53]	; 0x35
 800c06a:	f884 3034 	strb.w	r3, [r4, #52]	; 0x34
 800c06e:	e7cb      	b.n	800c008 <HAL_DMA_Abort+0x20>

0800c070 <HAL_DMA_Abort_IT>:
 800c070:	f890 3035 	ldrb.w	r3, [r0, #53]	; 0x35
 800c074:	2b02      	cmp	r3, #2
 800c076:	d003      	beq.n	800c080 <HAL_DMA_Abort_IT+0x10>
 800c078:	2380      	movs	r3, #128	; 0x80
 800c07a:	6543      	str	r3, [r0, #84]	; 0x54
 800c07c:	2001      	movs	r0, #1
 800c07e:	4770      	bx	lr
 800c080:	6802      	ldr	r2, [r0, #0]
 800c082:	2305      	movs	r3, #5
 800c084:	f880 3035 	strb.w	r3, [r0, #53]	; 0x35
 800c088:	6813      	ldr	r3, [r2, #0]
 800c08a:	f023 0301 	bic.w	r3, r3, #1
 800c08e:	6013      	str	r3, [r2, #0]
 800c090:	2000      	movs	r0, #0
 800c092:	4770      	bx	lr

0800c094 <HAL_DMA_IRQHandler>:
 800c094:	b5f7      	push	{r0, r1, r2, r4, r5, r6, r7, lr}
 800c096:	2300      	movs	r3, #0
 800c098:	9301      	str	r3, [sp, #4]
 800c09a:	4b5c      	ldr	r3, [pc, #368]	; (800c20c <HAL_DMA_IRQHandler+0x178>)
 800c09c:	6d85      	ldr	r5, [r0, #88]	; 0x58
 800c09e:	681f      	ldr	r7, [r3, #0]
 800c0a0:	6dc3      	ldr	r3, [r0, #92]	; 0x5c
 800c0a2:	682e      	ldr	r6, [r5, #0]
 800c0a4:	2208      	movs	r2, #8
 800c0a6:	409a      	lsls	r2, r3
 800c0a8:	4232      	tst	r2, r6
 800c0aa:	4604      	mov	r4, r0
 800c0ac:	d00c      	beq.n	800c0c8 <HAL_DMA_IRQHandler+0x34>
 800c0ae:	6801      	ldr	r1, [r0, #0]
 800c0b0:	6808      	ldr	r0, [r1, #0]
 800c0b2:	0740      	lsls	r0, r0, #29
 800c0b4:	d508      	bpl.n	800c0c8 <HAL_DMA_IRQHandler+0x34>
 800c0b6:	6808      	ldr	r0, [r1, #0]
 800c0b8:	f020 0004 	bic.w	r0, r0, #4
 800c0bc:	6008      	str	r0, [r1, #0]
 800c0be:	60aa      	str	r2, [r5, #8]
 800c0c0:	6d62      	ldr	r2, [r4, #84]	; 0x54
 800c0c2:	f042 0201 	orr.w	r2, r2, #1
 800c0c6:	6562      	str	r2, [r4, #84]	; 0x54
 800c0c8:	2201      	movs	r2, #1
 800c0ca:	409a      	lsls	r2, r3
 800c0cc:	4232      	tst	r2, r6
 800c0ce:	d008      	beq.n	800c0e2 <HAL_DMA_IRQHandler+0x4e>
 800c0d0:	6821      	ldr	r1, [r4, #0]
 800c0d2:	6949      	ldr	r1, [r1, #20]
 800c0d4:	0609      	lsls	r1, r1, #24
 800c0d6:	bf41      	itttt	mi
 800c0d8:	60aa      	strmi	r2, [r5, #8]
 800c0da:	6d62      	ldrmi	r2, [r4, #84]	; 0x54
 800c0dc:	f042 0202 	orrmi.w	r2, r2, #2
 800c0e0:	6562      	strmi	r2, [r4, #84]	; 0x54
 800c0e2:	2204      	movs	r2, #4
 800c0e4:	409a      	lsls	r2, r3
 800c0e6:	4232      	tst	r2, r6
 800c0e8:	d008      	beq.n	800c0fc <HAL_DMA_IRQHandler+0x68>
 800c0ea:	6821      	ldr	r1, [r4, #0]
 800c0ec:	6809      	ldr	r1, [r1, #0]
 800c0ee:	0788      	lsls	r0, r1, #30
 800c0f0:	bf41      	itttt	mi
 800c0f2:	60aa      	strmi	r2, [r5, #8]
 800c0f4:	6d62      	ldrmi	r2, [r4, #84]	; 0x54
 800c0f6:	f042 0204 	orrmi.w	r2, r2, #4
 800c0fa:	6562      	strmi	r2, [r4, #84]	; 0x54
 800c0fc:	2210      	movs	r2, #16
 800c0fe:	409a      	lsls	r2, r3
 800c100:	4232      	tst	r2, r6
 800c102:	d010      	beq.n	800c126 <HAL_DMA_IRQHandler+0x92>
 800c104:	6823      	ldr	r3, [r4, #0]
 800c106:	6819      	ldr	r1, [r3, #0]
 800c108:	0709      	lsls	r1, r1, #28
 800c10a:	d50c      	bpl.n	800c126 <HAL_DMA_IRQHandler+0x92>
 800c10c:	60aa      	str	r2, [r5, #8]
 800c10e:	681a      	ldr	r2, [r3, #0]
 800c110:	0350      	lsls	r0, r2, #13
 800c112:	d537      	bpl.n	800c184 <HAL_DMA_IRQHandler+0xf0>
 800c114:	681b      	ldr	r3, [r3, #0]
 800c116:	0319      	lsls	r1, r3, #12
 800c118:	d401      	bmi.n	800c11e <HAL_DMA_IRQHandler+0x8a>
 800c11a:	6c23      	ldr	r3, [r4, #64]	; 0x40
 800c11c:	e000      	b.n	800c120 <HAL_DMA_IRQHandler+0x8c>
 800c11e:	6ca3      	ldr	r3, [r4, #72]	; 0x48
 800c120:	b10b      	cbz	r3, 800c126 <HAL_DMA_IRQHandler+0x92>
 800c122:	4620      	mov	r0, r4
 800c124:	4798      	blx	r3
 800c126:	6de1      	ldr	r1, [r4, #92]	; 0x5c
 800c128:	2220      	movs	r2, #32
 800c12a:	408a      	lsls	r2, r1
 800c12c:	4232      	tst	r2, r6
 800c12e:	d03a      	beq.n	800c1a6 <HAL_DMA_IRQHandler+0x112>
 800c130:	6823      	ldr	r3, [r4, #0]
 800c132:	6818      	ldr	r0, [r3, #0]
 800c134:	06c6      	lsls	r6, r0, #27
 800c136:	d536      	bpl.n	800c1a6 <HAL_DMA_IRQHandler+0x112>
 800c138:	60aa      	str	r2, [r5, #8]
 800c13a:	f894 2035 	ldrb.w	r2, [r4, #53]	; 0x35
 800c13e:	2a05      	cmp	r2, #5
 800c140:	681a      	ldr	r2, [r3, #0]
 800c142:	d127      	bne.n	800c194 <HAL_DMA_IRQHandler+0x100>
 800c144:	f022 0216 	bic.w	r2, r2, #22
 800c148:	601a      	str	r2, [r3, #0]
 800c14a:	695a      	ldr	r2, [r3, #20]
 800c14c:	f022 0280 	bic.w	r2, r2, #128	; 0x80
 800c150:	615a      	str	r2, [r3, #20]
 800c152:	6c22      	ldr	r2, [r4, #64]	; 0x40
 800c154:	b90a      	cbnz	r2, 800c15a <HAL_DMA_IRQHandler+0xc6>
 800c156:	6ca2      	ldr	r2, [r4, #72]	; 0x48
 800c158:	b11a      	cbz	r2, 800c162 <HAL_DMA_IRQHandler+0xce>
 800c15a:	681a      	ldr	r2, [r3, #0]
 800c15c:	f022 0208 	bic.w	r2, r2, #8
 800c160:	601a      	str	r2, [r3, #0]
 800c162:	233f      	movs	r3, #63	; 0x3f
 800c164:	408b      	lsls	r3, r1
 800c166:	60ab      	str	r3, [r5, #8]
 800c168:	2301      	movs	r3, #1
 800c16a:	f884 3035 	strb.w	r3, [r4, #53]	; 0x35
 800c16e:	2300      	movs	r3, #0
 800c170:	f884 3034 	strb.w	r3, [r4, #52]	; 0x34
 800c174:	6d23      	ldr	r3, [r4, #80]	; 0x50
 800c176:	2b00      	cmp	r3, #0
 800c178:	d045      	beq.n	800c206 <HAL_DMA_IRQHandler+0x172>
 800c17a:	4620      	mov	r0, r4
 800c17c:	b003      	add	sp, #12
 800c17e:	e8bd 40f0 	ldmia.w	sp!, {r4, r5, r6, r7, lr}
 800c182:	4718      	bx	r3
 800c184:	681a      	ldr	r2, [r3, #0]
 800c186:	05d2      	lsls	r2, r2, #23
 800c188:	bf5e      	ittt	pl
 800c18a:	681a      	ldrpl	r2, [r3, #0]
 800c18c:	f022 0208 	bicpl.w	r2, r2, #8
 800c190:	601a      	strpl	r2, [r3, #0]
 800c192:	e7c2      	b.n	800c11a <HAL_DMA_IRQHandler+0x86>
 800c194:	0350      	lsls	r0, r2, #13
 800c196:	d527      	bpl.n	800c1e8 <HAL_DMA_IRQHandler+0x154>
 800c198:	681b      	ldr	r3, [r3, #0]
 800c19a:	0319      	lsls	r1, r3, #12
 800c19c:	d431      	bmi.n	800c202 <HAL_DMA_IRQHandler+0x16e>
 800c19e:	6c63      	ldr	r3, [r4, #68]	; 0x44
 800c1a0:	b10b      	cbz	r3, 800c1a6 <HAL_DMA_IRQHandler+0x112>
 800c1a2:	4620      	mov	r0, r4
 800c1a4:	4798      	blx	r3
 800c1a6:	6d63      	ldr	r3, [r4, #84]	; 0x54
 800c1a8:	b36b      	cbz	r3, 800c206 <HAL_DMA_IRQHandler+0x172>
 800c1aa:	6d63      	ldr	r3, [r4, #84]	; 0x54
 800c1ac:	07da      	lsls	r2, r3, #31
 800c1ae:	d519      	bpl.n	800c1e4 <HAL_DMA_IRQHandler+0x150>
 800c1b0:	6822      	ldr	r2, [r4, #0]
 800c1b2:	f44f 5316 	mov.w	r3, #9600	; 0x2580
 800c1b6:	fbb7 f7f3 	udiv	r7, r7, r3
 800c1ba:	2305      	movs	r3, #5
 800c1bc:	f884 3035 	strb.w	r3, [r4, #53]	; 0x35
 800c1c0:	6813      	ldr	r3, [r2, #0]
 800c1c2:	f023 0301 	bic.w	r3, r3, #1
 800c1c6:	6013      	str	r3, [r2, #0]
 800c1c8:	9b01      	ldr	r3, [sp, #4]
 800c1ca:	3301      	adds	r3, #1
 800c1cc:	42bb      	cmp	r3, r7
 800c1ce:	9301      	str	r3, [sp, #4]
 800c1d0:	d802      	bhi.n	800c1d8 <HAL_DMA_IRQHandler+0x144>
 800c1d2:	6813      	ldr	r3, [r2, #0]
 800c1d4:	07db      	lsls	r3, r3, #31
 800c1d6:	d4f7      	bmi.n	800c1c8 <HAL_DMA_IRQHandler+0x134>
 800c1d8:	2301      	movs	r3, #1
 800c1da:	f884 3035 	strb.w	r3, [r4, #53]	; 0x35
 800c1de:	2300      	movs	r3, #0
 800c1e0:	f884 3034 	strb.w	r3, [r4, #52]	; 0x34
 800c1e4:	6ce3      	ldr	r3, [r4, #76]	; 0x4c
 800c1e6:	e7c6      	b.n	800c176 <HAL_DMA_IRQHandler+0xe2>
 800c1e8:	681a      	ldr	r2, [r3, #0]
 800c1ea:	f412 7280 	ands.w	r2, r2, #256	; 0x100
 800c1ee:	d108      	bne.n	800c202 <HAL_DMA_IRQHandler+0x16e>
 800c1f0:	6819      	ldr	r1, [r3, #0]
 800c1f2:	f021 0110 	bic.w	r1, r1, #16
 800c1f6:	6019      	str	r1, [r3, #0]
 800c1f8:	2301      	movs	r3, #1
 800c1fa:	f884 3035 	strb.w	r3, [r4, #53]	; 0x35
 800c1fe:	f884 2034 	strb.w	r2, [r4, #52]	; 0x34
 800c202:	6be3      	ldr	r3, [r4, #60]	; 0x3c
 800c204:	e7cc      	b.n	800c1a0 <HAL_DMA_IRQHandler+0x10c>
 800c206:	b003      	add	sp, #12
 800c208:	bdf0      	pop	{r4, r5, r6, r7, pc}
 800c20a:	bf00      	nop
 800c20c:	20000060 	.word	0x20000060

0800c210 <HAL_DMA_RegisterCallback>:
 800c210:	f890 3034 	ldrb.w	r3, [r0, #52]	; 0x34
 800c214:	2b01      	cmp	r3, #1
 800c216:	d01d      	beq.n	800c254 <HAL_DMA_RegisterCallback+0x44>
 800c218:	f890 3035 	ldrb.w	r3, [r0, #53]	; 0x35
 800c21c:	2b01      	cmp	r3, #1
 800c21e:	d117      	bne.n	800c250 <HAL_DMA_RegisterCallback+0x40>
 800c220:	2905      	cmp	r1, #5
 800c222:	d80b      	bhi.n	800c23c <HAL_DMA_RegisterCallback+0x2c>
 800c224:	e8df f001 	tbb	[pc, r1]
 800c228:	0e0c0903 	.word	0x0e0c0903
 800c22c:	1210      	.short	0x1210
 800c22e:	63c2      	str	r2, [r0, #60]	; 0x3c
 800c230:	2300      	movs	r3, #0
 800c232:	f880 3034 	strb.w	r3, [r0, #52]	; 0x34
 800c236:	4608      	mov	r0, r1
 800c238:	4770      	bx	lr
 800c23a:	6402      	str	r2, [r0, #64]	; 0x40
 800c23c:	2100      	movs	r1, #0
 800c23e:	e7f7      	b.n	800c230 <HAL_DMA_RegisterCallback+0x20>
 800c240:	6442      	str	r2, [r0, #68]	; 0x44
 800c242:	e7fb      	b.n	800c23c <HAL_DMA_RegisterCallback+0x2c>
 800c244:	6482      	str	r2, [r0, #72]	; 0x48
 800c246:	e7f9      	b.n	800c23c <HAL_DMA_RegisterCallback+0x2c>
 800c248:	64c2      	str	r2, [r0, #76]	; 0x4c
 800c24a:	e7f7      	b.n	800c23c <HAL_DMA_RegisterCallback+0x2c>
 800c24c:	6502      	str	r2, [r0, #80]	; 0x50
 800c24e:	e7f5      	b.n	800c23c <HAL_DMA_RegisterCallback+0x2c>
 800c250:	2101      	movs	r1, #1
 800c252:	e7ed      	b.n	800c230 <HAL_DMA_RegisterCallback+0x20>
 800c254:	2002      	movs	r0, #2
 800c256:	4770      	bx	lr

0800c258 <HAL_DMA_GetState>:
 800c258:	f890 0035 	ldrb.w	r0, [r0, #53]	; 0x35
 800c25c:	4770      	bx	lr

0800c25e <HAL_DMA_GetError>:
 800c25e:	6d40      	ldr	r0, [r0, #84]	; 0x54
 800c260:	4770      	bx	lr
	...

0800c264 <FLASH_SetErrorCode>:
 800c264:	4b20      	ldr	r3, [pc, #128]	; (800c2e8 <FLASH_SetErrorCode+0x84>)
 800c266:	68da      	ldr	r2, [r3, #12]
 800c268:	06d0      	lsls	r0, r2, #27
 800c26a:	d506      	bpl.n	800c27a <FLASH_SetErrorCode+0x16>
 800c26c:	491f      	ldr	r1, [pc, #124]	; (800c2ec <FLASH_SetErrorCode+0x88>)
 800c26e:	69ca      	ldr	r2, [r1, #28]
 800c270:	f042 0210 	orr.w	r2, r2, #16
 800c274:	61ca      	str	r2, [r1, #28]
 800c276:	2210      	movs	r2, #16
 800c278:	60da      	str	r2, [r3, #12]
 800c27a:	68da      	ldr	r2, [r3, #12]
 800c27c:	0691      	lsls	r1, r2, #26
 800c27e:	d506      	bpl.n	800c28e <FLASH_SetErrorCode+0x2a>
 800c280:	491a      	ldr	r1, [pc, #104]	; (800c2ec <FLASH_SetErrorCode+0x88>)
 800c282:	69ca      	ldr	r2, [r1, #28]
 800c284:	f042 0208 	orr.w	r2, r2, #8
 800c288:	61ca      	str	r2, [r1, #28]
 800c28a:	2220      	movs	r2, #32
 800c28c:	60da      	str	r2, [r3, #12]
 800c28e:	4b16      	ldr	r3, [pc, #88]	; (800c2e8 <FLASH_SetErrorCode+0x84>)
 800c290:	68da      	ldr	r2, [r3, #12]
 800c292:	0652      	lsls	r2, r2, #25
 800c294:	d506      	bpl.n	800c2a4 <FLASH_SetErrorCode+0x40>
 800c296:	4915      	ldr	r1, [pc, #84]	; (800c2ec <FLASH_SetErrorCode+0x88>)
 800c298:	69ca      	ldr	r2, [r1, #28]
 800c29a:	f042 0204 	orr.w	r2, r2, #4
 800c29e:	61ca      	str	r2, [r1, #28]
 800c2a0:	2240      	movs	r2, #64	; 0x40
 800c2a2:	60da      	str	r2, [r3, #12]
 800c2a4:	68da      	ldr	r2, [r3, #12]
 800c2a6:	0610      	lsls	r0, r2, #24
 800c2a8:	d506      	bpl.n	800c2b8 <FLASH_SetErrorCode+0x54>
 800c2aa:	4910      	ldr	r1, [pc, #64]	; (800c2ec <FLASH_SetErrorCode+0x88>)
 800c2ac:	69ca      	ldr	r2, [r1, #28]
 800c2ae:	f042 0202 	orr.w	r2, r2, #2
 800c2b2:	61ca      	str	r2, [r1, #28]
 800c2b4:	2280      	movs	r2, #128	; 0x80
 800c2b6:	60da      	str	r2, [r3, #12]
 800c2b8:	4b0b      	ldr	r3, [pc, #44]	; (800c2e8 <FLASH_SetErrorCode+0x84>)
 800c2ba:	68da      	ldr	r2, [r3, #12]
 800c2bc:	05d1      	lsls	r1, r2, #23
 800c2be:	d507      	bpl.n	800c2d0 <FLASH_SetErrorCode+0x6c>
 800c2c0:	490a      	ldr	r1, [pc, #40]	; (800c2ec <FLASH_SetErrorCode+0x88>)
 800c2c2:	69ca      	ldr	r2, [r1, #28]
 800c2c4:	f042 0201 	orr.w	r2, r2, #1
 800c2c8:	61ca      	str	r2, [r1, #28]
 800c2ca:	f44f 7280 	mov.w	r2, #256	; 0x100
 800c2ce:	60da      	str	r2, [r3, #12]
 800c2d0:	68da      	ldr	r2, [r3, #12]
 800c2d2:	0792      	lsls	r2, r2, #30
 800c2d4:	d506      	bpl.n	800c2e4 <FLASH_SetErrorCode+0x80>
 800c2d6:	4905      	ldr	r1, [pc, #20]	; (800c2ec <FLASH_SetErrorCode+0x88>)
 800c2d8:	69ca      	ldr	r2, [r1, #28]
 800c2da:	f042 0220 	orr.w	r2, r2, #32
 800c2de:	61ca      	str	r2, [r1, #28]
 800c2e0:	2202      	movs	r2, #2
 800c2e2:	60da      	str	r2, [r3, #12]
 800c2e4:	4770      	bx	lr
 800c2e6:	bf00      	nop
 800c2e8:	40023c00 	.word	0x40023c00
 800c2ec:	20001478 	.word	0x20001478

0800c2f0 <HAL_FLASH_EndOfOperationCallback>:
 800c2f0:	4770      	bx	lr

0800c2f2 <HAL_FLASH_OperationErrorCallback>:
 800c2f2:	4770      	bx	lr

0800c2f4 <HAL_FLASH_IRQHandler>:
 800c2f4:	b538      	push	{r3, r4, r5, lr}
 800c2f6:	4b2e      	ldr	r3, [pc, #184]	; (800c3b0 <HAL_FLASH_IRQHandler+0xbc>)
 800c2f8:	4c2e      	ldr	r4, [pc, #184]	; (800c3b4 <HAL_FLASH_IRQHandler+0xc0>)
 800c2fa:	68db      	ldr	r3, [r3, #12]
 800c2fc:	f413 7ff9 	tst.w	r3, #498	; 0x1f2
 800c300:	d00d      	beq.n	800c31e <HAL_FLASH_IRQHandler+0x2a>
 800c302:	7823      	ldrb	r3, [r4, #0]
 800c304:	2b01      	cmp	r3, #1
 800c306:	d135      	bne.n	800c374 <HAL_FLASH_IRQHandler+0x80>
 800c308:	f04f 33ff 	mov.w	r3, #4294967295	; 0xffffffff
 800c30c:	68e5      	ldr	r5, [r4, #12]
 800c30e:	60e3      	str	r3, [r4, #12]
 800c310:	f7ff ffa8 	bl	800c264 <FLASH_SetErrorCode>
 800c314:	4628      	mov	r0, r5
 800c316:	f7ff ffec 	bl	800c2f2 <HAL_FLASH_OperationErrorCallback>
 800c31a:	2300      	movs	r3, #0
 800c31c:	7023      	strb	r3, [r4, #0]
 800c31e:	4b24      	ldr	r3, [pc, #144]	; (800c3b0 <HAL_FLASH_IRQHandler+0xbc>)
 800c320:	68da      	ldr	r2, [r3, #12]
 800c322:	07d2      	lsls	r2, r2, #31
 800c324:	d513      	bpl.n	800c34e <HAL_FLASH_IRQHandler+0x5a>
 800c326:	2201      	movs	r2, #1
 800c328:	60da      	str	r2, [r3, #12]
 800c32a:	7823      	ldrb	r3, [r4, #0]
 800c32c:	4293      	cmp	r3, r2
 800c32e:	d131      	bne.n	800c394 <HAL_FLASH_IRQHandler+0xa0>
 800c330:	6863      	ldr	r3, [r4, #4]
 800c332:	3b01      	subs	r3, #1
 800c334:	6063      	str	r3, [r4, #4]
 800c336:	6863      	ldr	r3, [r4, #4]
 800c338:	b313      	cbz	r3, 800c380 <HAL_FLASH_IRQHandler+0x8c>
 800c33a:	68e0      	ldr	r0, [r4, #12]
 800c33c:	f7ff ffd8 	bl	800c2f0 <HAL_FLASH_EndOfOperationCallback>
 800c340:	68e3      	ldr	r3, [r4, #12]
 800c342:	3301      	adds	r3, #1
 800c344:	60e3      	str	r3, [r4, #12]
 800c346:	68e0      	ldr	r0, [r4, #12]
 800c348:	7a21      	ldrb	r1, [r4, #8]
 800c34a:	f000 f835 	bl	800c3b8 <FLASH_Erase_Sector>
 800c34e:	7823      	ldrb	r3, [r4, #0]
 800c350:	f003 01ff 	and.w	r1, r3, #255	; 0xff
 800c354:	b96b      	cbnz	r3, 800c372 <HAL_FLASH_IRQHandler+0x7e>
 800c356:	4b16      	ldr	r3, [pc, #88]	; (800c3b0 <HAL_FLASH_IRQHandler+0xbc>)
 800c358:	691a      	ldr	r2, [r3, #16]
 800c35a:	f022 02ff 	bic.w	r2, r2, #255	; 0xff
 800c35e:	611a      	str	r2, [r3, #16]
 800c360:	691a      	ldr	r2, [r3, #16]
 800c362:	f022 7280 	bic.w	r2, r2, #16777216	; 0x1000000
 800c366:	611a      	str	r2, [r3, #16]
 800c368:	691a      	ldr	r2, [r3, #16]
 800c36a:	f022 7200 	bic.w	r2, r2, #33554432	; 0x2000000
 800c36e:	611a      	str	r2, [r3, #16]
 800c370:	7621      	strb	r1, [r4, #24]
 800c372:	bd38      	pop	{r3, r4, r5, pc}
 800c374:	7823      	ldrb	r3, [r4, #0]
 800c376:	2b02      	cmp	r3, #2
 800c378:	bf0c      	ite	eq
 800c37a:	6925      	ldreq	r5, [r4, #16]
 800c37c:	6965      	ldrne	r5, [r4, #20]
 800c37e:	e7c7      	b.n	800c310 <HAL_FLASH_IRQHandler+0x1c>
 800c380:	f04f 35ff 	mov.w	r5, #4294967295	; 0xffffffff
 800c384:	60e5      	str	r5, [r4, #12]
 800c386:	7023      	strb	r3, [r4, #0]
 800c388:	f000 f83c 	bl	800c404 <FLASH_FlushCaches>
 800c38c:	4628      	mov	r0, r5
 800c38e:	f7ff ffaf 	bl	800c2f0 <HAL_FLASH_EndOfOperationCallback>
 800c392:	e7dc      	b.n	800c34e <HAL_FLASH_IRQHandler+0x5a>
 800c394:	7823      	ldrb	r3, [r4, #0]
 800c396:	2b02      	cmp	r3, #2
 800c398:	d107      	bne.n	800c3aa <HAL_FLASH_IRQHandler+0xb6>
 800c39a:	f000 f833 	bl	800c404 <FLASH_FlushCaches>
 800c39e:	6920      	ldr	r0, [r4, #16]
 800c3a0:	f7ff ffa6 	bl	800c2f0 <HAL_FLASH_EndOfOperationCallback>
 800c3a4:	2300      	movs	r3, #0
 800c3a6:	7023      	strb	r3, [r4, #0]
 800c3a8:	e7d1      	b.n	800c34e <HAL_FLASH_IRQHandler+0x5a>
 800c3aa:	6960      	ldr	r0, [r4, #20]
 800c3ac:	e7f8      	b.n	800c3a0 <HAL_FLASH_IRQHandler+0xac>
 800c3ae:	bf00      	nop
 800c3b0:	40023c00 	.word	0x40023c00
 800c3b4:	20001478 	.word	0x20001478

0800c3b8 <FLASH_Erase_Sector>:
 800c3b8:	b139      	cbz	r1, 800c3ca <FLASH_Erase_Sector+0x12>
 800c3ba:	2901      	cmp	r1, #1
 800c3bc:	d01c      	beq.n	800c3f8 <FLASH_Erase_Sector+0x40>
 800c3be:	2902      	cmp	r1, #2
 800c3c0:	bf0c      	ite	eq
 800c3c2:	f44f 7100 	moveq.w	r1, #512	; 0x200
 800c3c6:	f44f 7140 	movne.w	r1, #768	; 0x300
 800c3ca:	4b0d      	ldr	r3, [pc, #52]	; (800c400 <FLASH_Erase_Sector+0x48>)
 800c3cc:	691a      	ldr	r2, [r3, #16]
 800c3ce:	f422 7240 	bic.w	r2, r2, #768	; 0x300
 800c3d2:	611a      	str	r2, [r3, #16]
 800c3d4:	691a      	ldr	r2, [r3, #16]
 800c3d6:	4311      	orrs	r1, r2
 800c3d8:	6119      	str	r1, [r3, #16]
 800c3da:	691a      	ldr	r2, [r3, #16]
 800c3dc:	f022 02f8 	bic.w	r2, r2, #248	; 0xf8
 800c3e0:	611a      	str	r2, [r3, #16]
 800c3e2:	691a      	ldr	r2, [r3, #16]
 800c3e4:	ea42 00c0 	orr.w	r0, r2, r0, lsl #3
 800c3e8:	f040 0002 	orr.w	r0, r0, #2
 800c3ec:	6118      	str	r0, [r3, #16]
 800c3ee:	691a      	ldr	r2, [r3, #16]
 800c3f0:	f442 3280 	orr.w	r2, r2, #65536	; 0x10000
 800c3f4:	611a      	str	r2, [r3, #16]
 800c3f6:	4770      	bx	lr
 800c3f8:	f44f 7180 	mov.w	r1, #256	; 0x100
 800c3fc:	e7e5      	b.n	800c3ca <FLASH_Erase_Sector+0x12>
 800c3fe:	bf00      	nop
 800c400:	40023c00 	.word	0x40023c00

0800c404 <FLASH_FlushCaches>:
 800c404:	4b14      	ldr	r3, [pc, #80]	; (800c458 <FLASH_FlushCaches+0x54>)
 800c406:	681a      	ldr	r2, [r3, #0]
 800c408:	0591      	lsls	r1, r2, #22
 800c40a:	d50f      	bpl.n	800c42c <FLASH_FlushCaches+0x28>
 800c40c:	681a      	ldr	r2, [r3, #0]
 800c40e:	f422 7200 	bic.w	r2, r2, #512	; 0x200
 800c412:	601a      	str	r2, [r3, #0]
 800c414:	681a      	ldr	r2, [r3, #0]
 800c416:	f442 6200 	orr.w	r2, r2, #2048	; 0x800
 800c41a:	601a      	str	r2, [r3, #0]
 800c41c:	681a      	ldr	r2, [r3, #0]
 800c41e:	f422 6200 	bic.w	r2, r2, #2048	; 0x800
 800c422:	601a      	str	r2, [r3, #0]
 800c424:	681a      	ldr	r2, [r3, #0]
 800c426:	f442 7200 	orr.w	r2, r2, #512	; 0x200
 800c42a:	601a      	str	r2, [r3, #0]
 800c42c:	4b0a      	ldr	r3, [pc, #40]	; (800c458 <FLASH_FlushCaches+0x54>)
 800c42e:	681a      	ldr	r2, [r3, #0]
 800c430:	0552      	lsls	r2, r2, #21
 800c432:	d50f      	bpl.n	800c454 <FLASH_FlushCaches+0x50>
 800c434:	681a      	ldr	r2, [r3, #0]
 800c436:	f422 6280 	bic.w	r2, r2, #1024	; 0x400
 800c43a:	601a      	str	r2, [r3, #0]
 800c43c:	681a      	ldr	r2, [r3, #0]
 800c43e:	f442 5280 	orr.w	r2, r2, #4096	; 0x1000
 800c442:	601a      	str	r2, [r3, #0]
 800c444:	681a      	ldr	r2, [r3, #0]
 800c446:	f422 5280 	bic.w	r2, r2, #4096	; 0x1000
 800c44a:	601a      	str	r2, [r3, #0]
 800c44c:	681a      	ldr	r2, [r3, #0]
 800c44e:	f442 6280 	orr.w	r2, r2, #1024	; 0x400
 800c452:	601a      	str	r2, [r3, #0]
 800c454:	4770      	bx	lr
 800c456:	bf00      	nop
 800c458:	40023c00 	.word	0x40023c00

0800c45c <HAL_GPIO_Init>:
 800c45c:	e92d 4ff7 	stmdb	sp!, {r0, r1, r2, r4, r5, r6, r7, r8, r9, sl, fp, lr}
 800c460:	f8df 9184 	ldr.w	r9, [pc, #388]	; 800c5e8 <HAL_GPIO_Init+0x18c>
 800c464:	4a5e      	ldr	r2, [pc, #376]	; (800c5e0 <HAL_GPIO_Init+0x184>)
 800c466:	2300      	movs	r3, #0
 800c468:	680d      	ldr	r5, [r1, #0]
 800c46a:	2401      	movs	r4, #1
 800c46c:	409c      	lsls	r4, r3
 800c46e:	ea04 0c05 	and.w	ip, r4, r5
 800c472:	43ac      	bics	r4, r5
 800c474:	f040 80a5 	bne.w	800c5c2 <HAL_GPIO_Init+0x166>
 800c478:	684d      	ldr	r5, [r1, #4]
 800c47a:	f005 0403 	and.w	r4, r5, #3
 800c47e:	ea4f 0843 	mov.w	r8, r3, lsl #1
 800c482:	2603      	movs	r6, #3
 800c484:	1e67      	subs	r7, r4, #1
 800c486:	fa06 f608 	lsl.w	r6, r6, r8
 800c48a:	2f01      	cmp	r7, #1
 800c48c:	ea6f 0606 	mvn.w	r6, r6
 800c490:	d834      	bhi.n	800c4fc <HAL_GPIO_Init+0xa0>
 800c492:	6887      	ldr	r7, [r0, #8]
 800c494:	ea07 0e06 	and.w	lr, r7, r6
 800c498:	68cf      	ldr	r7, [r1, #12]
 800c49a:	fa07 f708 	lsl.w	r7, r7, r8
 800c49e:	ea47 070e 	orr.w	r7, r7, lr
 800c4a2:	6087      	str	r7, [r0, #8]
 800c4a4:	6847      	ldr	r7, [r0, #4]
 800c4a6:	ea27 0e0c 	bic.w	lr, r7, ip
 800c4aa:	f3c5 1700 	ubfx	r7, r5, #4, #1
 800c4ae:	409f      	lsls	r7, r3
 800c4b0:	ea47 070e 	orr.w	r7, r7, lr
 800c4b4:	6047      	str	r7, [r0, #4]
 800c4b6:	68c7      	ldr	r7, [r0, #12]
 800c4b8:	ea07 0e06 	and.w	lr, r7, r6
 800c4bc:	688f      	ldr	r7, [r1, #8]
 800c4be:	fa07 f708 	lsl.w	r7, r7, r8
 800c4c2:	ea47 070e 	orr.w	r7, r7, lr
 800c4c6:	2c02      	cmp	r4, #2
 800c4c8:	60c7      	str	r7, [r0, #12]
 800c4ca:	d119      	bne.n	800c500 <HAL_GPIO_Init+0xa4>
 800c4cc:	ea4f 0ad3 	mov.w	sl, r3, lsr #3
 800c4d0:	eb00 0a8a 	add.w	sl, r0, sl, lsl #2
 800c4d4:	f003 0b07 	and.w	fp, r3, #7
 800c4d8:	f8da 7020 	ldr.w	r7, [sl, #32]
 800c4dc:	ea4f 0b8b 	mov.w	fp, fp, lsl #2
 800c4e0:	f04f 0e0f 	mov.w	lr, #15
 800c4e4:	fa0e fe0b 	lsl.w	lr, lr, fp
 800c4e8:	ea27 0e0e 	bic.w	lr, r7, lr
 800c4ec:	690f      	ldr	r7, [r1, #16]
 800c4ee:	fa07 f70b 	lsl.w	r7, r7, fp
 800c4f2:	ea47 070e 	orr.w	r7, r7, lr
 800c4f6:	f8ca 7020 	str.w	r7, [sl, #32]
 800c4fa:	e001      	b.n	800c500 <HAL_GPIO_Init+0xa4>
 800c4fc:	2c03      	cmp	r4, #3
 800c4fe:	d1da      	bne.n	800c4b6 <HAL_GPIO_Init+0x5a>
 800c500:	6807      	ldr	r7, [r0, #0]
 800c502:	fa04 f408 	lsl.w	r4, r4, r8
 800c506:	403e      	ands	r6, r7
 800c508:	4326      	orrs	r6, r4
 800c50a:	f415 3f40 	tst.w	r5, #196608	; 0x30000
 800c50e:	6006      	str	r6, [r0, #0]
 800c510:	d057      	beq.n	800c5c2 <HAL_GPIO_Init+0x166>
 800c512:	f04f 0a00 	mov.w	sl, #0
 800c516:	f8cd a004 	str.w	sl, [sp, #4]
 800c51a:	f8d9 6044 	ldr.w	r6, [r9, #68]	; 0x44
 800c51e:	4c31      	ldr	r4, [pc, #196]	; (800c5e4 <HAL_GPIO_Init+0x188>)
 800c520:	f446 4680 	orr.w	r6, r6, #16384	; 0x4000
 800c524:	f8c9 6044 	str.w	r6, [r9, #68]	; 0x44
 800c528:	f8d9 6044 	ldr.w	r6, [r9, #68]	; 0x44
 800c52c:	f406 4680 	and.w	r6, r6, #16384	; 0x4000
 800c530:	9601      	str	r6, [sp, #4]
 800c532:	9e01      	ldr	r6, [sp, #4]
 800c534:	f023 0603 	bic.w	r6, r3, #3
 800c538:	f106 4680 	add.w	r6, r6, #1073741824	; 0x40000000
 800c53c:	f506 369c 	add.w	r6, r6, #79872	; 0x13800
 800c540:	f003 0e03 	and.w	lr, r3, #3
 800c544:	f8d6 8008 	ldr.w	r8, [r6, #8]
 800c548:	ea4f 0e8e 	mov.w	lr, lr, lsl #2
 800c54c:	270f      	movs	r7, #15
 800c54e:	fa07 f70e 	lsl.w	r7, r7, lr
 800c552:	42a0      	cmp	r0, r4
 800c554:	ea28 0707 	bic.w	r7, r8, r7
 800c558:	d03a      	beq.n	800c5d0 <HAL_GPIO_Init+0x174>
 800c55a:	f504 6480 	add.w	r4, r4, #1024	; 0x400
 800c55e:	42a0      	cmp	r0, r4
 800c560:	d038      	beq.n	800c5d4 <HAL_GPIO_Init+0x178>
 800c562:	f504 6480 	add.w	r4, r4, #1024	; 0x400
 800c566:	42a0      	cmp	r0, r4
 800c568:	d036      	beq.n	800c5d8 <HAL_GPIO_Init+0x17c>
 800c56a:	f504 6480 	add.w	r4, r4, #1024	; 0x400
 800c56e:	42a0      	cmp	r0, r4
 800c570:	d034      	beq.n	800c5dc <HAL_GPIO_Init+0x180>
 800c572:	f504 6480 	add.w	r4, r4, #1024	; 0x400
 800c576:	42a0      	cmp	r0, r4
 800c578:	bf0c      	ite	eq
 800c57a:	2404      	moveq	r4, #4
 800c57c:	2407      	movne	r4, #7
 800c57e:	fa04 f40e 	lsl.w	r4, r4, lr
 800c582:	433c      	orrs	r4, r7
 800c584:	60b4      	str	r4, [r6, #8]
 800c586:	6814      	ldr	r4, [r2, #0]
 800c588:	ea6f 060c 	mvn.w	r6, ip
 800c58c:	03ef      	lsls	r7, r5, #15
 800c58e:	bf54      	ite	pl
 800c590:	4034      	andpl	r4, r6
 800c592:	ea4c 0404 	orrmi.w	r4, ip, r4
 800c596:	6014      	str	r4, [r2, #0]
 800c598:	6854      	ldr	r4, [r2, #4]
 800c59a:	03af      	lsls	r7, r5, #14
 800c59c:	bf54      	ite	pl
 800c59e:	4034      	andpl	r4, r6
 800c5a0:	ea4c 0404 	orrmi.w	r4, ip, r4
 800c5a4:	6054      	str	r4, [r2, #4]
 800c5a6:	6894      	ldr	r4, [r2, #8]
 800c5a8:	02ef      	lsls	r7, r5, #11
 800c5aa:	bf54      	ite	pl
 800c5ac:	4034      	andpl	r4, r6
 800c5ae:	ea4c 0404 	orrmi.w	r4, ip, r4
 800c5b2:	6094      	str	r4, [r2, #8]
 800c5b4:	68d4      	ldr	r4, [r2, #12]
 800c5b6:	02ad      	lsls	r5, r5, #10
 800c5b8:	bf54      	ite	pl
 800c5ba:	4034      	andpl	r4, r6
 800c5bc:	ea4c 0404 	orrmi.w	r4, ip, r4
 800c5c0:	60d4      	str	r4, [r2, #12]
 800c5c2:	3301      	adds	r3, #1
 800c5c4:	2b10      	cmp	r3, #16
 800c5c6:	f47f af4f 	bne.w	800c468 <HAL_GPIO_Init+0xc>
 800c5ca:	b003      	add	sp, #12
 800c5cc:	e8bd 8ff0 	ldmia.w	sp!, {r4, r5, r6, r7, r8, r9, sl, fp, pc}
 800c5d0:	4654      	mov	r4, sl
 800c5d2:	e7d4      	b.n	800c57e <HAL_GPIO_Init+0x122>
 800c5d4:	2401      	movs	r4, #1
 800c5d6:	e7d2      	b.n	800c57e <HAL_GPIO_Init+0x122>
 800c5d8:	2402      	movs	r4, #2
 800c5da:	e7d0      	b.n	800c57e <HAL_GPIO_Init+0x122>
 800c5dc:	2403      	movs	r4, #3
 800c5de:	e7ce      	b.n	800c57e <HAL_GPIO_Init+0x122>
 800c5e0:	40013c00 	.word	0x40013c00
 800c5e4:	40020000 	.word	0x40020000
 800c5e8:	40023800 	.word	0x40023800

0800c5ec <HAL_GPIO_ReadPin>:
 800c5ec:	6903      	ldr	r3, [r0, #16]
 800c5ee:	4219      	tst	r1, r3
 800c5f0:	bf14      	ite	ne
 800c5f2:	2001      	movne	r0, #1
 800c5f4:	2000      	moveq	r0, #0
 800c5f6:	4770      	bx	lr

0800c5f8 <HAL_GPIO_WritePin>:
 800c5f8:	b10a      	cbz	r2, 800c5fe <HAL_GPIO_WritePin+0x6>
 800c5fa:	6181      	str	r1, [r0, #24]
 800c5fc:	4770      	bx	lr
 800c5fe:	0409      	lsls	r1, r1, #16
 800c600:	e7fb      	b.n	800c5fa <HAL_GPIO_WritePin+0x2>

0800c602 <HAL_GPIO_TogglePin>:
 800c602:	6943      	ldr	r3, [r0, #20]
 800c604:	ea01 0203 	and.w	r2, r1, r3
 800c608:	ea21 0103 	bic.w	r1, r1, r3
 800c60c:	ea41 4102 	orr.w	r1, r1, r2, lsl #16
 800c610:	6181      	str	r1, [r0, #24]
 800c612:	4770      	bx	lr

0800c614 <HAL_GPIO_EXTI_IRQHandler>:
 800c614:	4a04      	ldr	r2, [pc, #16]	; (800c628 <HAL_GPIO_EXTI_IRQHandler+0x14>)
 800c616:	6951      	ldr	r1, [r2, #20]
 800c618:	4201      	tst	r1, r0
 800c61a:	b508      	push	{r3, lr}
 800c61c:	d002      	beq.n	800c624 <HAL_GPIO_EXTI_IRQHandler+0x10>
 800c61e:	6150      	str	r0, [r2, #20]
 800c620:	f7fe f936 	bl	800a890 <HAL_GPIO_EXTI_Callback>
 800c624:	bd08      	pop	{r3, pc}
 800c626:	bf00      	nop
 800c628:	40013c00 	.word	0x40013c00

0800c62c <I2C_IsAcknowledgeFailed>:
 800c62c:	6801      	ldr	r1, [r0, #0]
 800c62e:	694b      	ldr	r3, [r1, #20]
 800c630:	f413 6380 	ands.w	r3, r3, #1024	; 0x400
 800c634:	f04f 0200 	mov.w	r2, #0
 800c638:	d010      	beq.n	800c65c <I2C_IsAcknowledgeFailed+0x30>
 800c63a:	f46f 6380 	mvn.w	r3, #1024	; 0x400
 800c63e:	614b      	str	r3, [r1, #20]
 800c640:	2320      	movs	r3, #32
 800c642:	6302      	str	r2, [r0, #48]	; 0x30
 800c644:	f880 303d 	strb.w	r3, [r0, #61]	; 0x3d
 800c648:	f880 203e 	strb.w	r2, [r0, #62]	; 0x3e
 800c64c:	6c03      	ldr	r3, [r0, #64]	; 0x40
 800c64e:	f880 203c 	strb.w	r2, [r0, #60]	; 0x3c
 800c652:	f043 0304 	orr.w	r3, r3, #4
 800c656:	6403      	str	r3, [r0, #64]	; 0x40
 800c658:	2001      	movs	r0, #1
 800c65a:	4770      	bx	lr
 800c65c:	4618      	mov	r0, r3
 800c65e:	4770      	bx	lr

0800c660 <I2C_WaitOnMasterAddressFlagUntilTimeout>:
 800c660:	e92d 41f0 	stmdb	sp!, {r4, r5, r6, r7, r8, lr}
 800c664:	4604      	mov	r4, r0
 800c666:	460f      	mov	r7, r1
 800c668:	4616      	mov	r6, r2
 800c66a:	4698      	mov	r8, r3
 800c66c:	6825      	ldr	r5, [r4, #0]
 800c66e:	6968      	ldr	r0, [r5, #20]
 800c670:	ea27 0000 	bic.w	r0, r7, r0
 800c674:	b280      	uxth	r0, r0
 800c676:	b1b8      	cbz	r0, 800c6a8 <I2C_WaitOnMasterAddressFlagUntilTimeout+0x48>
 800c678:	696b      	ldr	r3, [r5, #20]
 800c67a:	055a      	lsls	r2, r3, #21
 800c67c:	d516      	bpl.n	800c6ac <I2C_WaitOnMasterAddressFlagUntilTimeout+0x4c>
 800c67e:	682b      	ldr	r3, [r5, #0]
 800c680:	f443 7300 	orr.w	r3, r3, #512	; 0x200
 800c684:	602b      	str	r3, [r5, #0]
 800c686:	f46f 6380 	mvn.w	r3, #1024	; 0x400
 800c68a:	616b      	str	r3, [r5, #20]
 800c68c:	2220      	movs	r2, #32
 800c68e:	2300      	movs	r3, #0
 800c690:	6323      	str	r3, [r4, #48]	; 0x30
 800c692:	f884 203d 	strb.w	r2, [r4, #61]	; 0x3d
 800c696:	f884 303e 	strb.w	r3, [r4, #62]	; 0x3e
 800c69a:	6c22      	ldr	r2, [r4, #64]	; 0x40
 800c69c:	f042 0204 	orr.w	r2, r2, #4
 800c6a0:	6422      	str	r2, [r4, #64]	; 0x40
 800c6a2:	f884 303c 	strb.w	r3, [r4, #60]	; 0x3c
 800c6a6:	2001      	movs	r0, #1
 800c6a8:	e8bd 81f0 	ldmia.w	sp!, {r4, r5, r6, r7, r8, pc}
 800c6ac:	1c73      	adds	r3, r6, #1
 800c6ae:	d0de      	beq.n	800c66e <I2C_WaitOnMasterAddressFlagUntilTimeout+0xe>
 800c6b0:	f7ff f8e2 	bl	800b878 <HAL_GetTick>
 800c6b4:	eba0 0008 	sub.w	r0, r0, r8
 800c6b8:	42b0      	cmp	r0, r6
 800c6ba:	d801      	bhi.n	800c6c0 <I2C_WaitOnMasterAddressFlagUntilTimeout+0x60>
 800c6bc:	2e00      	cmp	r6, #0
 800c6be:	d1d5      	bne.n	800c66c <I2C_WaitOnMasterAddressFlagUntilTimeout+0xc>
 800c6c0:	2300      	movs	r3, #0
 800c6c2:	2220      	movs	r2, #32
 800c6c4:	6323      	str	r3, [r4, #48]	; 0x30
 800c6c6:	f884 203d 	strb.w	r2, [r4, #61]	; 0x3d
 800c6ca:	f884 303e 	strb.w	r3, [r4, #62]	; 0x3e
 800c6ce:	6c22      	ldr	r2, [r4, #64]	; 0x40
 800c6d0:	f042 0220 	orr.w	r2, r2, #32
 800c6d4:	e7e4      	b.n	800c6a0 <I2C_WaitOnMasterAddressFlagUntilTimeout+0x40>

0800c6d6 <I2C_WaitOnBTFFlagUntilTimeout>:
 800c6d6:	b570      	push	{r4, r5, r6, lr}
 800c6d8:	4604      	mov	r4, r0
 800c6da:	460d      	mov	r5, r1
 800c6dc:	4616      	mov	r6, r2
 800c6de:	6823      	ldr	r3, [r4, #0]
 800c6e0:	695b      	ldr	r3, [r3, #20]
 800c6e2:	075b      	lsls	r3, r3, #29
 800c6e4:	d501      	bpl.n	800c6ea <I2C_WaitOnBTFFlagUntilTimeout+0x14>
 800c6e6:	2000      	movs	r0, #0
 800c6e8:	bd70      	pop	{r4, r5, r6, pc}
 800c6ea:	4620      	mov	r0, r4
 800c6ec:	f7ff ff9e 	bl	800c62c <I2C_IsAcknowledgeFailed>
 800c6f0:	b9a8      	cbnz	r0, 800c71e <I2C_WaitOnBTFFlagUntilTimeout+0x48>
 800c6f2:	1c6a      	adds	r2, r5, #1
 800c6f4:	d0f3      	beq.n	800c6de <I2C_WaitOnBTFFlagUntilTimeout+0x8>
 800c6f6:	f7ff f8bf 	bl	800b878 <HAL_GetTick>
 800c6fa:	1b80      	subs	r0, r0, r6
 800c6fc:	42a8      	cmp	r0, r5
 800c6fe:	d801      	bhi.n	800c704 <I2C_WaitOnBTFFlagUntilTimeout+0x2e>
 800c700:	2d00      	cmp	r5, #0
 800c702:	d1ec      	bne.n	800c6de <I2C_WaitOnBTFFlagUntilTimeout+0x8>
 800c704:	2300      	movs	r3, #0
 800c706:	2220      	movs	r2, #32
 800c708:	6323      	str	r3, [r4, #48]	; 0x30
 800c70a:	f884 203d 	strb.w	r2, [r4, #61]	; 0x3d
 800c70e:	f884 303e 	strb.w	r3, [r4, #62]	; 0x3e
 800c712:	6c22      	ldr	r2, [r4, #64]	; 0x40
 800c714:	f884 303c 	strb.w	r3, [r4, #60]	; 0x3c
 800c718:	f042 0220 	orr.w	r2, r2, #32
 800c71c:	6422      	str	r2, [r4, #64]	; 0x40
 800c71e:	2001      	movs	r0, #1
 800c720:	e7e2      	b.n	800c6e8 <I2C_WaitOnBTFFlagUntilTimeout+0x12>

0800c722 <I2C_WaitOnFlagUntilTimeout>:
 800c722:	e92d 46f8 	stmdb	sp!, {r3, r4, r5, r6, r7, r9, sl, lr}
 800c726:	4606      	mov	r6, r0
 800c728:	460f      	mov	r7, r1
 800c72a:	4691      	mov	r9, r2
 800c72c:	461d      	mov	r5, r3
 800c72e:	ea4f 4a11 	mov.w	sl, r1, lsr #16
 800c732:	6833      	ldr	r3, [r6, #0]
 800c734:	f1ba 0f01 	cmp.w	sl, #1
 800c738:	bf0c      	ite	eq
 800c73a:	695c      	ldreq	r4, [r3, #20]
 800c73c:	699c      	ldrne	r4, [r3, #24]
 800c73e:	ea27 0404 	bic.w	r4, r7, r4
 800c742:	b2a4      	uxth	r4, r4
 800c744:	fab4 f484 	clz	r4, r4
 800c748:	0964      	lsrs	r4, r4, #5
 800c74a:	45a1      	cmp	r9, r4
 800c74c:	d001      	beq.n	800c752 <I2C_WaitOnFlagUntilTimeout+0x30>
 800c74e:	2000      	movs	r0, #0
 800c750:	e017      	b.n	800c782 <I2C_WaitOnFlagUntilTimeout+0x60>
 800c752:	1c6a      	adds	r2, r5, #1
 800c754:	d0ee      	beq.n	800c734 <I2C_WaitOnFlagUntilTimeout+0x12>
 800c756:	f7ff f88f 	bl	800b878 <HAL_GetTick>
 800c75a:	9b08      	ldr	r3, [sp, #32]
 800c75c:	1ac0      	subs	r0, r0, r3
 800c75e:	42a8      	cmp	r0, r5
 800c760:	d801      	bhi.n	800c766 <I2C_WaitOnFlagUntilTimeout+0x44>
 800c762:	2d00      	cmp	r5, #0
 800c764:	d1e5      	bne.n	800c732 <I2C_WaitOnFlagUntilTimeout+0x10>
 800c766:	2300      	movs	r3, #0
 800c768:	2220      	movs	r2, #32
 800c76a:	6333      	str	r3, [r6, #48]	; 0x30
 800c76c:	f886 203d 	strb.w	r2, [r6, #61]	; 0x3d
 800c770:	f886 303e 	strb.w	r3, [r6, #62]	; 0x3e
 800c774:	6c32      	ldr	r2, [r6, #64]	; 0x40
 800c776:	f886 303c 	strb.w	r3, [r6, #60]	; 0x3c
 800c77a:	f042 0220 	orr.w	r2, r2, #32
 800c77e:	6432      	str	r2, [r6, #64]	; 0x40
 800c780:	2001      	movs	r0, #1
 800c782:	e8bd 86f8 	ldmia.w	sp!, {r3, r4, r5, r6, r7, r9, sl, pc}

0800c786 <I2C_WaitOnTXEFlagUntilTimeout>:
 800c786:	b570      	push	{r4, r5, r6, lr}
 800c788:	4604      	mov	r4, r0
 800c78a:	460d      	mov	r5, r1
 800c78c:	4616      	mov	r6, r2
 800c78e:	6823      	ldr	r3, [r4, #0]
 800c790:	695b      	ldr	r3, [r3, #20]
 800c792:	061b      	lsls	r3, r3, #24
 800c794:	d501      	bpl.n	800c79a <I2C_WaitOnTXEFlagUntilTimeout+0x14>
 800c796:	2000      	movs	r0, #0
 800c798:	bd70      	pop	{r4, r5, r6, pc}
 800c79a:	4620      	mov	r0, r4
 800c79c:	f7ff ff46 	bl	800c62c <I2C_IsAcknowledgeFailed>
 800c7a0:	b9a8      	cbnz	r0, 800c7ce <I2C_WaitOnTXEFlagUntilTimeout+0x48>
 800c7a2:	1c6a      	adds	r2, r5, #1
 800c7a4:	d0f3      	beq.n	800c78e <I2C_WaitOnTXEFlagUntilTimeout+0x8>
 800c7a6:	f7ff f867 	bl	800b878 <HAL_GetTick>
 800c7aa:	1b80      	subs	r0, r0, r6
 800c7ac:	42a8      	cmp	r0, r5
 800c7ae:	d801      	bhi.n	800c7b4 <I2C_WaitOnTXEFlagUntilTimeout+0x2e>
 800c7b0:	2d00      	cmp	r5, #0
 800c7b2:	d1ec      	bne.n	800c78e <I2C_WaitOnTXEFlagUntilTimeout+0x8>
 800c7b4:	2300      	movs	r3, #0
 800c7b6:	2220      	movs	r2, #32
 800c7b8:	6323      	str	r3, [r4, #48]	; 0x30
 800c7ba:	f884 203d 	strb.w	r2, [r4, #61]	; 0x3d
 800c7be:	f884 303e 	strb.w	r3, [r4, #62]	; 0x3e
 800c7c2:	6c22      	ldr	r2, [r4, #64]	; 0x40
 800c7c4:	f884 303c 	strb.w	r3, [r4, #60]	; 0x3c
 800c7c8:	f042 0220 	orr.w	r2, r2, #32
 800c7cc:	6422      	str	r2, [r4, #64]	; 0x40
 800c7ce:	2001      	movs	r0, #1
 800c7d0:	e7e2      	b.n	800c798 <I2C_WaitOnTXEFlagUntilTimeout+0x12>
	...

0800c7d4 <HAL_I2C_Init>:
 800c7d4:	b570      	push	{r4, r5, r6, lr}
 800c7d6:	4604      	mov	r4, r0
 800c7d8:	b908      	cbnz	r0, 800c7de <HAL_I2C_Init+0xa>
 800c7da:	2001      	movs	r0, #1
 800c7dc:	bd70      	pop	{r4, r5, r6, pc}
 800c7de:	f890 303d 	ldrb.w	r3, [r0, #61]	; 0x3d
 800c7e2:	f003 02ff 	and.w	r2, r3, #255	; 0xff
 800c7e6:	b91b      	cbnz	r3, 800c7f0 <HAL_I2C_Init+0x1c>
 800c7e8:	f880 203c 	strb.w	r2, [r0, #60]	; 0x3c
 800c7ec:	f7fe fd88 	bl	800b300 <HAL_I2C_MspInit>
 800c7f0:	2324      	movs	r3, #36	; 0x24
 800c7f2:	f884 303d 	strb.w	r3, [r4, #61]	; 0x3d
 800c7f6:	6823      	ldr	r3, [r4, #0]
 800c7f8:	681a      	ldr	r2, [r3, #0]
 800c7fa:	f022 0201 	bic.w	r2, r2, #1
 800c7fe:	601a      	str	r2, [r3, #0]
 800c800:	681a      	ldr	r2, [r3, #0]
 800c802:	f442 4200 	orr.w	r2, r2, #32768	; 0x8000
 800c806:	601a      	str	r2, [r3, #0]
 800c808:	681a      	ldr	r2, [r3, #0]
 800c80a:	f422 4200 	bic.w	r2, r2, #32768	; 0x8000
 800c80e:	601a      	str	r2, [r3, #0]
 800c810:	f001 fb4a 	bl	800dea8 <HAL_RCC_GetPCLK1Freq>
 800c814:	4a3f      	ldr	r2, [pc, #252]	; (800c914 <HAL_I2C_Init+0x140>)
 800c816:	6863      	ldr	r3, [r4, #4]
 800c818:	4293      	cmp	r3, r2
 800c81a:	bf94      	ite	ls
 800c81c:	4a3e      	ldrls	r2, [pc, #248]	; (800c918 <HAL_I2C_Init+0x144>)
 800c81e:	4a3f      	ldrhi	r2, [pc, #252]	; (800c91c <HAL_I2C_Init+0x148>)
 800c820:	4290      	cmp	r0, r2
 800c822:	bf8c      	ite	hi
 800c824:	2200      	movhi	r2, #0
 800c826:	2201      	movls	r2, #1
 800c828:	2a00      	cmp	r2, #0
 800c82a:	d1d6      	bne.n	800c7da <HAL_I2C_Init+0x6>
 800c82c:	6821      	ldr	r1, [r4, #0]
 800c82e:	4e3c      	ldr	r6, [pc, #240]	; (800c920 <HAL_I2C_Init+0x14c>)
 800c830:	684a      	ldr	r2, [r1, #4]
 800c832:	fbb0 f6f6 	udiv	r6, r0, r6
 800c836:	f022 023f 	bic.w	r2, r2, #63	; 0x3f
 800c83a:	4332      	orrs	r2, r6
 800c83c:	604a      	str	r2, [r1, #4]
 800c83e:	4a35      	ldr	r2, [pc, #212]	; (800c914 <HAL_I2C_Init+0x140>)
 800c840:	6a0d      	ldr	r5, [r1, #32]
 800c842:	4293      	cmp	r3, r2
 800c844:	bf84      	itt	hi
 800c846:	f44f 7296 	movhi.w	r2, #300	; 0x12c
 800c84a:	4372      	mulhi	r2, r6
 800c84c:	f025 053f 	bic.w	r5, r5, #63	; 0x3f
 800c850:	bf91      	iteee	ls
 800c852:	1c72      	addls	r2, r6, #1
 800c854:	f44f 767a 	movhi.w	r6, #1000	; 0x3e8
 800c858:	fbb2 f2f6 	udivhi	r2, r2, r6
 800c85c:	3201      	addhi	r2, #1
 800c85e:	432a      	orrs	r2, r5
 800c860:	620a      	str	r2, [r1, #32]
 800c862:	69cd      	ldr	r5, [r1, #28]
 800c864:	1e42      	subs	r2, r0, #1
 800c866:	482b      	ldr	r0, [pc, #172]	; (800c914 <HAL_I2C_Init+0x140>)
 800c868:	f425 454f 	bic.w	r5, r5, #52992	; 0xcf00
 800c86c:	4283      	cmp	r3, r0
 800c86e:	f025 05ff 	bic.w	r5, r5, #255	; 0xff
 800c872:	d832      	bhi.n	800c8da <HAL_I2C_Init+0x106>
 800c874:	005b      	lsls	r3, r3, #1
 800c876:	fbb2 f3f3 	udiv	r3, r2, r3
 800c87a:	f640 72fc 	movw	r2, #4092	; 0xffc
 800c87e:	3301      	adds	r3, #1
 800c880:	4213      	tst	r3, r2
 800c882:	d042      	beq.n	800c90a <HAL_I2C_Init+0x136>
 800c884:	f3c3 030b 	ubfx	r3, r3, #0, #12
 800c888:	432b      	orrs	r3, r5
 800c88a:	61cb      	str	r3, [r1, #28]
 800c88c:	e9d4 3007 	ldrd	r3, r0, [r4, #28]
 800c890:	680a      	ldr	r2, [r1, #0]
 800c892:	4303      	orrs	r3, r0
 800c894:	f022 02c0 	bic.w	r2, r2, #192	; 0xc0
 800c898:	4313      	orrs	r3, r2
 800c89a:	600b      	str	r3, [r1, #0]
 800c89c:	688a      	ldr	r2, [r1, #8]
 800c89e:	e9d4 0303 	ldrd	r0, r3, [r4, #12]
 800c8a2:	f422 4203 	bic.w	r2, r2, #33536	; 0x8300
 800c8a6:	4303      	orrs	r3, r0
 800c8a8:	f022 02ff 	bic.w	r2, r2, #255	; 0xff
 800c8ac:	4313      	orrs	r3, r2
 800c8ae:	608b      	str	r3, [r1, #8]
 800c8b0:	e9d4 3005 	ldrd	r3, r0, [r4, #20]
 800c8b4:	68ca      	ldr	r2, [r1, #12]
 800c8b6:	4303      	orrs	r3, r0
 800c8b8:	f022 02ff 	bic.w	r2, r2, #255	; 0xff
 800c8bc:	4313      	orrs	r3, r2
 800c8be:	60cb      	str	r3, [r1, #12]
 800c8c0:	680b      	ldr	r3, [r1, #0]
 800c8c2:	f043 0301 	orr.w	r3, r3, #1
 800c8c6:	600b      	str	r3, [r1, #0]
 800c8c8:	2000      	movs	r0, #0
 800c8ca:	2320      	movs	r3, #32
 800c8cc:	6420      	str	r0, [r4, #64]	; 0x40
 800c8ce:	f884 303d 	strb.w	r3, [r4, #61]	; 0x3d
 800c8d2:	6320      	str	r0, [r4, #48]	; 0x30
 800c8d4:	f884 003e 	strb.w	r0, [r4, #62]	; 0x3e
 800c8d8:	e780      	b.n	800c7dc <HAL_I2C_Init+0x8>
 800c8da:	68a0      	ldr	r0, [r4, #8]
 800c8dc:	b950      	cbnz	r0, 800c8f4 <HAL_I2C_Init+0x120>
 800c8de:	eb03 0343 	add.w	r3, r3, r3, lsl #1
 800c8e2:	fbb2 f3f3 	udiv	r3, r2, r3
 800c8e6:	3301      	adds	r3, #1
 800c8e8:	f3c3 030b 	ubfx	r3, r3, #0, #12
 800c8ec:	b17b      	cbz	r3, 800c90e <HAL_I2C_Init+0x13a>
 800c8ee:	f443 4300 	orr.w	r3, r3, #32768	; 0x8000
 800c8f2:	e7c9      	b.n	800c888 <HAL_I2C_Init+0xb4>
 800c8f4:	2019      	movs	r0, #25
 800c8f6:	4343      	muls	r3, r0
 800c8f8:	fbb2 f3f3 	udiv	r3, r2, r3
 800c8fc:	3301      	adds	r3, #1
 800c8fe:	f3c3 030b 	ubfx	r3, r3, #0, #12
 800c902:	b123      	cbz	r3, 800c90e <HAL_I2C_Init+0x13a>
 800c904:	f443 4340 	orr.w	r3, r3, #49152	; 0xc000
 800c908:	e7be      	b.n	800c888 <HAL_I2C_Init+0xb4>
 800c90a:	2304      	movs	r3, #4
 800c90c:	e7bc      	b.n	800c888 <HAL_I2C_Init+0xb4>
 800c90e:	2301      	movs	r3, #1
 800c910:	e7ba      	b.n	800c888 <HAL_I2C_Init+0xb4>
 800c912:	bf00      	nop
 800c914:	000186a0 	.word	0x000186a0
 800c918:	001e847f 	.word	0x001e847f
 800c91c:	003d08ff 	.word	0x003d08ff
 800c920:	000f4240 	.word	0x000f4240

0800c924 <HAL_I2C_Master_Transmit>:
 800c924:	e92d 43f0 	stmdb	sp!, {r4, r5, r6, r7, r8, r9, lr}
 800c928:	4604      	mov	r4, r0
 800c92a:	b085      	sub	sp, #20
 800c92c:	4698      	mov	r8, r3
 800c92e:	9f0c      	ldr	r7, [sp, #48]	; 0x30
 800c930:	460d      	mov	r5, r1
 800c932:	4691      	mov	r9, r2
 800c934:	f7fe ffa0 	bl	800b878 <HAL_GetTick>
 800c938:	f894 303d 	ldrb.w	r3, [r4, #61]	; 0x3d
 800c93c:	2b20      	cmp	r3, #32
 800c93e:	4606      	mov	r6, r0
 800c940:	d004      	beq.n	800c94c <HAL_I2C_Master_Transmit+0x28>
 800c942:	2502      	movs	r5, #2
 800c944:	4628      	mov	r0, r5
 800c946:	b005      	add	sp, #20
 800c948:	e8bd 83f0 	ldmia.w	sp!, {r4, r5, r6, r7, r8, r9, pc}
 800c94c:	9000      	str	r0, [sp, #0]
 800c94e:	495d      	ldr	r1, [pc, #372]	; (800cac4 <HAL_I2C_Master_Transmit+0x1a0>)
 800c950:	2319      	movs	r3, #25
 800c952:	2201      	movs	r2, #1
 800c954:	4620      	mov	r0, r4
 800c956:	f7ff fee4 	bl	800c722 <I2C_WaitOnFlagUntilTimeout>
 800c95a:	2800      	cmp	r0, #0
 800c95c:	d1f1      	bne.n	800c942 <HAL_I2C_Master_Transmit+0x1e>
 800c95e:	f894 303c 	ldrb.w	r3, [r4, #60]	; 0x3c
 800c962:	2b01      	cmp	r3, #1
 800c964:	d0ed      	beq.n	800c942 <HAL_I2C_Master_Transmit+0x1e>
 800c966:	6821      	ldr	r1, [r4, #0]
 800c968:	2301      	movs	r3, #1
 800c96a:	f884 303c 	strb.w	r3, [r4, #60]	; 0x3c
 800c96e:	680b      	ldr	r3, [r1, #0]
 800c970:	07da      	lsls	r2, r3, #31
 800c972:	bf5e      	ittt	pl
 800c974:	680b      	ldrpl	r3, [r1, #0]
 800c976:	f043 0301 	orrpl.w	r3, r3, #1
 800c97a:	600b      	strpl	r3, [r1, #0]
 800c97c:	680b      	ldr	r3, [r1, #0]
 800c97e:	f423 6300 	bic.w	r3, r3, #2048	; 0x800
 800c982:	600b      	str	r3, [r1, #0]
 800c984:	2321      	movs	r3, #33	; 0x21
 800c986:	f884 303d 	strb.w	r3, [r4, #61]	; 0x3d
 800c98a:	2310      	movs	r3, #16
 800c98c:	f884 303e 	strb.w	r3, [r4, #62]	; 0x3e
 800c990:	2300      	movs	r3, #0
 800c992:	6423      	str	r3, [r4, #64]	; 0x40
 800c994:	f8a4 802a 	strh.w	r8, [r4, #42]	; 0x2a
 800c998:	8d63      	ldrh	r3, [r4, #42]	; 0x2a
 800c99a:	8523      	strh	r3, [r4, #40]	; 0x28
 800c99c:	4b4a      	ldr	r3, [pc, #296]	; (800cac8 <HAL_I2C_Master_Transmit+0x1a4>)
 800c99e:	62e3      	str	r3, [r4, #44]	; 0x2c
 800c9a0:	6ae3      	ldr	r3, [r4, #44]	; 0x2c
 800c9a2:	f8c4 9024 	str.w	r9, [r4, #36]	; 0x24
 800c9a6:	2b08      	cmp	r3, #8
 800c9a8:	d004      	beq.n	800c9b4 <HAL_I2C_Master_Transmit+0x90>
 800c9aa:	2b01      	cmp	r3, #1
 800c9ac:	d002      	beq.n	800c9b4 <HAL_I2C_Master_Transmit+0x90>
 800c9ae:	f513 3f80 	cmn.w	r3, #65536	; 0x10000
 800c9b2:	d104      	bne.n	800c9be <HAL_I2C_Master_Transmit+0x9a>
 800c9b4:	680b      	ldr	r3, [r1, #0]
 800c9b6:	f443 7380 	orr.w	r3, r3, #256	; 0x100
 800c9ba:	600b      	str	r3, [r1, #0]
 800c9bc:	e002      	b.n	800c9c4 <HAL_I2C_Master_Transmit+0xa0>
 800c9be:	6b23      	ldr	r3, [r4, #48]	; 0x30
 800c9c0:	2b12      	cmp	r3, #18
 800c9c2:	d0f7      	beq.n	800c9b4 <HAL_I2C_Master_Transmit+0x90>
 800c9c4:	2200      	movs	r2, #0
 800c9c6:	9600      	str	r6, [sp, #0]
 800c9c8:	463b      	mov	r3, r7
 800c9ca:	f04f 1101 	mov.w	r1, #65537	; 0x10001
 800c9ce:	4620      	mov	r0, r4
 800c9d0:	f7ff fea7 	bl	800c722 <I2C_WaitOnFlagUntilTimeout>
 800c9d4:	6822      	ldr	r2, [r4, #0]
 800c9d6:	b138      	cbz	r0, 800c9e8 <HAL_I2C_Master_Transmit+0xc4>
 800c9d8:	6813      	ldr	r3, [r2, #0]
 800c9da:	05db      	lsls	r3, r3, #23
 800c9dc:	bf44      	itt	mi
 800c9de:	f44f 7300 	movmi.w	r3, #512	; 0x200
 800c9e2:	6423      	strmi	r3, [r4, #64]	; 0x40
 800c9e4:	2501      	movs	r5, #1
 800c9e6:	e7ad      	b.n	800c944 <HAL_I2C_Master_Transmit+0x20>
 800c9e8:	6923      	ldr	r3, [r4, #16]
 800c9ea:	f5b3 4f80 	cmp.w	r3, #16384	; 0x4000
 800c9ee:	d121      	bne.n	800ca34 <HAL_I2C_Master_Transmit+0x110>
 800c9f0:	f005 05fe 	and.w	r5, r5, #254	; 0xfe
 800c9f4:	6115      	str	r5, [r2, #16]
 800c9f6:	4935      	ldr	r1, [pc, #212]	; (800cacc <HAL_I2C_Master_Transmit+0x1a8>)
 800c9f8:	4633      	mov	r3, r6
 800c9fa:	463a      	mov	r2, r7
 800c9fc:	4620      	mov	r0, r4
 800c9fe:	f7ff fe2f 	bl	800c660 <I2C_WaitOnMasterAddressFlagUntilTimeout>
 800ca02:	4605      	mov	r5, r0
 800ca04:	2800      	cmp	r0, #0
 800ca06:	d1ed      	bne.n	800c9e4 <HAL_I2C_Master_Transmit+0xc0>
 800ca08:	6823      	ldr	r3, [r4, #0]
 800ca0a:	9003      	str	r0, [sp, #12]
 800ca0c:	695a      	ldr	r2, [r3, #20]
 800ca0e:	9203      	str	r2, [sp, #12]
 800ca10:	699b      	ldr	r3, [r3, #24]
 800ca12:	9303      	str	r3, [sp, #12]
 800ca14:	9b03      	ldr	r3, [sp, #12]
 800ca16:	8d23      	ldrh	r3, [r4, #40]	; 0x28
 800ca18:	b9f3      	cbnz	r3, 800ca58 <HAL_I2C_Master_Transmit+0x134>
 800ca1a:	6821      	ldr	r1, [r4, #0]
 800ca1c:	680a      	ldr	r2, [r1, #0]
 800ca1e:	f442 7200 	orr.w	r2, r2, #512	; 0x200
 800ca22:	600a      	str	r2, [r1, #0]
 800ca24:	2220      	movs	r2, #32
 800ca26:	f884 203d 	strb.w	r2, [r4, #61]	; 0x3d
 800ca2a:	f884 303c 	strb.w	r3, [r4, #60]	; 0x3c
 800ca2e:	f884 303e 	strb.w	r3, [r4, #62]	; 0x3e
 800ca32:	e787      	b.n	800c944 <HAL_I2C_Master_Transmit+0x20>
 800ca34:	11eb      	asrs	r3, r5, #7
 800ca36:	f003 0306 	and.w	r3, r3, #6
 800ca3a:	f043 03f0 	orr.w	r3, r3, #240	; 0xf0
 800ca3e:	6113      	str	r3, [r2, #16]
 800ca40:	4923      	ldr	r1, [pc, #140]	; (800cad0 <HAL_I2C_Master_Transmit+0x1ac>)
 800ca42:	4633      	mov	r3, r6
 800ca44:	463a      	mov	r2, r7
 800ca46:	4620      	mov	r0, r4
 800ca48:	f7ff fe0a 	bl	800c660 <I2C_WaitOnMasterAddressFlagUntilTimeout>
 800ca4c:	2800      	cmp	r0, #0
 800ca4e:	d1c9      	bne.n	800c9e4 <HAL_I2C_Master_Transmit+0xc0>
 800ca50:	6823      	ldr	r3, [r4, #0]
 800ca52:	b2ed      	uxtb	r5, r5
 800ca54:	611d      	str	r5, [r3, #16]
 800ca56:	e7ce      	b.n	800c9f6 <HAL_I2C_Master_Transmit+0xd2>
 800ca58:	4632      	mov	r2, r6
 800ca5a:	4639      	mov	r1, r7
 800ca5c:	4620      	mov	r0, r4
 800ca5e:	f7ff fe92 	bl	800c786 <I2C_WaitOnTXEFlagUntilTimeout>
 800ca62:	b140      	cbz	r0, 800ca76 <HAL_I2C_Master_Transmit+0x152>
 800ca64:	6c23      	ldr	r3, [r4, #64]	; 0x40
 800ca66:	2b04      	cmp	r3, #4
 800ca68:	d1bc      	bne.n	800c9e4 <HAL_I2C_Master_Transmit+0xc0>
 800ca6a:	6822      	ldr	r2, [r4, #0]
 800ca6c:	6813      	ldr	r3, [r2, #0]
 800ca6e:	f443 7300 	orr.w	r3, r3, #512	; 0x200
 800ca72:	6013      	str	r3, [r2, #0]
 800ca74:	e7b6      	b.n	800c9e4 <HAL_I2C_Master_Transmit+0xc0>
 800ca76:	6a63      	ldr	r3, [r4, #36]	; 0x24
 800ca78:	6820      	ldr	r0, [r4, #0]
 800ca7a:	461a      	mov	r2, r3
 800ca7c:	f812 1b01 	ldrb.w	r1, [r2], #1
 800ca80:	6101      	str	r1, [r0, #16]
 800ca82:	6262      	str	r2, [r4, #36]	; 0x24
 800ca84:	8d62      	ldrh	r2, [r4, #42]	; 0x2a
 800ca86:	3a01      	subs	r2, #1
 800ca88:	b292      	uxth	r2, r2
 800ca8a:	8562      	strh	r2, [r4, #42]	; 0x2a
 800ca8c:	8d22      	ldrh	r2, [r4, #40]	; 0x28
 800ca8e:	f8d0 c014 	ldr.w	ip, [r0, #20]
 800ca92:	1e51      	subs	r1, r2, #1
 800ca94:	b289      	uxth	r1, r1
 800ca96:	f01c 0f04 	tst.w	ip, #4
 800ca9a:	8521      	strh	r1, [r4, #40]	; 0x28
 800ca9c:	d00a      	beq.n	800cab4 <HAL_I2C_Master_Transmit+0x190>
 800ca9e:	b149      	cbz	r1, 800cab4 <HAL_I2C_Master_Transmit+0x190>
 800caa0:	7859      	ldrb	r1, [r3, #1]
 800caa2:	6101      	str	r1, [r0, #16]
 800caa4:	3302      	adds	r3, #2
 800caa6:	6263      	str	r3, [r4, #36]	; 0x24
 800caa8:	8d63      	ldrh	r3, [r4, #42]	; 0x2a
 800caaa:	3b01      	subs	r3, #1
 800caac:	b29b      	uxth	r3, r3
 800caae:	3a02      	subs	r2, #2
 800cab0:	8563      	strh	r3, [r4, #42]	; 0x2a
 800cab2:	8522      	strh	r2, [r4, #40]	; 0x28
 800cab4:	4632      	mov	r2, r6
 800cab6:	4639      	mov	r1, r7
 800cab8:	4620      	mov	r0, r4
 800caba:	f7ff fe0c 	bl	800c6d6 <I2C_WaitOnBTFFlagUntilTimeout>
 800cabe:	2800      	cmp	r0, #0
 800cac0:	d0a9      	beq.n	800ca16 <HAL_I2C_Master_Transmit+0xf2>
 800cac2:	e7cf      	b.n	800ca64 <HAL_I2C_Master_Transmit+0x140>
 800cac4:	00100002 	.word	0x00100002
 800cac8:	ffff0000 	.word	0xffff0000
 800cacc:	00010002 	.word	0x00010002
 800cad0:	00010008 	.word	0x00010008

0800cad4 <HAL_I2C_Master_Receive_DMA>:
 800cad4:	b573      	push	{r0, r1, r4, r5, r6, lr}
 800cad6:	4604      	mov	r4, r0
 800cad8:	2000      	movs	r0, #0
 800cada:	9001      	str	r0, [sp, #4]
 800cadc:	f894 003d 	ldrb.w	r0, [r4, #61]	; 0x3d
 800cae0:	2820      	cmp	r0, #32
 800cae2:	d002      	beq.n	800caea <HAL_I2C_Master_Receive_DMA+0x16>
 800cae4:	2002      	movs	r0, #2
 800cae6:	b002      	add	sp, #8
 800cae8:	bd70      	pop	{r4, r5, r6, pc}
 800caea:	4846      	ldr	r0, [pc, #280]	; (800cc04 <HAL_I2C_Master_Receive_DMA+0x130>)
 800caec:	f246 15a8 	movw	r5, #25000	; 0x61a8
 800caf0:	6800      	ldr	r0, [r0, #0]
 800caf2:	fbb0 f5f5 	udiv	r5, r0, r5
 800caf6:	2019      	movs	r0, #25
 800caf8:	4368      	muls	r0, r5
 800cafa:	9001      	str	r0, [sp, #4]
 800cafc:	9801      	ldr	r0, [sp, #4]
 800cafe:	3801      	subs	r0, #1
 800cb00:	9001      	str	r0, [sp, #4]
 800cb02:	9801      	ldr	r0, [sp, #4]
 800cb04:	b968      	cbnz	r0, 800cb22 <HAL_I2C_Master_Receive_DMA+0x4e>
 800cb06:	2320      	movs	r3, #32
 800cb08:	6320      	str	r0, [r4, #48]	; 0x30
 800cb0a:	f884 303d 	strb.w	r3, [r4, #61]	; 0x3d
 800cb0e:	f884 003e 	strb.w	r0, [r4, #62]	; 0x3e
 800cb12:	6c23      	ldr	r3, [r4, #64]	; 0x40
 800cb14:	f043 0320 	orr.w	r3, r3, #32
 800cb18:	6423      	str	r3, [r4, #64]	; 0x40
 800cb1a:	f884 003c 	strb.w	r0, [r4, #60]	; 0x3c
 800cb1e:	2001      	movs	r0, #1
 800cb20:	e7e1      	b.n	800cae6 <HAL_I2C_Master_Receive_DMA+0x12>
 800cb22:	6825      	ldr	r5, [r4, #0]
 800cb24:	69a8      	ldr	r0, [r5, #24]
 800cb26:	0786      	lsls	r6, r0, #30
 800cb28:	d4e8      	bmi.n	800cafc <HAL_I2C_Master_Receive_DMA+0x28>
 800cb2a:	f894 003c 	ldrb.w	r0, [r4, #60]	; 0x3c
 800cb2e:	2801      	cmp	r0, #1
 800cb30:	d0d8      	beq.n	800cae4 <HAL_I2C_Master_Receive_DMA+0x10>
 800cb32:	2001      	movs	r0, #1
 800cb34:	f884 003c 	strb.w	r0, [r4, #60]	; 0x3c
 800cb38:	6828      	ldr	r0, [r5, #0]
 800cb3a:	07c0      	lsls	r0, r0, #31
 800cb3c:	bf5e      	ittt	pl
 800cb3e:	6828      	ldrpl	r0, [r5, #0]
 800cb40:	f040 0001 	orrpl.w	r0, r0, #1
 800cb44:	6028      	strpl	r0, [r5, #0]
 800cb46:	6828      	ldr	r0, [r5, #0]
 800cb48:	f420 6000 	bic.w	r0, r0, #2048	; 0x800
 800cb4c:	6028      	str	r0, [r5, #0]
 800cb4e:	2022      	movs	r0, #34	; 0x22
 800cb50:	f884 003d 	strb.w	r0, [r4, #61]	; 0x3d
 800cb54:	2600      	movs	r6, #0
 800cb56:	2010      	movs	r0, #16
 800cb58:	f884 003e 	strb.w	r0, [r4, #62]	; 0x3e
 800cb5c:	6426      	str	r6, [r4, #64]	; 0x40
 800cb5e:	8563      	strh	r3, [r4, #42]	; 0x2a
 800cb60:	8d60      	ldrh	r0, [r4, #42]	; 0x2a
 800cb62:	6262      	str	r2, [r4, #36]	; 0x24
 800cb64:	b283      	uxth	r3, r0
 800cb66:	4828      	ldr	r0, [pc, #160]	; (800cc08 <HAL_I2C_Master_Receive_DMA+0x134>)
 800cb68:	62e0      	str	r0, [r4, #44]	; 0x2c
 800cb6a:	8523      	strh	r3, [r4, #40]	; 0x28
 800cb6c:	6461      	str	r1, [r4, #68]	; 0x44
 800cb6e:	2b00      	cmp	r3, #0
 800cb70:	d037      	beq.n	800cbe2 <HAL_I2C_Master_Receive_DMA+0x10e>
 800cb72:	6ba0      	ldr	r0, [r4, #56]	; 0x38
 800cb74:	b1c0      	cbz	r0, 800cba8 <HAL_I2C_Master_Receive_DMA+0xd4>
 800cb76:	4925      	ldr	r1, [pc, #148]	; (800cc0c <HAL_I2C_Master_Receive_DMA+0x138>)
 800cb78:	63c1      	str	r1, [r0, #60]	; 0x3c
 800cb7a:	4925      	ldr	r1, [pc, #148]	; (800cc10 <HAL_I2C_Master_Receive_DMA+0x13c>)
 800cb7c:	64c1      	str	r1, [r0, #76]	; 0x4c
 800cb7e:	e9c0 6610 	strd	r6, r6, [r0, #64]	; 0x40
 800cb82:	6486      	str	r6, [r0, #72]	; 0x48
 800cb84:	6506      	str	r6, [r0, #80]	; 0x50
 800cb86:	f105 0110 	add.w	r1, r5, #16
 800cb8a:	f7ff f9f3 	bl	800bf74 <HAL_DMA_Start_IT>
 800cb8e:	b1a0      	cbz	r0, 800cbba <HAL_I2C_Master_Receive_DMA+0xe6>
 800cb90:	2320      	movs	r3, #32
 800cb92:	f884 303d 	strb.w	r3, [r4, #61]	; 0x3d
 800cb96:	f884 603e 	strb.w	r6, [r4, #62]	; 0x3e
 800cb9a:	6c23      	ldr	r3, [r4, #64]	; 0x40
 800cb9c:	f884 603c 	strb.w	r6, [r4, #60]	; 0x3c
 800cba0:	f043 0310 	orr.w	r3, r3, #16
 800cba4:	6423      	str	r3, [r4, #64]	; 0x40
 800cba6:	e7ba      	b.n	800cb1e <HAL_I2C_Master_Receive_DMA+0x4a>
 800cba8:	2320      	movs	r3, #32
 800cbaa:	f884 303d 	strb.w	r3, [r4, #61]	; 0x3d
 800cbae:	f884 003e 	strb.w	r0, [r4, #62]	; 0x3e
 800cbb2:	6c23      	ldr	r3, [r4, #64]	; 0x40
 800cbb4:	f043 0380 	orr.w	r3, r3, #128	; 0x80
 800cbb8:	e7ae      	b.n	800cb18 <HAL_I2C_Master_Receive_DMA+0x44>
 800cbba:	6823      	ldr	r3, [r4, #0]
 800cbbc:	681a      	ldr	r2, [r3, #0]
 800cbbe:	f442 6280 	orr.w	r2, r2, #1024	; 0x400
 800cbc2:	601a      	str	r2, [r3, #0]
 800cbc4:	681a      	ldr	r2, [r3, #0]
 800cbc6:	f442 7280 	orr.w	r2, r2, #256	; 0x100
 800cbca:	601a      	str	r2, [r3, #0]
 800cbcc:	f884 003c 	strb.w	r0, [r4, #60]	; 0x3c
 800cbd0:	685a      	ldr	r2, [r3, #4]
 800cbd2:	f442 7240 	orr.w	r2, r2, #768	; 0x300
 800cbd6:	605a      	str	r2, [r3, #4]
 800cbd8:	685a      	ldr	r2, [r3, #4]
 800cbda:	f442 6200 	orr.w	r2, r2, #2048	; 0x800
 800cbde:	605a      	str	r2, [r3, #4]
 800cbe0:	e781      	b.n	800cae6 <HAL_I2C_Master_Receive_DMA+0x12>
 800cbe2:	f884 303c 	strb.w	r3, [r4, #60]	; 0x3c
 800cbe6:	686a      	ldr	r2, [r5, #4]
 800cbe8:	f442 62e0 	orr.w	r2, r2, #1792	; 0x700
 800cbec:	606a      	str	r2, [r5, #4]
 800cbee:	682a      	ldr	r2, [r5, #0]
 800cbf0:	f442 6280 	orr.w	r2, r2, #1024	; 0x400
 800cbf4:	602a      	str	r2, [r5, #0]
 800cbf6:	682a      	ldr	r2, [r5, #0]
 800cbf8:	f442 7280 	orr.w	r2, r2, #256	; 0x100
 800cbfc:	602a      	str	r2, [r5, #0]
 800cbfe:	4618      	mov	r0, r3
 800cc00:	e771      	b.n	800cae6 <HAL_I2C_Master_Receive_DMA+0x12>
 800cc02:	bf00      	nop
 800cc04:	20000060 	.word	0x20000060
 800cc08:	ffff0000 	.word	0xffff0000
 800cc0c:	0800cd07 	.word	0x0800cd07
 800cc10:	0800ccc3 	.word	0x0800ccc3

0800cc14 <HAL_I2C_SlaveTxCpltCallback>:
 800cc14:	4770      	bx	lr

0800cc16 <HAL_I2C_SlaveRxCpltCallback>:
 800cc16:	4770      	bx	lr

0800cc18 <HAL_I2C_AddrCallback>:
 800cc18:	4770      	bx	lr

0800cc1a <HAL_I2C_ListenCpltCallback>:
 800cc1a:	4770      	bx	lr

0800cc1c <HAL_I2C_MemTxCpltCallback>:
 800cc1c:	4770      	bx	lr

0800cc1e <I2C_MemoryTransmit_TXE_BTF>:
 800cc1e:	f890 203d 	ldrb.w	r2, [r0, #61]	; 0x3d
 800cc22:	b508      	push	{r3, lr}
 800cc24:	6d03      	ldr	r3, [r0, #80]	; 0x50
 800cc26:	b2d2      	uxtb	r2, r2
 800cc28:	b983      	cbnz	r3, 800cc4c <I2C_MemoryTransmit_TXE_BTF+0x2e>
 800cc2a:	6cc3      	ldr	r3, [r0, #76]	; 0x4c
 800cc2c:	6802      	ldr	r2, [r0, #0]
 800cc2e:	2b01      	cmp	r3, #1
 800cc30:	6c83      	ldr	r3, [r0, #72]	; 0x48
 800cc32:	d105      	bne.n	800cc40 <I2C_MemoryTransmit_TXE_BTF+0x22>
 800cc34:	b2db      	uxtb	r3, r3
 800cc36:	6113      	str	r3, [r2, #16]
 800cc38:	6d03      	ldr	r3, [r0, #80]	; 0x50
 800cc3a:	3302      	adds	r3, #2
 800cc3c:	6503      	str	r3, [r0, #80]	; 0x50
 800cc3e:	bd08      	pop	{r3, pc}
 800cc40:	f3c3 2307 	ubfx	r3, r3, #8, #8
 800cc44:	6113      	str	r3, [r2, #16]
 800cc46:	6d03      	ldr	r3, [r0, #80]	; 0x50
 800cc48:	3301      	adds	r3, #1
 800cc4a:	e7f7      	b.n	800cc3c <I2C_MemoryTransmit_TXE_BTF+0x1e>
 800cc4c:	6d03      	ldr	r3, [r0, #80]	; 0x50
 800cc4e:	2b01      	cmp	r3, #1
 800cc50:	d103      	bne.n	800cc5a <I2C_MemoryTransmit_TXE_BTF+0x3c>
 800cc52:	6c83      	ldr	r3, [r0, #72]	; 0x48
 800cc54:	6802      	ldr	r2, [r0, #0]
 800cc56:	b2db      	uxtb	r3, r3
 800cc58:	e7f4      	b.n	800cc44 <I2C_MemoryTransmit_TXE_BTF+0x26>
 800cc5a:	6d03      	ldr	r3, [r0, #80]	; 0x50
 800cc5c:	2b02      	cmp	r3, #2
 800cc5e:	d1ee      	bne.n	800cc3e <I2C_MemoryTransmit_TXE_BTF+0x20>
 800cc60:	2a22      	cmp	r2, #34	; 0x22
 800cc62:	d105      	bne.n	800cc70 <I2C_MemoryTransmit_TXE_BTF+0x52>
 800cc64:	6802      	ldr	r2, [r0, #0]
 800cc66:	6813      	ldr	r3, [r2, #0]
 800cc68:	f443 7380 	orr.w	r3, r3, #256	; 0x100
 800cc6c:	6013      	str	r3, [r2, #0]
 800cc6e:	e7ea      	b.n	800cc46 <I2C_MemoryTransmit_TXE_BTF+0x28>
 800cc70:	8d43      	ldrh	r3, [r0, #42]	; 0x2a
 800cc72:	b29b      	uxth	r3, r3
 800cc74:	b163      	cbz	r3, 800cc90 <I2C_MemoryTransmit_TXE_BTF+0x72>
 800cc76:	2a21      	cmp	r2, #33	; 0x21
 800cc78:	d10a      	bne.n	800cc90 <I2C_MemoryTransmit_TXE_BTF+0x72>
 800cc7a:	6a43      	ldr	r3, [r0, #36]	; 0x24
 800cc7c:	6802      	ldr	r2, [r0, #0]
 800cc7e:	f813 1b01 	ldrb.w	r1, [r3], #1
 800cc82:	6111      	str	r1, [r2, #16]
 800cc84:	6243      	str	r3, [r0, #36]	; 0x24
 800cc86:	8d43      	ldrh	r3, [r0, #42]	; 0x2a
 800cc88:	3b01      	subs	r3, #1
 800cc8a:	b29b      	uxth	r3, r3
 800cc8c:	8543      	strh	r3, [r0, #42]	; 0x2a
 800cc8e:	e7d6      	b.n	800cc3e <I2C_MemoryTransmit_TXE_BTF+0x20>
 800cc90:	8d43      	ldrh	r3, [r0, #42]	; 0x2a
 800cc92:	b29b      	uxth	r3, r3
 800cc94:	2b00      	cmp	r3, #0
 800cc96:	d1d2      	bne.n	800cc3e <I2C_MemoryTransmit_TXE_BTF+0x20>
 800cc98:	2a21      	cmp	r2, #33	; 0x21
 800cc9a:	d1d0      	bne.n	800cc3e <I2C_MemoryTransmit_TXE_BTF+0x20>
 800cc9c:	6802      	ldr	r2, [r0, #0]
 800cc9e:	6851      	ldr	r1, [r2, #4]
 800cca0:	f421 61e0 	bic.w	r1, r1, #1792	; 0x700
 800cca4:	6051      	str	r1, [r2, #4]
 800cca6:	6811      	ldr	r1, [r2, #0]
 800cca8:	f441 7100 	orr.w	r1, r1, #512	; 0x200
 800ccac:	6011      	str	r1, [r2, #0]
 800ccae:	2220      	movs	r2, #32
 800ccb0:	6303      	str	r3, [r0, #48]	; 0x30
 800ccb2:	f880 203d 	strb.w	r2, [r0, #61]	; 0x3d
 800ccb6:	f880 303e 	strb.w	r3, [r0, #62]	; 0x3e
 800ccba:	f7ff ffaf 	bl	800cc1c <HAL_I2C_MemTxCpltCallback>
 800ccbe:	e7be      	b.n	800cc3e <I2C_MemoryTransmit_TXE_BTF+0x20>

0800ccc0 <HAL_I2C_MemRxCpltCallback>:
 800ccc0:	4770      	bx	lr

0800ccc2 <I2C_DMAError>:
 800ccc2:	b510      	push	{r4, lr}
 800ccc4:	6b84      	ldr	r4, [r0, #56]	; 0x38
 800ccc6:	6b63      	ldr	r3, [r4, #52]	; 0x34
 800ccc8:	b10b      	cbz	r3, 800ccce <I2C_DMAError+0xc>
 800ccca:	2200      	movs	r2, #0
 800cccc:	63da      	str	r2, [r3, #60]	; 0x3c
 800ccce:	6ba3      	ldr	r3, [r4, #56]	; 0x38
 800ccd0:	b10b      	cbz	r3, 800ccd6 <I2C_DMAError+0x14>
 800ccd2:	2200      	movs	r2, #0
 800ccd4:	63da      	str	r2, [r3, #60]	; 0x3c
 800ccd6:	f7ff fac2 	bl	800c25e <HAL_DMA_GetError>
 800ccda:	2802      	cmp	r0, #2
 800ccdc:	d012      	beq.n	800cd04 <I2C_DMAError+0x42>
 800ccde:	6822      	ldr	r2, [r4, #0]
 800cce0:	6813      	ldr	r3, [r2, #0]
 800cce2:	f423 6380 	bic.w	r3, r3, #1024	; 0x400
 800cce6:	6013      	str	r3, [r2, #0]
 800cce8:	2300      	movs	r3, #0
 800ccea:	2220      	movs	r2, #32
 800ccec:	8563      	strh	r3, [r4, #42]	; 0x2a
 800ccee:	f884 203d 	strb.w	r2, [r4, #61]	; 0x3d
 800ccf2:	f884 303e 	strb.w	r3, [r4, #62]	; 0x3e
 800ccf6:	6c23      	ldr	r3, [r4, #64]	; 0x40
 800ccf8:	f043 0310 	orr.w	r3, r3, #16
 800ccfc:	6423      	str	r3, [r4, #64]	; 0x40
 800ccfe:	4620      	mov	r0, r4
 800cd00:	f7fd ff90 	bl	800ac24 <HAL_I2C_ErrorCallback>
 800cd04:	bd10      	pop	{r4, pc}

0800cd06 <I2C_DMAXferCplt>:
 800cd06:	b570      	push	{r4, r5, r6, lr}
 800cd08:	6b84      	ldr	r4, [r0, #56]	; 0x38
 800cd0a:	6823      	ldr	r3, [r4, #0]
 800cd0c:	f894 203d 	ldrb.w	r2, [r4, #61]	; 0x3d
 800cd10:	f894 003e 	ldrb.w	r0, [r4, #62]	; 0x3e
 800cd14:	6ae1      	ldr	r1, [r4, #44]	; 0x2c
 800cd16:	685d      	ldr	r5, [r3, #4]
 800cd18:	f425 7540 	bic.w	r5, r5, #768	; 0x300
 800cd1c:	605d      	str	r5, [r3, #4]
 800cd1e:	6b65      	ldr	r5, [r4, #52]	; 0x34
 800cd20:	b2d2      	uxtb	r2, r2
 800cd22:	b2c0      	uxtb	r0, r0
 800cd24:	b10d      	cbz	r5, 800cd2a <I2C_DMAXferCplt+0x24>
 800cd26:	2600      	movs	r6, #0
 800cd28:	63ee      	str	r6, [r5, #60]	; 0x3c
 800cd2a:	6ba5      	ldr	r5, [r4, #56]	; 0x38
 800cd2c:	b10d      	cbz	r5, 800cd32 <I2C_DMAXferCplt+0x2c>
 800cd2e:	2600      	movs	r6, #0
 800cd30:	63ee      	str	r6, [r5, #60]	; 0x3c
 800cd32:	f002 0521 	and.w	r5, r2, #33	; 0x21
 800cd36:	2d21      	cmp	r5, #33	; 0x21
 800cd38:	d005      	beq.n	800cd46 <I2C_DMAXferCplt+0x40>
 800cd3a:	f002 0522 	and.w	r5, r2, #34	; 0x22
 800cd3e:	2d22      	cmp	r5, #34	; 0x22
 800cd40:	d123      	bne.n	800cd8a <I2C_DMAXferCplt+0x84>
 800cd42:	2820      	cmp	r0, #32
 800cd44:	d121      	bne.n	800cd8a <I2C_DMAXferCplt+0x84>
 800cd46:	6859      	ldr	r1, [r3, #4]
 800cd48:	f421 6100 	bic.w	r1, r1, #2048	; 0x800
 800cd4c:	6059      	str	r1, [r3, #4]
 800cd4e:	2a29      	cmp	r2, #41	; 0x29
 800cd50:	f04f 0300 	mov.w	r3, #0
 800cd54:	8563      	strh	r3, [r4, #42]	; 0x2a
 800cd56:	d10d      	bne.n	800cd74 <I2C_DMAXferCplt+0x6e>
 800cd58:	2321      	movs	r3, #33	; 0x21
 800cd5a:	6323      	str	r3, [r4, #48]	; 0x30
 800cd5c:	2328      	movs	r3, #40	; 0x28
 800cd5e:	f884 303d 	strb.w	r3, [r4, #61]	; 0x3d
 800cd62:	4620      	mov	r0, r4
 800cd64:	f7ff ff56 	bl	800cc14 <HAL_I2C_SlaveTxCpltCallback>
 800cd68:	6822      	ldr	r2, [r4, #0]
 800cd6a:	6853      	ldr	r3, [r2, #4]
 800cd6c:	f443 7340 	orr.w	r3, r3, #768	; 0x300
 800cd70:	6053      	str	r3, [r2, #4]
 800cd72:	bd70      	pop	{r4, r5, r6, pc}
 800cd74:	2a2a      	cmp	r2, #42	; 0x2a
 800cd76:	d1f7      	bne.n	800cd68 <I2C_DMAXferCplt+0x62>
 800cd78:	2322      	movs	r3, #34	; 0x22
 800cd7a:	6323      	str	r3, [r4, #48]	; 0x30
 800cd7c:	2328      	movs	r3, #40	; 0x28
 800cd7e:	f884 303d 	strb.w	r3, [r4, #61]	; 0x3d
 800cd82:	4620      	mov	r0, r4
 800cd84:	f7ff ff47 	bl	800cc16 <HAL_I2C_SlaveRxCpltCallback>
 800cd88:	e7ee      	b.n	800cd68 <I2C_DMAXferCplt+0x62>
 800cd8a:	f894 203e 	ldrb.w	r2, [r4, #62]	; 0x3e
 800cd8e:	2a00      	cmp	r2, #0
 800cd90:	d0ef      	beq.n	800cd72 <I2C_DMAXferCplt+0x6c>
 800cd92:	8d62      	ldrh	r2, [r4, #42]	; 0x2a
 800cd94:	b292      	uxth	r2, r2
 800cd96:	2a01      	cmp	r2, #1
 800cd98:	bf02      	ittt	eq
 800cd9a:	681a      	ldreq	r2, [r3, #0]
 800cd9c:	f422 6280 	biceq.w	r2, r2, #1024	; 0x400
 800cda0:	601a      	streq	r2, [r3, #0]
 800cda2:	685a      	ldr	r2, [r3, #4]
 800cda4:	f511 3f80 	cmn.w	r1, #65536	; 0x10000
 800cda8:	f422 7240 	bic.w	r2, r2, #768	; 0x300
 800cdac:	605a      	str	r2, [r3, #4]
 800cdae:	d006      	beq.n	800cdbe <I2C_DMAXferCplt+0xb8>
 800cdb0:	2908      	cmp	r1, #8
 800cdb2:	d004      	beq.n	800cdbe <I2C_DMAXferCplt+0xb8>
 800cdb4:	f1b1 4f2a 	cmp.w	r1, #2852126720	; 0xaa000000
 800cdb8:	d001      	beq.n	800cdbe <I2C_DMAXferCplt+0xb8>
 800cdba:	2920      	cmp	r1, #32
 800cdbc:	d103      	bne.n	800cdc6 <I2C_DMAXferCplt+0xc0>
 800cdbe:	681a      	ldr	r2, [r3, #0]
 800cdc0:	f442 7200 	orr.w	r2, r2, #512	; 0x200
 800cdc4:	601a      	str	r2, [r3, #0]
 800cdc6:	685a      	ldr	r2, [r3, #4]
 800cdc8:	f422 5280 	bic.w	r2, r2, #4096	; 0x1000
 800cdcc:	605a      	str	r2, [r3, #4]
 800cdce:	685a      	ldr	r2, [r3, #4]
 800cdd0:	f422 6200 	bic.w	r2, r2, #2048	; 0x800
 800cdd4:	605a      	str	r2, [r3, #4]
 800cdd6:	2300      	movs	r3, #0
 800cdd8:	8563      	strh	r3, [r4, #42]	; 0x2a
 800cdda:	6c23      	ldr	r3, [r4, #64]	; 0x40
 800cddc:	b11b      	cbz	r3, 800cde6 <I2C_DMAXferCplt+0xe0>
 800cdde:	4620      	mov	r0, r4
 800cde0:	f7fd ff20 	bl	800ac24 <HAL_I2C_ErrorCallback>
 800cde4:	e7c5      	b.n	800cd72 <I2C_DMAXferCplt+0x6c>
 800cde6:	2220      	movs	r2, #32
 800cde8:	f884 203d 	strb.w	r2, [r4, #61]	; 0x3d
 800cdec:	f894 203e 	ldrb.w	r2, [r4, #62]	; 0x3e
 800cdf0:	f884 303e 	strb.w	r3, [r4, #62]	; 0x3e
 800cdf4:	2a40      	cmp	r2, #64	; 0x40
 800cdf6:	d104      	bne.n	800ce02 <I2C_DMAXferCplt+0xfc>
 800cdf8:	6323      	str	r3, [r4, #48]	; 0x30
 800cdfa:	4620      	mov	r0, r4
 800cdfc:	f7ff ff60 	bl	800ccc0 <HAL_I2C_MemRxCpltCallback>
 800ce00:	e7b7      	b.n	800cd72 <I2C_DMAXferCplt+0x6c>
 800ce02:	2312      	movs	r3, #18
 800ce04:	6323      	str	r3, [r4, #48]	; 0x30
 800ce06:	4620      	mov	r0, r4
 800ce08:	f7fd ff26 	bl	800ac58 <HAL_I2C_MasterRxCpltCallback>
 800ce0c:	e7b1      	b.n	800cd72 <I2C_DMAXferCplt+0x6c>

0800ce0e <HAL_I2C_AbortCpltCallback>:
 800ce0e:	4770      	bx	lr

0800ce10 <I2C_DMAAbort>:
 800ce10:	b537      	push	{r0, r1, r2, r4, r5, lr}
 800ce12:	2300      	movs	r3, #0
 800ce14:	6b80      	ldr	r0, [r0, #56]	; 0x38
 800ce16:	9301      	str	r3, [sp, #4]
 800ce18:	f890 203d 	ldrb.w	r2, [r0, #61]	; 0x3d
 800ce1c:	4b2b      	ldr	r3, [pc, #172]	; (800cecc <I2C_DMAAbort+0xbc>)
 800ce1e:	b2d1      	uxtb	r1, r2
 800ce20:	681b      	ldr	r3, [r3, #0]
 800ce22:	f246 12a8 	movw	r2, #25000	; 0x61a8
 800ce26:	fbb3 f2f2 	udiv	r2, r3, r2
 800ce2a:	2323      	movs	r3, #35	; 0x23
 800ce2c:	4353      	muls	r3, r2
 800ce2e:	9301      	str	r3, [sp, #4]
 800ce30:	6803      	ldr	r3, [r0, #0]
 800ce32:	9a01      	ldr	r2, [sp, #4]
 800ce34:	bb42      	cbnz	r2, 800ce88 <I2C_DMAAbort+0x78>
 800ce36:	6c02      	ldr	r2, [r0, #64]	; 0x40
 800ce38:	f042 0220 	orr.w	r2, r2, #32
 800ce3c:	6402      	str	r2, [r0, #64]	; 0x40
 800ce3e:	6b45      	ldr	r5, [r0, #52]	; 0x34
 800ce40:	b10d      	cbz	r5, 800ce46 <I2C_DMAAbort+0x36>
 800ce42:	2200      	movs	r2, #0
 800ce44:	63ea      	str	r2, [r5, #60]	; 0x3c
 800ce46:	6b84      	ldr	r4, [r0, #56]	; 0x38
 800ce48:	b10c      	cbz	r4, 800ce4e <I2C_DMAAbort+0x3e>
 800ce4a:	2200      	movs	r2, #0
 800ce4c:	63e2      	str	r2, [r4, #60]	; 0x3c
 800ce4e:	681a      	ldr	r2, [r3, #0]
 800ce50:	f422 6280 	bic.w	r2, r2, #1024	; 0x400
 800ce54:	601a      	str	r2, [r3, #0]
 800ce56:	2200      	movs	r2, #0
 800ce58:	8542      	strh	r2, [r0, #42]	; 0x2a
 800ce5a:	b105      	cbz	r5, 800ce5e <I2C_DMAAbort+0x4e>
 800ce5c:	652a      	str	r2, [r5, #80]	; 0x50
 800ce5e:	b104      	cbz	r4, 800ce62 <I2C_DMAAbort+0x52>
 800ce60:	6522      	str	r2, [r4, #80]	; 0x50
 800ce62:	681a      	ldr	r2, [r3, #0]
 800ce64:	f022 0201 	bic.w	r2, r2, #1
 800ce68:	601a      	str	r2, [r3, #0]
 800ce6a:	f890 203d 	ldrb.w	r2, [r0, #61]	; 0x3d
 800ce6e:	2a60      	cmp	r2, #96	; 0x60
 800ce70:	d111      	bne.n	800ce96 <I2C_DMAAbort+0x86>
 800ce72:	2320      	movs	r3, #32
 800ce74:	f880 303d 	strb.w	r3, [r0, #61]	; 0x3d
 800ce78:	2300      	movs	r3, #0
 800ce7a:	f880 303e 	strb.w	r3, [r0, #62]	; 0x3e
 800ce7e:	6403      	str	r3, [r0, #64]	; 0x40
 800ce80:	f7ff ffc5 	bl	800ce0e <HAL_I2C_AbortCpltCallback>
 800ce84:	b003      	add	sp, #12
 800ce86:	bd30      	pop	{r4, r5, pc}
 800ce88:	9a01      	ldr	r2, [sp, #4]
 800ce8a:	3a01      	subs	r2, #1
 800ce8c:	9201      	str	r2, [sp, #4]
 800ce8e:	681a      	ldr	r2, [r3, #0]
 800ce90:	0592      	lsls	r2, r2, #22
 800ce92:	d4ce      	bmi.n	800ce32 <I2C_DMAAbort+0x22>
 800ce94:	e7d3      	b.n	800ce3e <I2C_DMAAbort+0x2e>
 800ce96:	f001 0228 	and.w	r2, r1, #40	; 0x28
 800ce9a:	2a28      	cmp	r2, #40	; 0x28
 800ce9c:	d10e      	bne.n	800cebc <I2C_DMAAbort+0xac>
 800ce9e:	6819      	ldr	r1, [r3, #0]
 800cea0:	f041 0101 	orr.w	r1, r1, #1
 800cea4:	6019      	str	r1, [r3, #0]
 800cea6:	6819      	ldr	r1, [r3, #0]
 800cea8:	f441 6180 	orr.w	r1, r1, #1024	; 0x400
 800ceac:	6019      	str	r1, [r3, #0]
 800ceae:	2300      	movs	r3, #0
 800ceb0:	6303      	str	r3, [r0, #48]	; 0x30
 800ceb2:	f880 203d 	strb.w	r2, [r0, #61]	; 0x3d
 800ceb6:	f7fd feb5 	bl	800ac24 <HAL_I2C_ErrorCallback>
 800ceba:	e7e3      	b.n	800ce84 <I2C_DMAAbort+0x74>
 800cebc:	2320      	movs	r3, #32
 800cebe:	f880 303d 	strb.w	r3, [r0, #61]	; 0x3d
 800cec2:	2300      	movs	r3, #0
 800cec4:	f880 303e 	strb.w	r3, [r0, #62]	; 0x3e
 800cec8:	e7f5      	b.n	800ceb6 <I2C_DMAAbort+0xa6>
 800ceca:	bf00      	nop
 800cecc:	20000060 	.word	0x20000060

0800ced0 <I2C_ITError>:
 800ced0:	b510      	push	{r4, lr}
 800ced2:	f890 203d 	ldrb.w	r2, [r0, #61]	; 0x3d
 800ced6:	f890 303e 	ldrb.w	r3, [r0, #62]	; 0x3e
 800ceda:	2b10      	cmp	r3, #16
 800cedc:	b2d9      	uxtb	r1, r3
 800cede:	4604      	mov	r4, r0
 800cee0:	6803      	ldr	r3, [r0, #0]
 800cee2:	b2d2      	uxtb	r2, r2
 800cee4:	d001      	beq.n	800ceea <I2C_ITError+0x1a>
 800cee6:	2940      	cmp	r1, #64	; 0x40
 800cee8:	d113      	bne.n	800cf12 <I2C_ITError+0x42>
 800ceea:	2a22      	cmp	r2, #34	; 0x22
 800ceec:	d111      	bne.n	800cf12 <I2C_ITError+0x42>
 800ceee:	6819      	ldr	r1, [r3, #0]
 800cef0:	f421 6100 	bic.w	r1, r1, #2048	; 0x800
 800cef4:	6019      	str	r1, [r3, #0]
 800cef6:	6859      	ldr	r1, [r3, #4]
 800cef8:	f411 6100 	ands.w	r1, r1, #2048	; 0x800
 800cefc:	d106      	bne.n	800cf0c <I2C_ITError+0x3c>
 800cefe:	2a60      	cmp	r2, #96	; 0x60
 800cf00:	bf1e      	ittt	ne
 800cf02:	2220      	movne	r2, #32
 800cf04:	f884 203d 	strbne.w	r2, [r4, #61]	; 0x3d
 800cf08:	f884 103e 	strbne.w	r1, [r4, #62]	; 0x3e
 800cf0c:	2200      	movs	r2, #0
 800cf0e:	6322      	str	r2, [r4, #48]	; 0x30
 800cf10:	e007      	b.n	800cf22 <I2C_ITError+0x52>
 800cf12:	f002 0128 	and.w	r1, r2, #40	; 0x28
 800cf16:	2928      	cmp	r1, #40	; 0x28
 800cf18:	d1ed      	bne.n	800cef6 <I2C_ITError+0x26>
 800cf1a:	2200      	movs	r2, #0
 800cf1c:	6322      	str	r2, [r4, #48]	; 0x30
 800cf1e:	f884 103d 	strb.w	r1, [r4, #61]	; 0x3d
 800cf22:	685a      	ldr	r2, [r3, #4]
 800cf24:	f412 6200 	ands.w	r2, r2, #2048	; 0x800
 800cf28:	d04f      	beq.n	800cfca <I2C_ITError+0xfa>
 800cf2a:	685a      	ldr	r2, [r3, #4]
 800cf2c:	6b60      	ldr	r0, [r4, #52]	; 0x34
 800cf2e:	f422 6200 	bic.w	r2, r2, #2048	; 0x800
 800cf32:	605a      	str	r2, [r3, #4]
 800cf34:	f890 3035 	ldrb.w	r3, [r0, #53]	; 0x35
 800cf38:	2b01      	cmp	r3, #1
 800cf3a:	4b37      	ldr	r3, [pc, #220]	; (800d018 <I2C_ITError+0x148>)
 800cf3c:	d02b      	beq.n	800cf96 <I2C_ITError+0xc6>
 800cf3e:	6503      	str	r3, [r0, #80]	; 0x50
 800cf40:	f7ff f896 	bl	800c070 <HAL_DMA_Abort_IT>
 800cf44:	b150      	cbz	r0, 800cf5c <I2C_ITError+0x8c>
 800cf46:	6822      	ldr	r2, [r4, #0]
 800cf48:	6b60      	ldr	r0, [r4, #52]	; 0x34
 800cf4a:	6813      	ldr	r3, [r2, #0]
 800cf4c:	f023 0301 	bic.w	r3, r3, #1
 800cf50:	6013      	str	r3, [r2, #0]
 800cf52:	2320      	movs	r3, #32
 800cf54:	f884 303d 	strb.w	r3, [r4, #61]	; 0x3d
 800cf58:	6d03      	ldr	r3, [r0, #80]	; 0x50
 800cf5a:	4798      	blx	r3
 800cf5c:	6c23      	ldr	r3, [r4, #64]	; 0x40
 800cf5e:	0719      	lsls	r1, r3, #28
 800cf60:	bf1f      	itttt	ne
 800cf62:	6822      	ldrne	r2, [r4, #0]
 800cf64:	6853      	ldrne	r3, [r2, #4]
 800cf66:	f423 63e0 	bicne.w	r3, r3, #1792	; 0x700
 800cf6a:	6053      	strne	r3, [r2, #4]
 800cf6c:	f894 303d 	ldrb.w	r3, [r4, #61]	; 0x3d
 800cf70:	6c22      	ldr	r2, [r4, #64]	; 0x40
 800cf72:	0752      	lsls	r2, r2, #29
 800cf74:	b2db      	uxtb	r3, r3
 800cf76:	d50d      	bpl.n	800cf94 <I2C_ITError+0xc4>
 800cf78:	2b28      	cmp	r3, #40	; 0x28
 800cf7a:	d10b      	bne.n	800cf94 <I2C_ITError+0xc4>
 800cf7c:	4b27      	ldr	r3, [pc, #156]	; (800d01c <I2C_ITError+0x14c>)
 800cf7e:	62e3      	str	r3, [r4, #44]	; 0x2c
 800cf80:	2220      	movs	r2, #32
 800cf82:	2300      	movs	r3, #0
 800cf84:	6323      	str	r3, [r4, #48]	; 0x30
 800cf86:	4620      	mov	r0, r4
 800cf88:	f884 203d 	strb.w	r2, [r4, #61]	; 0x3d
 800cf8c:	f884 303e 	strb.w	r3, [r4, #62]	; 0x3e
 800cf90:	f7ff fe43 	bl	800cc1a <HAL_I2C_ListenCpltCallback>
 800cf94:	bd10      	pop	{r4, pc}
 800cf96:	6ba0      	ldr	r0, [r4, #56]	; 0x38
 800cf98:	6503      	str	r3, [r0, #80]	; 0x50
 800cf9a:	f7ff f869 	bl	800c070 <HAL_DMA_Abort_IT>
 800cf9e:	2800      	cmp	r0, #0
 800cfa0:	d0dc      	beq.n	800cf5c <I2C_ITError+0x8c>
 800cfa2:	6823      	ldr	r3, [r4, #0]
 800cfa4:	695a      	ldr	r2, [r3, #20]
 800cfa6:	0651      	lsls	r1, r2, #25
 800cfa8:	d505      	bpl.n	800cfb6 <I2C_ITError+0xe6>
 800cfaa:	691a      	ldr	r2, [r3, #16]
 800cfac:	6a63      	ldr	r3, [r4, #36]	; 0x24
 800cfae:	701a      	strb	r2, [r3, #0]
 800cfb0:	6a63      	ldr	r3, [r4, #36]	; 0x24
 800cfb2:	3301      	adds	r3, #1
 800cfb4:	6263      	str	r3, [r4, #36]	; 0x24
 800cfb6:	6822      	ldr	r2, [r4, #0]
 800cfb8:	6ba0      	ldr	r0, [r4, #56]	; 0x38
 800cfba:	6813      	ldr	r3, [r2, #0]
 800cfbc:	f023 0301 	bic.w	r3, r3, #1
 800cfc0:	6013      	str	r3, [r2, #0]
 800cfc2:	2320      	movs	r3, #32
 800cfc4:	f884 303d 	strb.w	r3, [r4, #61]	; 0x3d
 800cfc8:	e7c6      	b.n	800cf58 <I2C_ITError+0x88>
 800cfca:	f894 103d 	ldrb.w	r1, [r4, #61]	; 0x3d
 800cfce:	2960      	cmp	r1, #96	; 0x60
 800cfd0:	d115      	bne.n	800cffe <I2C_ITError+0x12e>
 800cfd2:	2120      	movs	r1, #32
 800cfd4:	f884 103d 	strb.w	r1, [r4, #61]	; 0x3d
 800cfd8:	6422      	str	r2, [r4, #64]	; 0x40
 800cfda:	695a      	ldr	r2, [r3, #20]
 800cfdc:	0652      	lsls	r2, r2, #25
 800cfde:	d505      	bpl.n	800cfec <I2C_ITError+0x11c>
 800cfe0:	691a      	ldr	r2, [r3, #16]
 800cfe2:	6a63      	ldr	r3, [r4, #36]	; 0x24
 800cfe4:	701a      	strb	r2, [r3, #0]
 800cfe6:	6a63      	ldr	r3, [r4, #36]	; 0x24
 800cfe8:	3301      	adds	r3, #1
 800cfea:	6263      	str	r3, [r4, #36]	; 0x24
 800cfec:	6822      	ldr	r2, [r4, #0]
 800cfee:	6813      	ldr	r3, [r2, #0]
 800cff0:	f023 0301 	bic.w	r3, r3, #1
 800cff4:	6013      	str	r3, [r2, #0]
 800cff6:	4620      	mov	r0, r4
 800cff8:	f7ff ff09 	bl	800ce0e <HAL_I2C_AbortCpltCallback>
 800cffc:	e7ae      	b.n	800cf5c <I2C_ITError+0x8c>
 800cffe:	695a      	ldr	r2, [r3, #20]
 800d000:	0650      	lsls	r0, r2, #25
 800d002:	d505      	bpl.n	800d010 <I2C_ITError+0x140>
 800d004:	691a      	ldr	r2, [r3, #16]
 800d006:	6a63      	ldr	r3, [r4, #36]	; 0x24
 800d008:	701a      	strb	r2, [r3, #0]
 800d00a:	6a63      	ldr	r3, [r4, #36]	; 0x24
 800d00c:	3301      	adds	r3, #1
 800d00e:	6263      	str	r3, [r4, #36]	; 0x24
 800d010:	4620      	mov	r0, r4
 800d012:	f7fd fe07 	bl	800ac24 <HAL_I2C_ErrorCallback>
 800d016:	e7a1      	b.n	800cf5c <I2C_ITError+0x8c>
 800d018:	0800ce11 	.word	0x0800ce11
 800d01c:	ffff0000 	.word	0xffff0000

0800d020 <HAL_I2C_EV_IRQHandler>:
 800d020:	b5f0      	push	{r4, r5, r6, r7, lr}
 800d022:	6803      	ldr	r3, [r0, #0]
 800d024:	4604      	mov	r4, r0
 800d026:	685a      	ldr	r2, [r3, #4]
 800d028:	6ac6      	ldr	r6, [r0, #44]	; 0x2c
 800d02a:	f890 003e 	ldrb.w	r0, [r0, #62]	; 0x3e
 800d02e:	f894 103d 	ldrb.w	r1, [r4, #61]	; 0x3d
 800d032:	2810      	cmp	r0, #16
 800d034:	b08f      	sub	sp, #60	; 0x3c
 800d036:	b2c5      	uxtb	r5, r0
 800d038:	b2c9      	uxtb	r1, r1
 800d03a:	d002      	beq.n	800d042 <HAL_I2C_EV_IRQHandler+0x22>
 800d03c:	2d40      	cmp	r5, #64	; 0x40
 800d03e:	f040 82c0 	bne.w	800d5c2 <HAL_I2C_EV_IRQHandler+0x5a2>
 800d042:	699f      	ldr	r7, [r3, #24]
 800d044:	6958      	ldr	r0, [r3, #20]
 800d046:	f010 0f01 	tst.w	r0, #1
 800d04a:	d107      	bne.n	800d05c <HAL_I2C_EV_IRQHandler+0x3c>
 800d04c:	f5b6 0f2a 	cmp.w	r6, #11141120	; 0xaa0000
 800d050:	d002      	beq.n	800d058 <HAL_I2C_EV_IRQHandler+0x38>
 800d052:	f1b6 4f2a 	cmp.w	r6, #2852126720	; 0xaa000000
 800d056:	d151      	bne.n	800d0fc <HAL_I2C_EV_IRQHandler+0xdc>
 800d058:	b00f      	add	sp, #60	; 0x3c
 800d05a:	bdf0      	pop	{r4, r5, r6, r7, pc}
 800d05c:	0596      	lsls	r6, r2, #22
 800d05e:	d54d      	bpl.n	800d0fc <HAL_I2C_EV_IRQHandler+0xdc>
 800d060:	6ae2      	ldr	r2, [r4, #44]	; 0x2c
 800d062:	f5b2 0f2a 	cmp.w	r2, #11141120	; 0xaa0000
 800d066:	d10c      	bne.n	800d082 <HAL_I2C_EV_IRQHandler+0x62>
 800d068:	2201      	movs	r2, #1
 800d06a:	62e2      	str	r2, [r4, #44]	; 0x2c
 800d06c:	f894 203e 	ldrb.w	r2, [r4, #62]	; 0x3e
 800d070:	2a40      	cmp	r2, #64	; 0x40
 800d072:	d111      	bne.n	800d098 <HAL_I2C_EV_IRQHandler+0x78>
 800d074:	6d22      	ldr	r2, [r4, #80]	; 0x50
 800d076:	b952      	cbnz	r2, 800d08e <HAL_I2C_EV_IRQHandler+0x6e>
 800d078:	6c62      	ldr	r2, [r4, #68]	; 0x44
 800d07a:	f002 02fe 	and.w	r2, r2, #254	; 0xfe
 800d07e:	611a      	str	r2, [r3, #16]
 800d080:	e7ea      	b.n	800d058 <HAL_I2C_EV_IRQHandler+0x38>
 800d082:	6ae2      	ldr	r2, [r4, #44]	; 0x2c
 800d084:	f1b2 4f2a 	cmp.w	r2, #2852126720	; 0xaa000000
 800d088:	d1f0      	bne.n	800d06c <HAL_I2C_EV_IRQHandler+0x4c>
 800d08a:	2208      	movs	r2, #8
 800d08c:	e7ed      	b.n	800d06a <HAL_I2C_EV_IRQHandler+0x4a>
 800d08e:	6c62      	ldr	r2, [r4, #68]	; 0x44
 800d090:	f042 0201 	orr.w	r2, r2, #1
 800d094:	b2d2      	uxtb	r2, r2
 800d096:	e7f2      	b.n	800d07e <HAL_I2C_EV_IRQHandler+0x5e>
 800d098:	6922      	ldr	r2, [r4, #16]
 800d09a:	f5b2 4f80 	cmp.w	r2, #16384	; 0x4000
 800d09e:	d11a      	bne.n	800d0d6 <HAL_I2C_EV_IRQHandler+0xb6>
 800d0a0:	f894 203d 	ldrb.w	r2, [r4, #61]	; 0x3d
 800d0a4:	2a21      	cmp	r2, #33	; 0x21
 800d0a6:	6c62      	ldr	r2, [r4, #68]	; 0x44
 800d0a8:	d111      	bne.n	800d0ce <HAL_I2C_EV_IRQHandler+0xae>
 800d0aa:	f002 02fe 	and.w	r2, r2, #254	; 0xfe
 800d0ae:	611a      	str	r2, [r3, #16]
 800d0b0:	6b62      	ldr	r2, [r4, #52]	; 0x34
 800d0b2:	b10a      	cbz	r2, 800d0b8 <HAL_I2C_EV_IRQHandler+0x98>
 800d0b4:	6bd2      	ldr	r2, [r2, #60]	; 0x3c
 800d0b6:	b92a      	cbnz	r2, 800d0c4 <HAL_I2C_EV_IRQHandler+0xa4>
 800d0b8:	6ba2      	ldr	r2, [r4, #56]	; 0x38
 800d0ba:	2a00      	cmp	r2, #0
 800d0bc:	d0cc      	beq.n	800d058 <HAL_I2C_EV_IRQHandler+0x38>
 800d0be:	6bd2      	ldr	r2, [r2, #60]	; 0x3c
 800d0c0:	2a00      	cmp	r2, #0
 800d0c2:	d0c9      	beq.n	800d058 <HAL_I2C_EV_IRQHandler+0x38>
 800d0c4:	685a      	ldr	r2, [r3, #4]
 800d0c6:	f442 6200 	orr.w	r2, r2, #2048	; 0x800
 800d0ca:	605a      	str	r2, [r3, #4]
 800d0cc:	e7c4      	b.n	800d058 <HAL_I2C_EV_IRQHandler+0x38>
 800d0ce:	f042 0201 	orr.w	r2, r2, #1
 800d0d2:	b2d2      	uxtb	r2, r2
 800d0d4:	e7eb      	b.n	800d0ae <HAL_I2C_EV_IRQHandler+0x8e>
 800d0d6:	6d22      	ldr	r2, [r4, #80]	; 0x50
 800d0d8:	b932      	cbnz	r2, 800d0e8 <HAL_I2C_EV_IRQHandler+0xc8>
 800d0da:	6c62      	ldr	r2, [r4, #68]	; 0x44
 800d0dc:	11d2      	asrs	r2, r2, #7
 800d0de:	f002 0206 	and.w	r2, r2, #6
 800d0e2:	f042 02f0 	orr.w	r2, r2, #240	; 0xf0
 800d0e6:	e7ca      	b.n	800d07e <HAL_I2C_EV_IRQHandler+0x5e>
 800d0e8:	6d22      	ldr	r2, [r4, #80]	; 0x50
 800d0ea:	2a01      	cmp	r2, #1
 800d0ec:	d1b4      	bne.n	800d058 <HAL_I2C_EV_IRQHandler+0x38>
 800d0ee:	6c62      	ldr	r2, [r4, #68]	; 0x44
 800d0f0:	11d2      	asrs	r2, r2, #7
 800d0f2:	f002 0206 	and.w	r2, r2, #6
 800d0f6:	f042 02f1 	orr.w	r2, r2, #241	; 0xf1
 800d0fa:	e7c0      	b.n	800d07e <HAL_I2C_EV_IRQHandler+0x5e>
 800d0fc:	0706      	lsls	r6, r0, #28
 800d0fe:	d503      	bpl.n	800d108 <HAL_I2C_EV_IRQHandler+0xe8>
 800d100:	0596      	lsls	r6, r2, #22
 800d102:	d501      	bpl.n	800d108 <HAL_I2C_EV_IRQHandler+0xe8>
 800d104:	6c62      	ldr	r2, [r4, #68]	; 0x44
 800d106:	e7e4      	b.n	800d0d2 <HAL_I2C_EV_IRQHandler+0xb2>
 800d108:	0786      	lsls	r6, r0, #30
 800d10a:	f140 80dd 	bpl.w	800d2c8 <HAL_I2C_EV_IRQHandler+0x2a8>
 800d10e:	0596      	lsls	r6, r2, #22
 800d110:	f140 80da 	bpl.w	800d2c8 <HAL_I2C_EV_IRQHandler+0x2a8>
 800d114:	f894 103e 	ldrb.w	r1, [r4, #62]	; 0x3e
 800d118:	6ae2      	ldr	r2, [r4, #44]	; 0x2c
 800d11a:	6b25      	ldr	r5, [r4, #48]	; 0x30
 800d11c:	f894 003d 	ldrb.w	r0, [r4, #61]	; 0x3d
 800d120:	2822      	cmp	r0, #34	; 0x22
 800d122:	b2c9      	uxtb	r1, r1
 800d124:	f040 80c8 	bne.w	800d2b8 <HAL_I2C_EV_IRQHandler+0x298>
 800d128:	6d20      	ldr	r0, [r4, #80]	; 0x50
 800d12a:	b940      	cbnz	r0, 800d13e <HAL_I2C_EV_IRQHandler+0x11e>
 800d12c:	2940      	cmp	r1, #64	; 0x40
 800d12e:	d106      	bne.n	800d13e <HAL_I2C_EV_IRQHandler+0x11e>
 800d130:	9001      	str	r0, [sp, #4]
 800d132:	695a      	ldr	r2, [r3, #20]
 800d134:	9201      	str	r2, [sp, #4]
 800d136:	699b      	ldr	r3, [r3, #24]
 800d138:	9301      	str	r3, [sp, #4]
 800d13a:	9b01      	ldr	r3, [sp, #4]
 800d13c:	e78c      	b.n	800d058 <HAL_I2C_EV_IRQHandler+0x38>
 800d13e:	6d21      	ldr	r1, [r4, #80]	; 0x50
 800d140:	b989      	cbnz	r1, 800d166 <HAL_I2C_EV_IRQHandler+0x146>
 800d142:	6920      	ldr	r0, [r4, #16]
 800d144:	f5b0 4f40 	cmp.w	r0, #49152	; 0xc000
 800d148:	d10d      	bne.n	800d166 <HAL_I2C_EV_IRQHandler+0x146>
 800d14a:	9102      	str	r1, [sp, #8]
 800d14c:	695a      	ldr	r2, [r3, #20]
 800d14e:	9202      	str	r2, [sp, #8]
 800d150:	699a      	ldr	r2, [r3, #24]
 800d152:	9202      	str	r2, [sp, #8]
 800d154:	9a02      	ldr	r2, [sp, #8]
 800d156:	681a      	ldr	r2, [r3, #0]
 800d158:	f442 7280 	orr.w	r2, r2, #256	; 0x100
 800d15c:	601a      	str	r2, [r3, #0]
 800d15e:	6d23      	ldr	r3, [r4, #80]	; 0x50
 800d160:	3301      	adds	r3, #1
 800d162:	6523      	str	r3, [r4, #80]	; 0x50
 800d164:	e778      	b.n	800d058 <HAL_I2C_EV_IRQHandler+0x38>
 800d166:	8d61      	ldrh	r1, [r4, #42]	; 0x2a
 800d168:	b289      	uxth	r1, r1
 800d16a:	b951      	cbnz	r1, 800d182 <HAL_I2C_EV_IRQHandler+0x162>
 800d16c:	9103      	str	r1, [sp, #12]
 800d16e:	695a      	ldr	r2, [r3, #20]
 800d170:	9203      	str	r2, [sp, #12]
 800d172:	699a      	ldr	r2, [r3, #24]
 800d174:	9203      	str	r2, [sp, #12]
 800d176:	9a03      	ldr	r2, [sp, #12]
 800d178:	681a      	ldr	r2, [r3, #0]
 800d17a:	f442 7200 	orr.w	r2, r2, #512	; 0x200
 800d17e:	601a      	str	r2, [r3, #0]
 800d180:	e019      	b.n	800d1b6 <HAL_I2C_EV_IRQHandler+0x196>
 800d182:	8d61      	ldrh	r1, [r4, #42]	; 0x2a
 800d184:	b289      	uxth	r1, r1
 800d186:	2901      	cmp	r1, #1
 800d188:	d149      	bne.n	800d21e <HAL_I2C_EV_IRQHandler+0x1fe>
 800d18a:	f512 3f80 	cmn.w	r2, #65536	; 0x10000
 800d18e:	d11b      	bne.n	800d1c8 <HAL_I2C_EV_IRQHandler+0x1a8>
 800d190:	681a      	ldr	r2, [r3, #0]
 800d192:	f422 6280 	bic.w	r2, r2, #1024	; 0x400
 800d196:	601a      	str	r2, [r3, #0]
 800d198:	685a      	ldr	r2, [r3, #4]
 800d19a:	f412 6200 	ands.w	r2, r2, #2048	; 0x800
 800d19e:	d00c      	beq.n	800d1ba <HAL_I2C_EV_IRQHandler+0x19a>
 800d1a0:	681a      	ldr	r2, [r3, #0]
 800d1a2:	f422 6280 	bic.w	r2, r2, #1024	; 0x400
 800d1a6:	601a      	str	r2, [r3, #0]
 800d1a8:	2200      	movs	r2, #0
 800d1aa:	9204      	str	r2, [sp, #16]
 800d1ac:	695a      	ldr	r2, [r3, #20]
 800d1ae:	9204      	str	r2, [sp, #16]
 800d1b0:	699b      	ldr	r3, [r3, #24]
 800d1b2:	9304      	str	r3, [sp, #16]
 800d1b4:	9b04      	ldr	r3, [sp, #16]
 800d1b6:	2300      	movs	r3, #0
 800d1b8:	e7d3      	b.n	800d162 <HAL_I2C_EV_IRQHandler+0x142>
 800d1ba:	9205      	str	r2, [sp, #20]
 800d1bc:	695a      	ldr	r2, [r3, #20]
 800d1be:	9205      	str	r2, [sp, #20]
 800d1c0:	699a      	ldr	r2, [r3, #24]
 800d1c2:	9205      	str	r2, [sp, #20]
 800d1c4:	9a05      	ldr	r2, [sp, #20]
 800d1c6:	e7d7      	b.n	800d178 <HAL_I2C_EV_IRQHandler+0x158>
 800d1c8:	2a08      	cmp	r2, #8
 800d1ca:	d01c      	beq.n	800d206 <HAL_I2C_EV_IRQHandler+0x1e6>
 800d1cc:	2a20      	cmp	r2, #32
 800d1ce:	d01a      	beq.n	800d206 <HAL_I2C_EV_IRQHandler+0x1e6>
 800d1d0:	2d12      	cmp	r5, #18
 800d1d2:	d10d      	bne.n	800d1f0 <HAL_I2C_EV_IRQHandler+0x1d0>
 800d1d4:	2a01      	cmp	r2, #1
 800d1d6:	d116      	bne.n	800d206 <HAL_I2C_EV_IRQHandler+0x1e6>
 800d1d8:	681a      	ldr	r2, [r3, #0]
 800d1da:	f422 6280 	bic.w	r2, r2, #1024	; 0x400
 800d1de:	601a      	str	r2, [r3, #0]
 800d1e0:	2200      	movs	r2, #0
 800d1e2:	9206      	str	r2, [sp, #24]
 800d1e4:	695a      	ldr	r2, [r3, #20]
 800d1e6:	9206      	str	r2, [sp, #24]
 800d1e8:	699b      	ldr	r3, [r3, #24]
 800d1ea:	9306      	str	r3, [sp, #24]
 800d1ec:	9b06      	ldr	r3, [sp, #24]
 800d1ee:	e7e2      	b.n	800d1b6 <HAL_I2C_EV_IRQHandler+0x196>
 800d1f0:	2a10      	cmp	r2, #16
 800d1f2:	d8f1      	bhi.n	800d1d8 <HAL_I2C_EV_IRQHandler+0x1b8>
 800d1f4:	4991      	ldr	r1, [pc, #580]	; (800d43c <HAL_I2C_EV_IRQHandler+0x41c>)
 800d1f6:	fa21 f202 	lsr.w	r2, r1, r2
 800d1fa:	07d7      	lsls	r7, r2, #31
 800d1fc:	d5ec      	bpl.n	800d1d8 <HAL_I2C_EV_IRQHandler+0x1b8>
 800d1fe:	681a      	ldr	r2, [r3, #0]
 800d200:	f442 6280 	orr.w	r2, r2, #1024	; 0x400
 800d204:	e7eb      	b.n	800d1de <HAL_I2C_EV_IRQHandler+0x1be>
 800d206:	681a      	ldr	r2, [r3, #0]
 800d208:	f422 6280 	bic.w	r2, r2, #1024	; 0x400
 800d20c:	601a      	str	r2, [r3, #0]
 800d20e:	2200      	movs	r2, #0
 800d210:	9207      	str	r2, [sp, #28]
 800d212:	695a      	ldr	r2, [r3, #20]
 800d214:	9207      	str	r2, [sp, #28]
 800d216:	699a      	ldr	r2, [r3, #24]
 800d218:	9207      	str	r2, [sp, #28]
 800d21a:	9a07      	ldr	r2, [sp, #28]
 800d21c:	e7ac      	b.n	800d178 <HAL_I2C_EV_IRQHandler+0x158>
 800d21e:	8d61      	ldrh	r1, [r4, #42]	; 0x2a
 800d220:	b289      	uxth	r1, r1
 800d222:	2902      	cmp	r1, #2
 800d224:	d12a      	bne.n	800d27c <HAL_I2C_EV_IRQHandler+0x25c>
 800d226:	2a10      	cmp	r2, #16
 800d228:	d803      	bhi.n	800d232 <HAL_I2C_EV_IRQHandler+0x212>
 800d22a:	4984      	ldr	r1, [pc, #528]	; (800d43c <HAL_I2C_EV_IRQHandler+0x41c>)
 800d22c:	40d1      	lsrs	r1, r2
 800d22e:	07ce      	lsls	r6, r1, #31
 800d230:	d420      	bmi.n	800d274 <HAL_I2C_EV_IRQHandler+0x254>
 800d232:	6819      	ldr	r1, [r3, #0]
 800d234:	f421 6180 	bic.w	r1, r1, #1024	; 0x400
 800d238:	6019      	str	r1, [r3, #0]
 800d23a:	6819      	ldr	r1, [r3, #0]
 800d23c:	f441 6100 	orr.w	r1, r1, #2048	; 0x800
 800d240:	6019      	str	r1, [r3, #0]
 800d242:	6859      	ldr	r1, [r3, #4]
 800d244:	050d      	lsls	r5, r1, #20
 800d246:	d50d      	bpl.n	800d264 <HAL_I2C_EV_IRQHandler+0x244>
 800d248:	f512 3f80 	cmn.w	r2, #65536	; 0x10000
 800d24c:	d006      	beq.n	800d25c <HAL_I2C_EV_IRQHandler+0x23c>
 800d24e:	1e51      	subs	r1, r2, #1
 800d250:	291f      	cmp	r1, #31
 800d252:	d807      	bhi.n	800d264 <HAL_I2C_EV_IRQHandler+0x244>
 800d254:	4a7a      	ldr	r2, [pc, #488]	; (800d440 <HAL_I2C_EV_IRQHandler+0x420>)
 800d256:	40ca      	lsrs	r2, r1
 800d258:	07d0      	lsls	r0, r2, #31
 800d25a:	d503      	bpl.n	800d264 <HAL_I2C_EV_IRQHandler+0x244>
 800d25c:	685a      	ldr	r2, [r3, #4]
 800d25e:	f442 5280 	orr.w	r2, r2, #4096	; 0x1000
 800d262:	605a      	str	r2, [r3, #4]
 800d264:	2200      	movs	r2, #0
 800d266:	9208      	str	r2, [sp, #32]
 800d268:	695a      	ldr	r2, [r3, #20]
 800d26a:	9208      	str	r2, [sp, #32]
 800d26c:	699b      	ldr	r3, [r3, #24]
 800d26e:	9308      	str	r3, [sp, #32]
 800d270:	9b08      	ldr	r3, [sp, #32]
 800d272:	e7a0      	b.n	800d1b6 <HAL_I2C_EV_IRQHandler+0x196>
 800d274:	6819      	ldr	r1, [r3, #0]
 800d276:	f441 6180 	orr.w	r1, r1, #1024	; 0x400
 800d27a:	e7e1      	b.n	800d240 <HAL_I2C_EV_IRQHandler+0x220>
 800d27c:	6819      	ldr	r1, [r3, #0]
 800d27e:	f441 6180 	orr.w	r1, r1, #1024	; 0x400
 800d282:	6019      	str	r1, [r3, #0]
 800d284:	6859      	ldr	r1, [r3, #4]
 800d286:	0509      	lsls	r1, r1, #20
 800d288:	d50e      	bpl.n	800d2a8 <HAL_I2C_EV_IRQHandler+0x288>
 800d28a:	f512 3f80 	cmn.w	r2, #65536	; 0x10000
 800d28e:	d007      	beq.n	800d2a0 <HAL_I2C_EV_IRQHandler+0x280>
 800d290:	3a01      	subs	r2, #1
 800d292:	2a1f      	cmp	r2, #31
 800d294:	d808      	bhi.n	800d2a8 <HAL_I2C_EV_IRQHandler+0x288>
 800d296:	496a      	ldr	r1, [pc, #424]	; (800d440 <HAL_I2C_EV_IRQHandler+0x420>)
 800d298:	fa21 f202 	lsr.w	r2, r1, r2
 800d29c:	07d2      	lsls	r2, r2, #31
 800d29e:	d503      	bpl.n	800d2a8 <HAL_I2C_EV_IRQHandler+0x288>
 800d2a0:	685a      	ldr	r2, [r3, #4]
 800d2a2:	f442 5280 	orr.w	r2, r2, #4096	; 0x1000
 800d2a6:	605a      	str	r2, [r3, #4]
 800d2a8:	2200      	movs	r2, #0
 800d2aa:	9209      	str	r2, [sp, #36]	; 0x24
 800d2ac:	695a      	ldr	r2, [r3, #20]
 800d2ae:	9209      	str	r2, [sp, #36]	; 0x24
 800d2b0:	699b      	ldr	r3, [r3, #24]
 800d2b2:	9309      	str	r3, [sp, #36]	; 0x24
 800d2b4:	9b09      	ldr	r3, [sp, #36]	; 0x24
 800d2b6:	e77e      	b.n	800d1b6 <HAL_I2C_EV_IRQHandler+0x196>
 800d2b8:	2200      	movs	r2, #0
 800d2ba:	920a      	str	r2, [sp, #40]	; 0x28
 800d2bc:	695a      	ldr	r2, [r3, #20]
 800d2be:	920a      	str	r2, [sp, #40]	; 0x28
 800d2c0:	699b      	ldr	r3, [r3, #24]
 800d2c2:	930a      	str	r3, [sp, #40]	; 0x28
 800d2c4:	9b0a      	ldr	r3, [sp, #40]	; 0x28
 800d2c6:	e6c7      	b.n	800d058 <HAL_I2C_EV_IRQHandler+0x38>
 800d2c8:	077f      	lsls	r7, r7, #29
 800d2ca:	f140 808d 	bpl.w	800d3e8 <HAL_I2C_EV_IRQHandler+0x3c8>
 800d2ce:	685e      	ldr	r6, [r3, #4]
 800d2d0:	0536      	lsls	r6, r6, #20
 800d2d2:	f53f aec1 	bmi.w	800d058 <HAL_I2C_EV_IRQHandler+0x38>
 800d2d6:	0607      	lsls	r7, r0, #24
 800d2d8:	f3c0 0680 	ubfx	r6, r0, #2, #1
 800d2dc:	d53e      	bpl.n	800d35c <HAL_I2C_EV_IRQHandler+0x33c>
 800d2de:	0550      	lsls	r0, r2, #21
 800d2e0:	d53c      	bpl.n	800d35c <HAL_I2C_EV_IRQHandler+0x33c>
 800d2e2:	2e00      	cmp	r6, #0
 800d2e4:	d13d      	bne.n	800d362 <HAL_I2C_EV_IRQHandler+0x342>
 800d2e6:	f894 203d 	ldrb.w	r2, [r4, #61]	; 0x3d
 800d2ea:	8d25      	ldrh	r5, [r4, #40]	; 0x28
 800d2ec:	f894 103e 	ldrb.w	r1, [r4, #62]	; 0x3e
 800d2f0:	6ae0      	ldr	r0, [r4, #44]	; 0x2c
 800d2f2:	b2d2      	uxtb	r2, r2
 800d2f4:	b2c9      	uxtb	r1, r1
 800d2f6:	b9c5      	cbnz	r5, 800d32a <HAL_I2C_EV_IRQHandler+0x30a>
 800d2f8:	2a21      	cmp	r2, #33	; 0x21
 800d2fa:	d118      	bne.n	800d32e <HAL_I2C_EV_IRQHandler+0x30e>
 800d2fc:	2808      	cmp	r0, #8
 800d2fe:	d058      	beq.n	800d3b2 <HAL_I2C_EV_IRQHandler+0x392>
 800d300:	2820      	cmp	r0, #32
 800d302:	d056      	beq.n	800d3b2 <HAL_I2C_EV_IRQHandler+0x392>
 800d304:	f510 3f80 	cmn.w	r0, #65536	; 0x10000
 800d308:	d053      	beq.n	800d3b2 <HAL_I2C_EV_IRQHandler+0x392>
 800d30a:	685a      	ldr	r2, [r3, #4]
 800d30c:	f422 62e0 	bic.w	r2, r2, #1792	; 0x700
 800d310:	605a      	str	r2, [r3, #4]
 800d312:	2311      	movs	r3, #17
 800d314:	6323      	str	r3, [r4, #48]	; 0x30
 800d316:	2300      	movs	r3, #0
 800d318:	f884 303e 	strb.w	r3, [r4, #62]	; 0x3e
 800d31c:	2320      	movs	r3, #32
 800d31e:	f884 303d 	strb.w	r3, [r4, #61]	; 0x3d
 800d322:	4620      	mov	r0, r4
 800d324:	f7fd fc8c 	bl	800ac40 <HAL_I2C_MasterTxCpltCallback>
 800d328:	e696      	b.n	800d058 <HAL_I2C_EV_IRQHandler+0x38>
 800d32a:	2a21      	cmp	r2, #33	; 0x21
 800d32c:	d005      	beq.n	800d33a <HAL_I2C_EV_IRQHandler+0x31a>
 800d32e:	2940      	cmp	r1, #64	; 0x40
 800d330:	f47f ae92 	bne.w	800d058 <HAL_I2C_EV_IRQHandler+0x38>
 800d334:	2a22      	cmp	r2, #34	; 0x22
 800d336:	f47f ae8f 	bne.w	800d058 <HAL_I2C_EV_IRQHandler+0x38>
 800d33a:	8d62      	ldrh	r2, [r4, #42]	; 0x2a
 800d33c:	b292      	uxth	r2, r2
 800d33e:	b91a      	cbnz	r2, 800d348 <HAL_I2C_EV_IRQHandler+0x328>
 800d340:	685a      	ldr	r2, [r3, #4]
 800d342:	f422 6280 	bic.w	r2, r2, #1024	; 0x400
 800d346:	e6c0      	b.n	800d0ca <HAL_I2C_EV_IRQHandler+0xaa>
 800d348:	f894 203e 	ldrb.w	r2, [r4, #62]	; 0x3e
 800d34c:	2a40      	cmp	r2, #64	; 0x40
 800d34e:	d116      	bne.n	800d37e <HAL_I2C_EV_IRQHandler+0x35e>
 800d350:	4620      	mov	r0, r4
 800d352:	b00f      	add	sp, #60	; 0x3c
 800d354:	e8bd 40f0 	ldmia.w	sp!, {r4, r5, r6, r7, lr}
 800d358:	f7ff bc61 	b.w	800cc1e <I2C_MemoryTransmit_TXE_BTF>
 800d35c:	2e00      	cmp	r6, #0
 800d35e:	f43f ae7b 	beq.w	800d058 <HAL_I2C_EV_IRQHandler+0x38>
 800d362:	0597      	lsls	r7, r2, #22
 800d364:	f57f ae78 	bpl.w	800d058 <HAL_I2C_EV_IRQHandler+0x38>
 800d368:	2921      	cmp	r1, #33	; 0x21
 800d36a:	d139      	bne.n	800d3e0 <HAL_I2C_EV_IRQHandler+0x3c0>
 800d36c:	6ae1      	ldr	r1, [r4, #44]	; 0x2c
 800d36e:	f894 203d 	ldrb.w	r2, [r4, #61]	; 0x3d
 800d372:	2a21      	cmp	r2, #33	; 0x21
 800d374:	f47f ae70 	bne.w	800d058 <HAL_I2C_EV_IRQHandler+0x38>
 800d378:	8d62      	ldrh	r2, [r4, #42]	; 0x2a
 800d37a:	b292      	uxth	r2, r2
 800d37c:	b14a      	cbz	r2, 800d392 <HAL_I2C_EV_IRQHandler+0x372>
 800d37e:	6a62      	ldr	r2, [r4, #36]	; 0x24
 800d380:	f812 1b01 	ldrb.w	r1, [r2], #1
 800d384:	6119      	str	r1, [r3, #16]
 800d386:	6262      	str	r2, [r4, #36]	; 0x24
 800d388:	8d63      	ldrh	r3, [r4, #42]	; 0x2a
 800d38a:	3b01      	subs	r3, #1
 800d38c:	b29b      	uxth	r3, r3
 800d38e:	8563      	strh	r3, [r4, #42]	; 0x2a
 800d390:	e662      	b.n	800d058 <HAL_I2C_EV_IRQHandler+0x38>
 800d392:	2908      	cmp	r1, #8
 800d394:	d00d      	beq.n	800d3b2 <HAL_I2C_EV_IRQHandler+0x392>
 800d396:	2920      	cmp	r1, #32
 800d398:	d00b      	beq.n	800d3b2 <HAL_I2C_EV_IRQHandler+0x392>
 800d39a:	f511 3f80 	cmn.w	r1, #65536	; 0x10000
 800d39e:	d008      	beq.n	800d3b2 <HAL_I2C_EV_IRQHandler+0x392>
 800d3a0:	6859      	ldr	r1, [r3, #4]
 800d3a2:	f421 61e0 	bic.w	r1, r1, #1792	; 0x700
 800d3a6:	6059      	str	r1, [r3, #4]
 800d3a8:	2311      	movs	r3, #17
 800d3aa:	6323      	str	r3, [r4, #48]	; 0x30
 800d3ac:	f884 203e 	strb.w	r2, [r4, #62]	; 0x3e
 800d3b0:	e7b4      	b.n	800d31c <HAL_I2C_EV_IRQHandler+0x2fc>
 800d3b2:	685a      	ldr	r2, [r3, #4]
 800d3b4:	f422 62e0 	bic.w	r2, r2, #1792	; 0x700
 800d3b8:	605a      	str	r2, [r3, #4]
 800d3ba:	681a      	ldr	r2, [r3, #0]
 800d3bc:	f442 7200 	orr.w	r2, r2, #512	; 0x200
 800d3c0:	601a      	str	r2, [r3, #0]
 800d3c2:	2300      	movs	r3, #0
 800d3c4:	2220      	movs	r2, #32
 800d3c6:	6323      	str	r3, [r4, #48]	; 0x30
 800d3c8:	f884 203d 	strb.w	r2, [r4, #61]	; 0x3d
 800d3cc:	f894 203e 	ldrb.w	r2, [r4, #62]	; 0x3e
 800d3d0:	f884 303e 	strb.w	r3, [r4, #62]	; 0x3e
 800d3d4:	2a40      	cmp	r2, #64	; 0x40
 800d3d6:	4620      	mov	r0, r4
 800d3d8:	d1a4      	bne.n	800d324 <HAL_I2C_EV_IRQHandler+0x304>
 800d3da:	f7ff fc1f 	bl	800cc1c <HAL_I2C_MemTxCpltCallback>
 800d3de:	e63b      	b.n	800d058 <HAL_I2C_EV_IRQHandler+0x38>
 800d3e0:	2d40      	cmp	r5, #64	; 0x40
 800d3e2:	f47f ae39 	bne.w	800d058 <HAL_I2C_EV_IRQHandler+0x38>
 800d3e6:	e7b3      	b.n	800d350 <HAL_I2C_EV_IRQHandler+0x330>
 800d3e8:	6859      	ldr	r1, [r3, #4]
 800d3ea:	050e      	lsls	r6, r1, #20
 800d3ec:	f53f ae34 	bmi.w	800d058 <HAL_I2C_EV_IRQHandler+0x38>
 800d3f0:	0645      	lsls	r5, r0, #25
 800d3f2:	f3c0 0180 	ubfx	r1, r0, #2, #1
 800d3f6:	d57a      	bpl.n	800d4ee <HAL_I2C_EV_IRQHandler+0x4ce>
 800d3f8:	0550      	lsls	r0, r2, #21
 800d3fa:	d578      	bpl.n	800d4ee <HAL_I2C_EV_IRQHandler+0x4ce>
 800d3fc:	2900      	cmp	r1, #0
 800d3fe:	d179      	bne.n	800d4f4 <HAL_I2C_EV_IRQHandler+0x4d4>
 800d400:	f894 203d 	ldrb.w	r2, [r4, #61]	; 0x3d
 800d404:	2a22      	cmp	r2, #34	; 0x22
 800d406:	f47f ae27 	bne.w	800d058 <HAL_I2C_EV_IRQHandler+0x38>
 800d40a:	8d62      	ldrh	r2, [r4, #42]	; 0x2a
 800d40c:	b292      	uxth	r2, r2
 800d40e:	2a03      	cmp	r2, #3
 800d410:	d918      	bls.n	800d444 <HAL_I2C_EV_IRQHandler+0x424>
 800d412:	691a      	ldr	r2, [r3, #16]
 800d414:	6a63      	ldr	r3, [r4, #36]	; 0x24
 800d416:	701a      	strb	r2, [r3, #0]
 800d418:	6a63      	ldr	r3, [r4, #36]	; 0x24
 800d41a:	3301      	adds	r3, #1
 800d41c:	6263      	str	r3, [r4, #36]	; 0x24
 800d41e:	8d63      	ldrh	r3, [r4, #42]	; 0x2a
 800d420:	3b01      	subs	r3, #1
 800d422:	b29b      	uxth	r3, r3
 800d424:	8563      	strh	r3, [r4, #42]	; 0x2a
 800d426:	8d63      	ldrh	r3, [r4, #42]	; 0x2a
 800d428:	b29b      	uxth	r3, r3
 800d42a:	2b03      	cmp	r3, #3
 800d42c:	f47f ae14 	bne.w	800d058 <HAL_I2C_EV_IRQHandler+0x38>
 800d430:	6822      	ldr	r2, [r4, #0]
 800d432:	6853      	ldr	r3, [r2, #4]
 800d434:	f423 6380 	bic.w	r3, r3, #1024	; 0x400
 800d438:	6053      	str	r3, [r2, #4]
 800d43a:	e60d      	b.n	800d058 <HAL_I2C_EV_IRQHandler+0x38>
 800d43c:	00010014 	.word	0x00010014
 800d440:	80008081 	.word	0x80008081
 800d444:	6ae0      	ldr	r0, [r4, #44]	; 0x2c
 800d446:	2802      	cmp	r0, #2
 800d448:	f43f ae06 	beq.w	800d058 <HAL_I2C_EV_IRQHandler+0x38>
 800d44c:	2a01      	cmp	r2, #1
 800d44e:	f63f ae03 	bhi.w	800d058 <HAL_I2C_EV_IRQHandler+0x38>
 800d452:	4a75      	ldr	r2, [pc, #468]	; (800d628 <HAL_I2C_EV_IRQHandler+0x608>)
 800d454:	910b      	str	r1, [sp, #44]	; 0x2c
 800d456:	6812      	ldr	r2, [r2, #0]
 800d458:	f246 11a8 	movw	r1, #25000	; 0x61a8
 800d45c:	fbb2 f2f1 	udiv	r2, r2, r1
 800d460:	eb02 0282 	add.w	r2, r2, r2, lsl #2
 800d464:	920b      	str	r2, [sp, #44]	; 0x2c
 800d466:	9a0b      	ldr	r2, [sp, #44]	; 0x2c
 800d468:	3a01      	subs	r2, #1
 800d46a:	920b      	str	r2, [sp, #44]	; 0x2c
 800d46c:	990b      	ldr	r1, [sp, #44]	; 0x2c
 800d46e:	b9d1      	cbnz	r1, 800d4a6 <HAL_I2C_EV_IRQHandler+0x486>
 800d470:	6c22      	ldr	r2, [r4, #64]	; 0x40
 800d472:	f042 0220 	orr.w	r2, r2, #32
 800d476:	6422      	str	r2, [r4, #64]	; 0x40
 800d478:	685a      	ldr	r2, [r3, #4]
 800d47a:	f422 62e0 	bic.w	r2, r2, #1792	; 0x700
 800d47e:	605a      	str	r2, [r3, #4]
 800d480:	691a      	ldr	r2, [r3, #16]
 800d482:	6a63      	ldr	r3, [r4, #36]	; 0x24
 800d484:	701a      	strb	r2, [r3, #0]
 800d486:	6a63      	ldr	r3, [r4, #36]	; 0x24
 800d488:	3301      	adds	r3, #1
 800d48a:	6263      	str	r3, [r4, #36]	; 0x24
 800d48c:	8d63      	ldrh	r3, [r4, #42]	; 0x2a
 800d48e:	3b01      	subs	r3, #1
 800d490:	b29b      	uxth	r3, r3
 800d492:	8563      	strh	r3, [r4, #42]	; 0x2a
 800d494:	2320      	movs	r3, #32
 800d496:	f884 303d 	strb.w	r3, [r4, #61]	; 0x3d
 800d49a:	4620      	mov	r0, r4
 800d49c:	f884 103e 	strb.w	r1, [r4, #62]	; 0x3e
 800d4a0:	f7fd fbc0 	bl	800ac24 <HAL_I2C_ErrorCallback>
 800d4a4:	e5d8      	b.n	800d058 <HAL_I2C_EV_IRQHandler+0x38>
 800d4a6:	681a      	ldr	r2, [r3, #0]
 800d4a8:	f412 7200 	ands.w	r2, r2, #512	; 0x200
 800d4ac:	d1db      	bne.n	800d466 <HAL_I2C_EV_IRQHandler+0x446>
 800d4ae:	6819      	ldr	r1, [r3, #0]
 800d4b0:	f421 6180 	bic.w	r1, r1, #1024	; 0x400
 800d4b4:	6019      	str	r1, [r3, #0]
 800d4b6:	6859      	ldr	r1, [r3, #4]
 800d4b8:	f421 61e0 	bic.w	r1, r1, #1792	; 0x700
 800d4bc:	6059      	str	r1, [r3, #4]
 800d4be:	6919      	ldr	r1, [r3, #16]
 800d4c0:	6a63      	ldr	r3, [r4, #36]	; 0x24
 800d4c2:	7019      	strb	r1, [r3, #0]
 800d4c4:	6a63      	ldr	r3, [r4, #36]	; 0x24
 800d4c6:	3301      	adds	r3, #1
 800d4c8:	6263      	str	r3, [r4, #36]	; 0x24
 800d4ca:	8d63      	ldrh	r3, [r4, #42]	; 0x2a
 800d4cc:	3b01      	subs	r3, #1
 800d4ce:	b29b      	uxth	r3, r3
 800d4d0:	8563      	strh	r3, [r4, #42]	; 0x2a
 800d4d2:	2320      	movs	r3, #32
 800d4d4:	f884 303d 	strb.w	r3, [r4, #61]	; 0x3d
 800d4d8:	f894 303e 	ldrb.w	r3, [r4, #62]	; 0x3e
 800d4dc:	f884 203e 	strb.w	r2, [r4, #62]	; 0x3e
 800d4e0:	2b40      	cmp	r3, #64	; 0x40
 800d4e2:	d168      	bne.n	800d5b6 <HAL_I2C_EV_IRQHandler+0x596>
 800d4e4:	6322      	str	r2, [r4, #48]	; 0x30
 800d4e6:	4620      	mov	r0, r4
 800d4e8:	f7ff fbea 	bl	800ccc0 <HAL_I2C_MemRxCpltCallback>
 800d4ec:	e5b4      	b.n	800d058 <HAL_I2C_EV_IRQHandler+0x38>
 800d4ee:	2900      	cmp	r1, #0
 800d4f0:	f43f adb2 	beq.w	800d058 <HAL_I2C_EV_IRQHandler+0x38>
 800d4f4:	0592      	lsls	r2, r2, #22
 800d4f6:	f57f adaf 	bpl.w	800d058 <HAL_I2C_EV_IRQHandler+0x38>
 800d4fa:	6ae2      	ldr	r2, [r4, #44]	; 0x2c
 800d4fc:	8d60      	ldrh	r0, [r4, #42]	; 0x2a
 800d4fe:	6a61      	ldr	r1, [r4, #36]	; 0x24
 800d500:	b280      	uxth	r0, r0
 800d502:	2804      	cmp	r0, #4
 800d504:	d109      	bne.n	800d51a <HAL_I2C_EV_IRQHandler+0x4fa>
 800d506:	685a      	ldr	r2, [r3, #4]
 800d508:	f422 6280 	bic.w	r2, r2, #1024	; 0x400
 800d50c:	605a      	str	r2, [r3, #4]
 800d50e:	691b      	ldr	r3, [r3, #16]
 800d510:	700b      	strb	r3, [r1, #0]
 800d512:	6a63      	ldr	r3, [r4, #36]	; 0x24
 800d514:	3301      	adds	r3, #1
 800d516:	6263      	str	r3, [r4, #36]	; 0x24
 800d518:	e736      	b.n	800d388 <HAL_I2C_EV_IRQHandler+0x368>
 800d51a:	8d60      	ldrh	r0, [r4, #42]	; 0x2a
 800d51c:	b280      	uxth	r0, r0
 800d51e:	2803      	cmp	r0, #3
 800d520:	d10c      	bne.n	800d53c <HAL_I2C_EV_IRQHandler+0x51c>
 800d522:	6858      	ldr	r0, [r3, #4]
 800d524:	2a04      	cmp	r2, #4
 800d526:	f420 6080 	bic.w	r0, r0, #1024	; 0x400
 800d52a:	6058      	str	r0, [r3, #4]
 800d52c:	d0ef      	beq.n	800d50e <HAL_I2C_EV_IRQHandler+0x4ee>
 800d52e:	2a02      	cmp	r2, #2
 800d530:	d0ed      	beq.n	800d50e <HAL_I2C_EV_IRQHandler+0x4ee>
 800d532:	681a      	ldr	r2, [r3, #0]
 800d534:	f422 6280 	bic.w	r2, r2, #1024	; 0x400
 800d538:	601a      	str	r2, [r3, #0]
 800d53a:	e7e8      	b.n	800d50e <HAL_I2C_EV_IRQHandler+0x4ee>
 800d53c:	8d60      	ldrh	r0, [r4, #42]	; 0x2a
 800d53e:	b280      	uxth	r0, r0
 800d540:	2802      	cmp	r0, #2
 800d542:	d1e4      	bne.n	800d50e <HAL_I2C_EV_IRQHandler+0x4ee>
 800d544:	2a01      	cmp	r2, #1
 800d546:	d001      	beq.n	800d54c <HAL_I2C_EV_IRQHandler+0x52c>
 800d548:	2a10      	cmp	r2, #16
 800d54a:	d128      	bne.n	800d59e <HAL_I2C_EV_IRQHandler+0x57e>
 800d54c:	681a      	ldr	r2, [r3, #0]
 800d54e:	f422 6280 	bic.w	r2, r2, #1024	; 0x400
 800d552:	601a      	str	r2, [r3, #0]
 800d554:	691b      	ldr	r3, [r3, #16]
 800d556:	700b      	strb	r3, [r1, #0]
 800d558:	6a62      	ldr	r2, [r4, #36]	; 0x24
 800d55a:	1c53      	adds	r3, r2, #1
 800d55c:	6263      	str	r3, [r4, #36]	; 0x24
 800d55e:	8d63      	ldrh	r3, [r4, #42]	; 0x2a
 800d560:	3b01      	subs	r3, #1
 800d562:	b29b      	uxth	r3, r3
 800d564:	8563      	strh	r3, [r4, #42]	; 0x2a
 800d566:	6823      	ldr	r3, [r4, #0]
 800d568:	691b      	ldr	r3, [r3, #16]
 800d56a:	7053      	strb	r3, [r2, #1]
 800d56c:	6a63      	ldr	r3, [r4, #36]	; 0x24
 800d56e:	6822      	ldr	r2, [r4, #0]
 800d570:	3301      	adds	r3, #1
 800d572:	6263      	str	r3, [r4, #36]	; 0x24
 800d574:	8d63      	ldrh	r3, [r4, #42]	; 0x2a
 800d576:	3b01      	subs	r3, #1
 800d578:	b29b      	uxth	r3, r3
 800d57a:	8563      	strh	r3, [r4, #42]	; 0x2a
 800d57c:	6853      	ldr	r3, [r2, #4]
 800d57e:	f423 7340 	bic.w	r3, r3, #768	; 0x300
 800d582:	6053      	str	r3, [r2, #4]
 800d584:	2320      	movs	r3, #32
 800d586:	f884 303d 	strb.w	r3, [r4, #61]	; 0x3d
 800d58a:	f894 303e 	ldrb.w	r3, [r4, #62]	; 0x3e
 800d58e:	2b40      	cmp	r3, #64	; 0x40
 800d590:	f04f 0300 	mov.w	r3, #0
 800d594:	f884 303e 	strb.w	r3, [r4, #62]	; 0x3e
 800d598:	d10d      	bne.n	800d5b6 <HAL_I2C_EV_IRQHandler+0x596>
 800d59a:	6323      	str	r3, [r4, #48]	; 0x30
 800d59c:	e7a3      	b.n	800d4e6 <HAL_I2C_EV_IRQHandler+0x4c6>
 800d59e:	2a04      	cmp	r2, #4
 800d5a0:	d001      	beq.n	800d5a6 <HAL_I2C_EV_IRQHandler+0x586>
 800d5a2:	2a02      	cmp	r2, #2
 800d5a4:	d103      	bne.n	800d5ae <HAL_I2C_EV_IRQHandler+0x58e>
 800d5a6:	681a      	ldr	r2, [r3, #0]
 800d5a8:	f442 6280 	orr.w	r2, r2, #1024	; 0x400
 800d5ac:	e7d1      	b.n	800d552 <HAL_I2C_EV_IRQHandler+0x532>
 800d5ae:	681a      	ldr	r2, [r3, #0]
 800d5b0:	f442 7200 	orr.w	r2, r2, #512	; 0x200
 800d5b4:	e7cd      	b.n	800d552 <HAL_I2C_EV_IRQHandler+0x532>
 800d5b6:	2312      	movs	r3, #18
 800d5b8:	6323      	str	r3, [r4, #48]	; 0x30
 800d5ba:	4620      	mov	r0, r4
 800d5bc:	f7fd fb4c 	bl	800ac58 <HAL_I2C_MasterRxCpltCallback>
 800d5c0:	e54a      	b.n	800d058 <HAL_I2C_EV_IRQHandler+0x38>
 800d5c2:	6c20      	ldr	r0, [r4, #64]	; 0x40
 800d5c4:	b310      	cbz	r0, 800d60c <HAL_I2C_EV_IRQHandler+0x5ec>
 800d5c6:	6958      	ldr	r0, [r3, #20]
 800d5c8:	2500      	movs	r5, #0
 800d5ca:	0787      	lsls	r7, r0, #30
 800d5cc:	d52e      	bpl.n	800d62c <HAL_I2C_EV_IRQHandler+0x60c>
 800d5ce:	0596      	lsls	r6, r2, #22
 800d5d0:	d52c      	bpl.n	800d62c <HAL_I2C_EV_IRQHandler+0x60c>
 800d5d2:	6c22      	ldr	r2, [r4, #64]	; 0x40
 800d5d4:	b102      	cbz	r2, 800d5d8 <HAL_I2C_EV_IRQHandler+0x5b8>
 800d5d6:	699d      	ldr	r5, [r3, #24]
 800d5d8:	f894 203d 	ldrb.w	r2, [r4, #61]	; 0x3d
 800d5dc:	f002 0228 	and.w	r2, r2, #40	; 0x28
 800d5e0:	2a28      	cmp	r2, #40	; 0x28
 800d5e2:	d116      	bne.n	800d612 <HAL_I2C_EV_IRQHandler+0x5f2>
 800d5e4:	685a      	ldr	r2, [r3, #4]
 800d5e6:	f422 6280 	bic.w	r2, r2, #1024	; 0x400
 800d5ea:	605a      	str	r2, [r3, #4]
 800d5ec:	062f      	lsls	r7, r5, #24
 800d5ee:	ea6f 0195 	mvn.w	r1, r5, lsr #2
 800d5f2:	f04f 0300 	mov.w	r3, #0
 800d5f6:	bf54      	ite	pl
 800d5f8:	89a2      	ldrhpl	r2, [r4, #12]
 800d5fa:	8b22      	ldrhmi	r2, [r4, #24]
 800d5fc:	f884 303c 	strb.w	r3, [r4, #60]	; 0x3c
 800d600:	f001 0101 	and.w	r1, r1, #1
 800d604:	4620      	mov	r0, r4
 800d606:	f7ff fb07 	bl	800cc18 <HAL_I2C_AddrCallback>
 800d60a:	e525      	b.n	800d058 <HAL_I2C_EV_IRQHandler+0x38>
 800d60c:	699d      	ldr	r5, [r3, #24]
 800d60e:	6958      	ldr	r0, [r3, #20]
 800d610:	e7db      	b.n	800d5ca <HAL_I2C_EV_IRQHandler+0x5aa>
 800d612:	2200      	movs	r2, #0
 800d614:	920c      	str	r2, [sp, #48]	; 0x30
 800d616:	6959      	ldr	r1, [r3, #20]
 800d618:	910c      	str	r1, [sp, #48]	; 0x30
 800d61a:	699b      	ldr	r3, [r3, #24]
 800d61c:	930c      	str	r3, [sp, #48]	; 0x30
 800d61e:	9b0c      	ldr	r3, [sp, #48]	; 0x30
 800d620:	f884 203c 	strb.w	r2, [r4, #60]	; 0x3c
 800d624:	e518      	b.n	800d058 <HAL_I2C_EV_IRQHandler+0x38>
 800d626:	bf00      	nop
 800d628:	20000060 	.word	0x20000060
 800d62c:	06c6      	lsls	r6, r0, #27
 800d62e:	f140 80b1 	bpl.w	800d794 <HAL_I2C_EV_IRQHandler+0x774>
 800d632:	0595      	lsls	r5, r2, #22
 800d634:	f140 80ae 	bpl.w	800d794 <HAL_I2C_EV_IRQHandler+0x774>
 800d638:	f894 503d 	ldrb.w	r5, [r4, #61]	; 0x3d
 800d63c:	685a      	ldr	r2, [r3, #4]
 800d63e:	f422 62e0 	bic.w	r2, r2, #1792	; 0x700
 800d642:	605a      	str	r2, [r3, #4]
 800d644:	2200      	movs	r2, #0
 800d646:	920d      	str	r2, [sp, #52]	; 0x34
 800d648:	695a      	ldr	r2, [r3, #20]
 800d64a:	920d      	str	r2, [sp, #52]	; 0x34
 800d64c:	681a      	ldr	r2, [r3, #0]
 800d64e:	f042 0201 	orr.w	r2, r2, #1
 800d652:	601a      	str	r2, [r3, #0]
 800d654:	9a0d      	ldr	r2, [sp, #52]	; 0x34
 800d656:	681a      	ldr	r2, [r3, #0]
 800d658:	f422 6280 	bic.w	r2, r2, #1024	; 0x400
 800d65c:	601a      	str	r2, [r3, #0]
 800d65e:	685a      	ldr	r2, [r3, #4]
 800d660:	0510      	lsls	r0, r2, #20
 800d662:	b2ed      	uxtb	r5, r5
 800d664:	d520      	bpl.n	800d6a8 <HAL_I2C_EV_IRQHandler+0x688>
 800d666:	f005 02f7 	and.w	r2, r5, #247	; 0xf7
 800d66a:	2a22      	cmp	r2, #34	; 0x22
 800d66c:	d14a      	bne.n	800d704 <HAL_I2C_EV_IRQHandler+0x6e4>
 800d66e:	6ba0      	ldr	r0, [r4, #56]	; 0x38
 800d670:	6802      	ldr	r2, [r0, #0]
 800d672:	6852      	ldr	r2, [r2, #4]
 800d674:	b292      	uxth	r2, r2
 800d676:	8562      	strh	r2, [r4, #42]	; 0x2a
 800d678:	8d62      	ldrh	r2, [r4, #42]	; 0x2a
 800d67a:	b292      	uxth	r2, r2
 800d67c:	b11a      	cbz	r2, 800d686 <HAL_I2C_EV_IRQHandler+0x666>
 800d67e:	6c22      	ldr	r2, [r4, #64]	; 0x40
 800d680:	f042 0204 	orr.w	r2, r2, #4
 800d684:	6422      	str	r2, [r4, #64]	; 0x40
 800d686:	685a      	ldr	r2, [r3, #4]
 800d688:	f422 6200 	bic.w	r2, r2, #2048	; 0x800
 800d68c:	605a      	str	r2, [r3, #4]
 800d68e:	f7fe fde3 	bl	800c258 <HAL_DMA_GetState>
 800d692:	2801      	cmp	r0, #1
 800d694:	d008      	beq.n	800d6a8 <HAL_I2C_EV_IRQHandler+0x688>
 800d696:	6ba0      	ldr	r0, [r4, #56]	; 0x38
 800d698:	4b79      	ldr	r3, [pc, #484]	; (800d880 <HAL_I2C_EV_IRQHandler+0x860>)
 800d69a:	6503      	str	r3, [r0, #80]	; 0x50
 800d69c:	f7fe fce8 	bl	800c070 <HAL_DMA_Abort_IT>
 800d6a0:	b110      	cbz	r0, 800d6a8 <HAL_I2C_EV_IRQHandler+0x688>
 800d6a2:	6ba0      	ldr	r0, [r4, #56]	; 0x38
 800d6a4:	6d03      	ldr	r3, [r0, #80]	; 0x50
 800d6a6:	4798      	blx	r3
 800d6a8:	8d63      	ldrh	r3, [r4, #42]	; 0x2a
 800d6aa:	b29b      	uxth	r3, r3
 800d6ac:	b313      	cbz	r3, 800d6f4 <HAL_I2C_EV_IRQHandler+0x6d4>
 800d6ae:	6823      	ldr	r3, [r4, #0]
 800d6b0:	695a      	ldr	r2, [r3, #20]
 800d6b2:	0751      	lsls	r1, r2, #29
 800d6b4:	d509      	bpl.n	800d6ca <HAL_I2C_EV_IRQHandler+0x6aa>
 800d6b6:	691a      	ldr	r2, [r3, #16]
 800d6b8:	6a63      	ldr	r3, [r4, #36]	; 0x24
 800d6ba:	701a      	strb	r2, [r3, #0]
 800d6bc:	6a63      	ldr	r3, [r4, #36]	; 0x24
 800d6be:	3301      	adds	r3, #1
 800d6c0:	6263      	str	r3, [r4, #36]	; 0x24
 800d6c2:	8d63      	ldrh	r3, [r4, #42]	; 0x2a
 800d6c4:	3b01      	subs	r3, #1
 800d6c6:	b29b      	uxth	r3, r3
 800d6c8:	8563      	strh	r3, [r4, #42]	; 0x2a
 800d6ca:	6823      	ldr	r3, [r4, #0]
 800d6cc:	695a      	ldr	r2, [r3, #20]
 800d6ce:	0652      	lsls	r2, r2, #25
 800d6d0:	d509      	bpl.n	800d6e6 <HAL_I2C_EV_IRQHandler+0x6c6>
 800d6d2:	691a      	ldr	r2, [r3, #16]
 800d6d4:	6a63      	ldr	r3, [r4, #36]	; 0x24
 800d6d6:	701a      	strb	r2, [r3, #0]
 800d6d8:	6a63      	ldr	r3, [r4, #36]	; 0x24
 800d6da:	3301      	adds	r3, #1
 800d6dc:	6263      	str	r3, [r4, #36]	; 0x24
 800d6de:	8d63      	ldrh	r3, [r4, #42]	; 0x2a
 800d6e0:	3b01      	subs	r3, #1
 800d6e2:	b29b      	uxth	r3, r3
 800d6e4:	8563      	strh	r3, [r4, #42]	; 0x2a
 800d6e6:	8d63      	ldrh	r3, [r4, #42]	; 0x2a
 800d6e8:	b29b      	uxth	r3, r3
 800d6ea:	b11b      	cbz	r3, 800d6f4 <HAL_I2C_EV_IRQHandler+0x6d4>
 800d6ec:	6c23      	ldr	r3, [r4, #64]	; 0x40
 800d6ee:	f043 0304 	orr.w	r3, r3, #4
 800d6f2:	6423      	str	r3, [r4, #64]	; 0x40
 800d6f4:	6c23      	ldr	r3, [r4, #64]	; 0x40
 800d6f6:	b313      	cbz	r3, 800d73e <HAL_I2C_EV_IRQHandler+0x71e>
 800d6f8:	4620      	mov	r0, r4
 800d6fa:	b00f      	add	sp, #60	; 0x3c
 800d6fc:	e8bd 40f0 	ldmia.w	sp!, {r4, r5, r6, r7, lr}
 800d700:	f7ff bbe6 	b.w	800ced0 <I2C_ITError>
 800d704:	6b60      	ldr	r0, [r4, #52]	; 0x34
 800d706:	6802      	ldr	r2, [r0, #0]
 800d708:	6852      	ldr	r2, [r2, #4]
 800d70a:	b292      	uxth	r2, r2
 800d70c:	8562      	strh	r2, [r4, #42]	; 0x2a
 800d70e:	8d62      	ldrh	r2, [r4, #42]	; 0x2a
 800d710:	b292      	uxth	r2, r2
 800d712:	b11a      	cbz	r2, 800d71c <HAL_I2C_EV_IRQHandler+0x6fc>
 800d714:	6c22      	ldr	r2, [r4, #64]	; 0x40
 800d716:	f042 0204 	orr.w	r2, r2, #4
 800d71a:	6422      	str	r2, [r4, #64]	; 0x40
 800d71c:	685a      	ldr	r2, [r3, #4]
 800d71e:	f422 6200 	bic.w	r2, r2, #2048	; 0x800
 800d722:	605a      	str	r2, [r3, #4]
 800d724:	f7fe fd98 	bl	800c258 <HAL_DMA_GetState>
 800d728:	2801      	cmp	r0, #1
 800d72a:	d0bd      	beq.n	800d6a8 <HAL_I2C_EV_IRQHandler+0x688>
 800d72c:	6b60      	ldr	r0, [r4, #52]	; 0x34
 800d72e:	4b54      	ldr	r3, [pc, #336]	; (800d880 <HAL_I2C_EV_IRQHandler+0x860>)
 800d730:	6503      	str	r3, [r0, #80]	; 0x50
 800d732:	f7fe fc9d 	bl	800c070 <HAL_DMA_Abort_IT>
 800d736:	2800      	cmp	r0, #0
 800d738:	d0b6      	beq.n	800d6a8 <HAL_I2C_EV_IRQHandler+0x688>
 800d73a:	6b60      	ldr	r0, [r4, #52]	; 0x34
 800d73c:	e7b2      	b.n	800d6a4 <HAL_I2C_EV_IRQHandler+0x684>
 800d73e:	2d2a      	cmp	r5, #42	; 0x2a
 800d740:	d106      	bne.n	800d750 <HAL_I2C_EV_IRQHandler+0x730>
 800d742:	6323      	str	r3, [r4, #48]	; 0x30
 800d744:	2328      	movs	r3, #40	; 0x28
 800d746:	f884 303d 	strb.w	r3, [r4, #61]	; 0x3d
 800d74a:	4620      	mov	r0, r4
 800d74c:	f7ff fa63 	bl	800cc16 <HAL_I2C_SlaveRxCpltCallback>
 800d750:	f894 303d 	ldrb.w	r3, [r4, #61]	; 0x3d
 800d754:	2b28      	cmp	r3, #40	; 0x28
 800d756:	d10c      	bne.n	800d772 <HAL_I2C_EV_IRQHandler+0x752>
 800d758:	4b4a      	ldr	r3, [pc, #296]	; (800d884 <HAL_I2C_EV_IRQHandler+0x864>)
 800d75a:	62e3      	str	r3, [r4, #44]	; 0x2c
 800d75c:	2220      	movs	r2, #32
 800d75e:	2300      	movs	r3, #0
 800d760:	6323      	str	r3, [r4, #48]	; 0x30
 800d762:	4620      	mov	r0, r4
 800d764:	f884 203d 	strb.w	r2, [r4, #61]	; 0x3d
 800d768:	f884 303e 	strb.w	r3, [r4, #62]	; 0x3e
 800d76c:	f7ff fa55 	bl	800cc1a <HAL_I2C_ListenCpltCallback>
 800d770:	e472      	b.n	800d058 <HAL_I2C_EV_IRQHandler+0x38>
 800d772:	6b23      	ldr	r3, [r4, #48]	; 0x30
 800d774:	2b22      	cmp	r3, #34	; 0x22
 800d776:	d002      	beq.n	800d77e <HAL_I2C_EV_IRQHandler+0x75e>
 800d778:	2d22      	cmp	r5, #34	; 0x22
 800d77a:	f47f ac6d 	bne.w	800d058 <HAL_I2C_EV_IRQHandler+0x38>
 800d77e:	2300      	movs	r3, #0
 800d780:	2220      	movs	r2, #32
 800d782:	6323      	str	r3, [r4, #48]	; 0x30
 800d784:	f884 203d 	strb.w	r2, [r4, #61]	; 0x3d
 800d788:	f884 303e 	strb.w	r3, [r4, #62]	; 0x3e
 800d78c:	4620      	mov	r0, r4
 800d78e:	f7ff fa42 	bl	800cc16 <HAL_I2C_SlaveRxCpltCallback>
 800d792:	e461      	b.n	800d058 <HAL_I2C_EV_IRQHandler+0x38>
 800d794:	f001 01f7 	and.w	r1, r1, #247	; 0xf7
 800d798:	2921      	cmp	r1, #33	; 0x21
 800d79a:	f3c0 0580 	ubfx	r5, r0, #2, #1
 800d79e:	d135      	bne.n	800d80c <HAL_I2C_EV_IRQHandler+0x7ec>
 800d7a0:	0607      	lsls	r7, r0, #24
 800d7a2:	d527      	bpl.n	800d7f4 <HAL_I2C_EV_IRQHandler+0x7d4>
 800d7a4:	0556      	lsls	r6, r2, #21
 800d7a6:	d525      	bpl.n	800d7f4 <HAL_I2C_EV_IRQHandler+0x7d4>
 800d7a8:	bb3d      	cbnz	r5, 800d7fa <HAL_I2C_EV_IRQHandler+0x7da>
 800d7aa:	f894 003d 	ldrb.w	r0, [r4, #61]	; 0x3d
 800d7ae:	8d62      	ldrh	r2, [r4, #42]	; 0x2a
 800d7b0:	b292      	uxth	r2, r2
 800d7b2:	b2c0      	uxtb	r0, r0
 800d7b4:	2a00      	cmp	r2, #0
 800d7b6:	f43f ac4f 	beq.w	800d058 <HAL_I2C_EV_IRQHandler+0x38>
 800d7ba:	6a62      	ldr	r2, [r4, #36]	; 0x24
 800d7bc:	f812 5b01 	ldrb.w	r5, [r2], #1
 800d7c0:	611d      	str	r5, [r3, #16]
 800d7c2:	6262      	str	r2, [r4, #36]	; 0x24
 800d7c4:	8d62      	ldrh	r2, [r4, #42]	; 0x2a
 800d7c6:	3a01      	subs	r2, #1
 800d7c8:	b292      	uxth	r2, r2
 800d7ca:	8562      	strh	r2, [r4, #42]	; 0x2a
 800d7cc:	8d62      	ldrh	r2, [r4, #42]	; 0x2a
 800d7ce:	b292      	uxth	r2, r2
 800d7d0:	2a00      	cmp	r2, #0
 800d7d2:	f47f ac41 	bne.w	800d058 <HAL_I2C_EV_IRQHandler+0x38>
 800d7d6:	2829      	cmp	r0, #41	; 0x29
 800d7d8:	f47f ac3e 	bne.w	800d058 <HAL_I2C_EV_IRQHandler+0x38>
 800d7dc:	685a      	ldr	r2, [r3, #4]
 800d7de:	f422 6280 	bic.w	r2, r2, #1024	; 0x400
 800d7e2:	605a      	str	r2, [r3, #4]
 800d7e4:	2328      	movs	r3, #40	; 0x28
 800d7e6:	6321      	str	r1, [r4, #48]	; 0x30
 800d7e8:	4620      	mov	r0, r4
 800d7ea:	f884 303d 	strb.w	r3, [r4, #61]	; 0x3d
 800d7ee:	f7ff fa11 	bl	800cc14 <HAL_I2C_SlaveTxCpltCallback>
 800d7f2:	e431      	b.n	800d058 <HAL_I2C_EV_IRQHandler+0x38>
 800d7f4:	2d00      	cmp	r5, #0
 800d7f6:	f43f ac2f 	beq.w	800d058 <HAL_I2C_EV_IRQHandler+0x38>
 800d7fa:	0595      	lsls	r5, r2, #22
 800d7fc:	f57f ac2c 	bpl.w	800d058 <HAL_I2C_EV_IRQHandler+0x38>
 800d800:	8d62      	ldrh	r2, [r4, #42]	; 0x2a
 800d802:	b292      	uxth	r2, r2
 800d804:	2a00      	cmp	r2, #0
 800d806:	f43f ac27 	beq.w	800d058 <HAL_I2C_EV_IRQHandler+0x38>
 800d80a:	e5b8      	b.n	800d37e <HAL_I2C_EV_IRQHandler+0x35e>
 800d80c:	0640      	lsls	r0, r0, #25
 800d80e:	d527      	bpl.n	800d860 <HAL_I2C_EV_IRQHandler+0x840>
 800d810:	0551      	lsls	r1, r2, #21
 800d812:	d525      	bpl.n	800d860 <HAL_I2C_EV_IRQHandler+0x840>
 800d814:	bb3d      	cbnz	r5, 800d866 <HAL_I2C_EV_IRQHandler+0x846>
 800d816:	f894 203d 	ldrb.w	r2, [r4, #61]	; 0x3d
 800d81a:	8d61      	ldrh	r1, [r4, #42]	; 0x2a
 800d81c:	b289      	uxth	r1, r1
 800d81e:	b2d2      	uxtb	r2, r2
 800d820:	2900      	cmp	r1, #0
 800d822:	f43f ac19 	beq.w	800d058 <HAL_I2C_EV_IRQHandler+0x38>
 800d826:	6919      	ldr	r1, [r3, #16]
 800d828:	6a63      	ldr	r3, [r4, #36]	; 0x24
 800d82a:	7019      	strb	r1, [r3, #0]
 800d82c:	6a63      	ldr	r3, [r4, #36]	; 0x24
 800d82e:	3301      	adds	r3, #1
 800d830:	6263      	str	r3, [r4, #36]	; 0x24
 800d832:	8d63      	ldrh	r3, [r4, #42]	; 0x2a
 800d834:	3b01      	subs	r3, #1
 800d836:	b29b      	uxth	r3, r3
 800d838:	8563      	strh	r3, [r4, #42]	; 0x2a
 800d83a:	8d63      	ldrh	r3, [r4, #42]	; 0x2a
 800d83c:	b29b      	uxth	r3, r3
 800d83e:	2b00      	cmp	r3, #0
 800d840:	f47f ac0a 	bne.w	800d058 <HAL_I2C_EV_IRQHandler+0x38>
 800d844:	2a2a      	cmp	r2, #42	; 0x2a
 800d846:	f47f ac07 	bne.w	800d058 <HAL_I2C_EV_IRQHandler+0x38>
 800d84a:	6822      	ldr	r2, [r4, #0]
 800d84c:	6853      	ldr	r3, [r2, #4]
 800d84e:	f423 6380 	bic.w	r3, r3, #1024	; 0x400
 800d852:	6053      	str	r3, [r2, #4]
 800d854:	2322      	movs	r3, #34	; 0x22
 800d856:	6323      	str	r3, [r4, #48]	; 0x30
 800d858:	2328      	movs	r3, #40	; 0x28
 800d85a:	f884 303d 	strb.w	r3, [r4, #61]	; 0x3d
 800d85e:	e795      	b.n	800d78c <HAL_I2C_EV_IRQHandler+0x76c>
 800d860:	2d00      	cmp	r5, #0
 800d862:	f43f abf9 	beq.w	800d058 <HAL_I2C_EV_IRQHandler+0x38>
 800d866:	0592      	lsls	r2, r2, #22
 800d868:	f57f abf6 	bpl.w	800d058 <HAL_I2C_EV_IRQHandler+0x38>
 800d86c:	8d62      	ldrh	r2, [r4, #42]	; 0x2a
 800d86e:	b292      	uxth	r2, r2
 800d870:	2a00      	cmp	r2, #0
 800d872:	f43f abf1 	beq.w	800d058 <HAL_I2C_EV_IRQHandler+0x38>
 800d876:	691a      	ldr	r2, [r3, #16]
 800d878:	6a63      	ldr	r3, [r4, #36]	; 0x24
 800d87a:	701a      	strb	r2, [r3, #0]
 800d87c:	e649      	b.n	800d512 <HAL_I2C_EV_IRQHandler+0x4f2>
 800d87e:	bf00      	nop
 800d880:	0800ce11 	.word	0x0800ce11
 800d884:	ffff0000 	.word	0xffff0000

0800d888 <HAL_I2C_ER_IRQHandler>:
 800d888:	b5f8      	push	{r3, r4, r5, r6, r7, lr}
 800d88a:	6803      	ldr	r3, [r0, #0]
 800d88c:	695f      	ldr	r7, [r3, #20]
 800d88e:	685e      	ldr	r6, [r3, #4]
 800d890:	f890 203e 	ldrb.w	r2, [r0, #62]	; 0x3e
 800d894:	4604      	mov	r4, r0
 800d896:	05f8      	lsls	r0, r7, #23
 800d898:	b2d2      	uxtb	r2, r2
 800d89a:	f3c7 2500 	ubfx	r5, r7, #8, #1
 800d89e:	d508      	bpl.n	800d8b2 <HAL_I2C_ER_IRQHandler+0x2a>
 800d8a0:	05f1      	lsls	r1, r6, #23
 800d8a2:	bf48      	it	mi
 800d8a4:	f46f 7180 	mvnmi.w	r1, #256	; 0x100
 800d8a8:	f3c6 2500 	ubfx	r5, r6, #8, #1
 800d8ac:	bf44      	itt	mi
 800d8ae:	6159      	strmi	r1, [r3, #20]
 800d8b0:	2501      	movmi	r5, #1
 800d8b2:	05b8      	lsls	r0, r7, #22
 800d8b4:	d506      	bpl.n	800d8c4 <HAL_I2C_ER_IRQHandler+0x3c>
 800d8b6:	05f1      	lsls	r1, r6, #23
 800d8b8:	bf42      	ittt	mi
 800d8ba:	f46f 7100 	mvnmi.w	r1, #512	; 0x200
 800d8be:	f045 0502 	orrmi.w	r5, r5, #2
 800d8c2:	6159      	strmi	r1, [r3, #20]
 800d8c4:	0578      	lsls	r0, r7, #21
 800d8c6:	d536      	bpl.n	800d936 <HAL_I2C_ER_IRQHandler+0xae>
 800d8c8:	05f1      	lsls	r1, r6, #23
 800d8ca:	d534      	bpl.n	800d936 <HAL_I2C_ER_IRQHandler+0xae>
 800d8cc:	8d60      	ldrh	r0, [r4, #42]	; 0x2a
 800d8ce:	f894 103d 	ldrb.w	r1, [r4, #61]	; 0x3d
 800d8d2:	f8d4 c030 	ldr.w	ip, [r4, #48]	; 0x30
 800d8d6:	2a20      	cmp	r2, #32
 800d8d8:	b280      	uxth	r0, r0
 800d8da:	b2c9      	uxtb	r1, r1
 800d8dc:	d15b      	bne.n	800d996 <HAL_I2C_ER_IRQHandler+0x10e>
 800d8de:	2800      	cmp	r0, #0
 800d8e0:	d159      	bne.n	800d996 <HAL_I2C_ER_IRQHandler+0x10e>
 800d8e2:	f001 00f7 	and.w	r0, r1, #247	; 0xf7
 800d8e6:	2821      	cmp	r0, #33	; 0x21
 800d8e8:	d004      	beq.n	800d8f4 <HAL_I2C_ER_IRQHandler+0x6c>
 800d8ea:	2928      	cmp	r1, #40	; 0x28
 800d8ec:	d153      	bne.n	800d996 <HAL_I2C_ER_IRQHandler+0x10e>
 800d8ee:	f1bc 0f21 	cmp.w	ip, #33	; 0x21
 800d8f2:	d150      	bne.n	800d996 <HAL_I2C_ER_IRQHandler+0x10e>
 800d8f4:	f894 203d 	ldrb.w	r2, [r4, #61]	; 0x3d
 800d8f8:	6ae1      	ldr	r1, [r4, #44]	; 0x2c
 800d8fa:	2908      	cmp	r1, #8
 800d8fc:	b2d2      	uxtb	r2, r2
 800d8fe:	d001      	beq.n	800d904 <HAL_I2C_ER_IRQHandler+0x7c>
 800d900:	2920      	cmp	r1, #32
 800d902:	d12a      	bne.n	800d95a <HAL_I2C_ER_IRQHandler+0xd2>
 800d904:	2a28      	cmp	r2, #40	; 0x28
 800d906:	d128      	bne.n	800d95a <HAL_I2C_ER_IRQHandler+0xd2>
 800d908:	4a2b      	ldr	r2, [pc, #172]	; (800d9b8 <HAL_I2C_ER_IRQHandler+0x130>)
 800d90a:	62e2      	str	r2, [r4, #44]	; 0x2c
 800d90c:	685a      	ldr	r2, [r3, #4]
 800d90e:	f422 62e0 	bic.w	r2, r2, #1792	; 0x700
 800d912:	605a      	str	r2, [r3, #4]
 800d914:	f46f 6280 	mvn.w	r2, #1024	; 0x400
 800d918:	615a      	str	r2, [r3, #20]
 800d91a:	681a      	ldr	r2, [r3, #0]
 800d91c:	f422 6280 	bic.w	r2, r2, #1024	; 0x400
 800d920:	601a      	str	r2, [r3, #0]
 800d922:	2300      	movs	r3, #0
 800d924:	2220      	movs	r2, #32
 800d926:	6323      	str	r3, [r4, #48]	; 0x30
 800d928:	4620      	mov	r0, r4
 800d92a:	f884 203d 	strb.w	r2, [r4, #61]	; 0x3d
 800d92e:	f884 303e 	strb.w	r3, [r4, #62]	; 0x3e
 800d932:	f7ff f972 	bl	800cc1a <HAL_I2C_ListenCpltCallback>
 800d936:	053a      	lsls	r2, r7, #20
 800d938:	d53b      	bpl.n	800d9b2 <HAL_I2C_ER_IRQHandler+0x12a>
 800d93a:	05f3      	lsls	r3, r6, #23
 800d93c:	d539      	bpl.n	800d9b2 <HAL_I2C_ER_IRQHandler+0x12a>
 800d93e:	6823      	ldr	r3, [r4, #0]
 800d940:	f46f 6200 	mvn.w	r2, #2048	; 0x800
 800d944:	f045 0508 	orr.w	r5, r5, #8
 800d948:	615a      	str	r2, [r3, #20]
 800d94a:	6c23      	ldr	r3, [r4, #64]	; 0x40
 800d94c:	431d      	orrs	r5, r3
 800d94e:	6425      	str	r5, [r4, #64]	; 0x40
 800d950:	4620      	mov	r0, r4
 800d952:	e8bd 40f8 	ldmia.w	sp!, {r3, r4, r5, r6, r7, lr}
 800d956:	f7ff babb 	b.w	800ced0 <I2C_ITError>
 800d95a:	2a21      	cmp	r2, #33	; 0x21
 800d95c:	d117      	bne.n	800d98e <HAL_I2C_ER_IRQHandler+0x106>
 800d95e:	4916      	ldr	r1, [pc, #88]	; (800d9b8 <HAL_I2C_ER_IRQHandler+0x130>)
 800d960:	62e1      	str	r1, [r4, #44]	; 0x2c
 800d962:	6322      	str	r2, [r4, #48]	; 0x30
 800d964:	2220      	movs	r2, #32
 800d966:	f884 203d 	strb.w	r2, [r4, #61]	; 0x3d
 800d96a:	2200      	movs	r2, #0
 800d96c:	f884 203e 	strb.w	r2, [r4, #62]	; 0x3e
 800d970:	685a      	ldr	r2, [r3, #4]
 800d972:	f422 62e0 	bic.w	r2, r2, #1792	; 0x700
 800d976:	605a      	str	r2, [r3, #4]
 800d978:	f46f 6280 	mvn.w	r2, #1024	; 0x400
 800d97c:	615a      	str	r2, [r3, #20]
 800d97e:	681a      	ldr	r2, [r3, #0]
 800d980:	f422 6280 	bic.w	r2, r2, #1024	; 0x400
 800d984:	601a      	str	r2, [r3, #0]
 800d986:	4620      	mov	r0, r4
 800d988:	f7ff f944 	bl	800cc14 <HAL_I2C_SlaveTxCpltCallback>
 800d98c:	e7d3      	b.n	800d936 <HAL_I2C_ER_IRQHandler+0xae>
 800d98e:	f46f 6280 	mvn.w	r2, #1024	; 0x400
 800d992:	615a      	str	r2, [r3, #20]
 800d994:	e7cf      	b.n	800d936 <HAL_I2C_ER_IRQHandler+0xae>
 800d996:	f46f 6180 	mvn.w	r1, #1024	; 0x400
 800d99a:	2a10      	cmp	r2, #16
 800d99c:	6159      	str	r1, [r3, #20]
 800d99e:	f045 0504 	orr.w	r5, r5, #4
 800d9a2:	d001      	beq.n	800d9a8 <HAL_I2C_ER_IRQHandler+0x120>
 800d9a4:	2a40      	cmp	r2, #64	; 0x40
 800d9a6:	d1c6      	bne.n	800d936 <HAL_I2C_ER_IRQHandler+0xae>
 800d9a8:	681a      	ldr	r2, [r3, #0]
 800d9aa:	f442 7200 	orr.w	r2, r2, #512	; 0x200
 800d9ae:	601a      	str	r2, [r3, #0]
 800d9b0:	e7c1      	b.n	800d936 <HAL_I2C_ER_IRQHandler+0xae>
 800d9b2:	2d00      	cmp	r5, #0
 800d9b4:	d1c9      	bne.n	800d94a <HAL_I2C_ER_IRQHandler+0xc2>
 800d9b6:	bdf8      	pop	{r3, r4, r5, r6, r7, pc}
 800d9b8:	ffff0000 	.word	0xffff0000

0800d9bc <HAL_RCC_OscConfig>:
 800d9bc:	e92d 41f3 	stmdb	sp!, {r0, r1, r4, r5, r6, r7, r8, lr}
 800d9c0:	4604      	mov	r4, r0
 800d9c2:	b340      	cbz	r0, 800da16 <HAL_RCC_OscConfig+0x5a>
 800d9c4:	6803      	ldr	r3, [r0, #0]
 800d9c6:	07dd      	lsls	r5, r3, #31
 800d9c8:	d410      	bmi.n	800d9ec <HAL_RCC_OscConfig+0x30>
 800d9ca:	6823      	ldr	r3, [r4, #0]
 800d9cc:	0798      	lsls	r0, r3, #30
 800d9ce:	d45e      	bmi.n	800da8e <HAL_RCC_OscConfig+0xd2>
 800d9d0:	6823      	ldr	r3, [r4, #0]
 800d9d2:	071a      	lsls	r2, r3, #28
 800d9d4:	f100 80a0 	bmi.w	800db18 <HAL_RCC_OscConfig+0x15c>
 800d9d8:	6823      	ldr	r3, [r4, #0]
 800d9da:	075b      	lsls	r3, r3, #29
 800d9dc:	f100 80be 	bmi.w	800db5c <HAL_RCC_OscConfig+0x1a0>
 800d9e0:	69a0      	ldr	r0, [r4, #24]
 800d9e2:	2800      	cmp	r0, #0
 800d9e4:	f040 811f 	bne.w	800dc26 <HAL_RCC_OscConfig+0x26a>
 800d9e8:	2000      	movs	r0, #0
 800d9ea:	e02b      	b.n	800da44 <HAL_RCC_OscConfig+0x88>
 800d9ec:	4ba6      	ldr	r3, [pc, #664]	; (800dc88 <HAL_RCC_OscConfig+0x2cc>)
 800d9ee:	689a      	ldr	r2, [r3, #8]
 800d9f0:	f002 020c 	and.w	r2, r2, #12
 800d9f4:	2a04      	cmp	r2, #4
 800d9f6:	d007      	beq.n	800da08 <HAL_RCC_OscConfig+0x4c>
 800d9f8:	689a      	ldr	r2, [r3, #8]
 800d9fa:	f002 020c 	and.w	r2, r2, #12
 800d9fe:	2a08      	cmp	r2, #8
 800da00:	d10b      	bne.n	800da1a <HAL_RCC_OscConfig+0x5e>
 800da02:	685a      	ldr	r2, [r3, #4]
 800da04:	0251      	lsls	r1, r2, #9
 800da06:	d508      	bpl.n	800da1a <HAL_RCC_OscConfig+0x5e>
 800da08:	4b9f      	ldr	r3, [pc, #636]	; (800dc88 <HAL_RCC_OscConfig+0x2cc>)
 800da0a:	681b      	ldr	r3, [r3, #0]
 800da0c:	039a      	lsls	r2, r3, #14
 800da0e:	d5dc      	bpl.n	800d9ca <HAL_RCC_OscConfig+0xe>
 800da10:	6863      	ldr	r3, [r4, #4]
 800da12:	2b00      	cmp	r3, #0
 800da14:	d1d9      	bne.n	800d9ca <HAL_RCC_OscConfig+0xe>
 800da16:	2001      	movs	r0, #1
 800da18:	e014      	b.n	800da44 <HAL_RCC_OscConfig+0x88>
 800da1a:	6862      	ldr	r2, [r4, #4]
 800da1c:	f5b2 3f80 	cmp.w	r2, #65536	; 0x10000
 800da20:	d113      	bne.n	800da4a <HAL_RCC_OscConfig+0x8e>
 800da22:	681a      	ldr	r2, [r3, #0]
 800da24:	f442 3280 	orr.w	r2, r2, #65536	; 0x10000
 800da28:	601a      	str	r2, [r3, #0]
 800da2a:	f7fd ff25 	bl	800b878 <HAL_GetTick>
 800da2e:	4e96      	ldr	r6, [pc, #600]	; (800dc88 <HAL_RCC_OscConfig+0x2cc>)
 800da30:	4605      	mov	r5, r0
 800da32:	6833      	ldr	r3, [r6, #0]
 800da34:	039b      	lsls	r3, r3, #14
 800da36:	d4c8      	bmi.n	800d9ca <HAL_RCC_OscConfig+0xe>
 800da38:	f7fd ff1e 	bl	800b878 <HAL_GetTick>
 800da3c:	1b40      	subs	r0, r0, r5
 800da3e:	2864      	cmp	r0, #100	; 0x64
 800da40:	d9f7      	bls.n	800da32 <HAL_RCC_OscConfig+0x76>
 800da42:	2003      	movs	r0, #3
 800da44:	b002      	add	sp, #8
 800da46:	e8bd 81f0 	ldmia.w	sp!, {r4, r5, r6, r7, r8, pc}
 800da4a:	4d8f      	ldr	r5, [pc, #572]	; (800dc88 <HAL_RCC_OscConfig+0x2cc>)
 800da4c:	f5b2 2fa0 	cmp.w	r2, #327680	; 0x50000
 800da50:	682b      	ldr	r3, [r5, #0]
 800da52:	d107      	bne.n	800da64 <HAL_RCC_OscConfig+0xa8>
 800da54:	f443 2380 	orr.w	r3, r3, #262144	; 0x40000
 800da58:	602b      	str	r3, [r5, #0]
 800da5a:	682b      	ldr	r3, [r5, #0]
 800da5c:	f443 3380 	orr.w	r3, r3, #65536	; 0x10000
 800da60:	602b      	str	r3, [r5, #0]
 800da62:	e7e2      	b.n	800da2a <HAL_RCC_OscConfig+0x6e>
 800da64:	f423 3380 	bic.w	r3, r3, #65536	; 0x10000
 800da68:	602b      	str	r3, [r5, #0]
 800da6a:	682b      	ldr	r3, [r5, #0]
 800da6c:	f423 2380 	bic.w	r3, r3, #262144	; 0x40000
 800da70:	602b      	str	r3, [r5, #0]
 800da72:	2a00      	cmp	r2, #0
 800da74:	d1d9      	bne.n	800da2a <HAL_RCC_OscConfig+0x6e>
 800da76:	f7fd feff 	bl	800b878 <HAL_GetTick>
 800da7a:	4606      	mov	r6, r0
 800da7c:	682b      	ldr	r3, [r5, #0]
 800da7e:	039f      	lsls	r7, r3, #14
 800da80:	d5a3      	bpl.n	800d9ca <HAL_RCC_OscConfig+0xe>
 800da82:	f7fd fef9 	bl	800b878 <HAL_GetTick>
 800da86:	1b80      	subs	r0, r0, r6
 800da88:	2864      	cmp	r0, #100	; 0x64
 800da8a:	d9f7      	bls.n	800da7c <HAL_RCC_OscConfig+0xc0>
 800da8c:	e7d9      	b.n	800da42 <HAL_RCC_OscConfig+0x86>
 800da8e:	4b7e      	ldr	r3, [pc, #504]	; (800dc88 <HAL_RCC_OscConfig+0x2cc>)
 800da90:	689a      	ldr	r2, [r3, #8]
 800da92:	f012 0f0c 	tst.w	r2, #12
 800da96:	d007      	beq.n	800daa8 <HAL_RCC_OscConfig+0xec>
 800da98:	689a      	ldr	r2, [r3, #8]
 800da9a:	f002 020c 	and.w	r2, r2, #12
 800da9e:	2a08      	cmp	r2, #8
 800daa0:	d111      	bne.n	800dac6 <HAL_RCC_OscConfig+0x10a>
 800daa2:	685b      	ldr	r3, [r3, #4]
 800daa4:	025e      	lsls	r6, r3, #9
 800daa6:	d40e      	bmi.n	800dac6 <HAL_RCC_OscConfig+0x10a>
 800daa8:	4b77      	ldr	r3, [pc, #476]	; (800dc88 <HAL_RCC_OscConfig+0x2cc>)
 800daaa:	681a      	ldr	r2, [r3, #0]
 800daac:	0795      	lsls	r5, r2, #30
 800daae:	d502      	bpl.n	800dab6 <HAL_RCC_OscConfig+0xfa>
 800dab0:	68e2      	ldr	r2, [r4, #12]
 800dab2:	2a01      	cmp	r2, #1
 800dab4:	d1af      	bne.n	800da16 <HAL_RCC_OscConfig+0x5a>
 800dab6:	681a      	ldr	r2, [r3, #0]
 800dab8:	6921      	ldr	r1, [r4, #16]
 800daba:	f022 02f8 	bic.w	r2, r2, #248	; 0xf8
 800dabe:	ea42 02c1 	orr.w	r2, r2, r1, lsl #3
 800dac2:	601a      	str	r2, [r3, #0]
 800dac4:	e784      	b.n	800d9d0 <HAL_RCC_OscConfig+0x14>
 800dac6:	68e2      	ldr	r2, [r4, #12]
 800dac8:	4b70      	ldr	r3, [pc, #448]	; (800dc8c <HAL_RCC_OscConfig+0x2d0>)
 800daca:	b1b2      	cbz	r2, 800dafa <HAL_RCC_OscConfig+0x13e>
 800dacc:	2201      	movs	r2, #1
 800dace:	601a      	str	r2, [r3, #0]
 800dad0:	f7fd fed2 	bl	800b878 <HAL_GetTick>
 800dad4:	4d6c      	ldr	r5, [pc, #432]	; (800dc88 <HAL_RCC_OscConfig+0x2cc>)
 800dad6:	4606      	mov	r6, r0
 800dad8:	682b      	ldr	r3, [r5, #0]
 800dada:	0798      	lsls	r0, r3, #30
 800dadc:	d507      	bpl.n	800daee <HAL_RCC_OscConfig+0x132>
 800dade:	682b      	ldr	r3, [r5, #0]
 800dae0:	6922      	ldr	r2, [r4, #16]
 800dae2:	f023 03f8 	bic.w	r3, r3, #248	; 0xf8
 800dae6:	ea43 03c2 	orr.w	r3, r3, r2, lsl #3
 800daea:	602b      	str	r3, [r5, #0]
 800daec:	e770      	b.n	800d9d0 <HAL_RCC_OscConfig+0x14>
 800daee:	f7fd fec3 	bl	800b878 <HAL_GetTick>
 800daf2:	1b80      	subs	r0, r0, r6
 800daf4:	2802      	cmp	r0, #2
 800daf6:	d9ef      	bls.n	800dad8 <HAL_RCC_OscConfig+0x11c>
 800daf8:	e7a3      	b.n	800da42 <HAL_RCC_OscConfig+0x86>
 800dafa:	601a      	str	r2, [r3, #0]
 800dafc:	f7fd febc 	bl	800b878 <HAL_GetTick>
 800db00:	4e61      	ldr	r6, [pc, #388]	; (800dc88 <HAL_RCC_OscConfig+0x2cc>)
 800db02:	4605      	mov	r5, r0
 800db04:	6833      	ldr	r3, [r6, #0]
 800db06:	0799      	lsls	r1, r3, #30
 800db08:	f57f af62 	bpl.w	800d9d0 <HAL_RCC_OscConfig+0x14>
 800db0c:	f7fd feb4 	bl	800b878 <HAL_GetTick>
 800db10:	1b40      	subs	r0, r0, r5
 800db12:	2802      	cmp	r0, #2
 800db14:	d9f6      	bls.n	800db04 <HAL_RCC_OscConfig+0x148>
 800db16:	e794      	b.n	800da42 <HAL_RCC_OscConfig+0x86>
 800db18:	6962      	ldr	r2, [r4, #20]
 800db1a:	4b5d      	ldr	r3, [pc, #372]	; (800dc90 <HAL_RCC_OscConfig+0x2d4>)
 800db1c:	b17a      	cbz	r2, 800db3e <HAL_RCC_OscConfig+0x182>
 800db1e:	2201      	movs	r2, #1
 800db20:	601a      	str	r2, [r3, #0]
 800db22:	f7fd fea9 	bl	800b878 <HAL_GetTick>
 800db26:	4e58      	ldr	r6, [pc, #352]	; (800dc88 <HAL_RCC_OscConfig+0x2cc>)
 800db28:	4605      	mov	r5, r0
 800db2a:	6f73      	ldr	r3, [r6, #116]	; 0x74
 800db2c:	079f      	lsls	r7, r3, #30
 800db2e:	f53f af53 	bmi.w	800d9d8 <HAL_RCC_OscConfig+0x1c>
 800db32:	f7fd fea1 	bl	800b878 <HAL_GetTick>
 800db36:	1b40      	subs	r0, r0, r5
 800db38:	2802      	cmp	r0, #2
 800db3a:	d9f6      	bls.n	800db2a <HAL_RCC_OscConfig+0x16e>
 800db3c:	e781      	b.n	800da42 <HAL_RCC_OscConfig+0x86>
 800db3e:	601a      	str	r2, [r3, #0]
 800db40:	f7fd fe9a 	bl	800b878 <HAL_GetTick>
 800db44:	4e50      	ldr	r6, [pc, #320]	; (800dc88 <HAL_RCC_OscConfig+0x2cc>)
 800db46:	4605      	mov	r5, r0
 800db48:	6f73      	ldr	r3, [r6, #116]	; 0x74
 800db4a:	0798      	lsls	r0, r3, #30
 800db4c:	f57f af44 	bpl.w	800d9d8 <HAL_RCC_OscConfig+0x1c>
 800db50:	f7fd fe92 	bl	800b878 <HAL_GetTick>
 800db54:	1b40      	subs	r0, r0, r5
 800db56:	2802      	cmp	r0, #2
 800db58:	d9f6      	bls.n	800db48 <HAL_RCC_OscConfig+0x18c>
 800db5a:	e772      	b.n	800da42 <HAL_RCC_OscConfig+0x86>
 800db5c:	4b4a      	ldr	r3, [pc, #296]	; (800dc88 <HAL_RCC_OscConfig+0x2cc>)
 800db5e:	6c1a      	ldr	r2, [r3, #64]	; 0x40
 800db60:	f012 5280 	ands.w	r2, r2, #268435456	; 0x10000000
 800db64:	d128      	bne.n	800dbb8 <HAL_RCC_OscConfig+0x1fc>
 800db66:	9201      	str	r2, [sp, #4]
 800db68:	6c1a      	ldr	r2, [r3, #64]	; 0x40
 800db6a:	f042 5280 	orr.w	r2, r2, #268435456	; 0x10000000
 800db6e:	641a      	str	r2, [r3, #64]	; 0x40
 800db70:	6c1b      	ldr	r3, [r3, #64]	; 0x40
 800db72:	f003 5380 	and.w	r3, r3, #268435456	; 0x10000000
 800db76:	9301      	str	r3, [sp, #4]
 800db78:	9b01      	ldr	r3, [sp, #4]
 800db7a:	2701      	movs	r7, #1
 800db7c:	4d45      	ldr	r5, [pc, #276]	; (800dc94 <HAL_RCC_OscConfig+0x2d8>)
 800db7e:	682b      	ldr	r3, [r5, #0]
 800db80:	05d9      	lsls	r1, r3, #23
 800db82:	d51b      	bpl.n	800dbbc <HAL_RCC_OscConfig+0x200>
 800db84:	68a3      	ldr	r3, [r4, #8]
 800db86:	4d40      	ldr	r5, [pc, #256]	; (800dc88 <HAL_RCC_OscConfig+0x2cc>)
 800db88:	2b01      	cmp	r3, #1
 800db8a:	d127      	bne.n	800dbdc <HAL_RCC_OscConfig+0x220>
 800db8c:	6f2b      	ldr	r3, [r5, #112]	; 0x70
 800db8e:	f043 0301 	orr.w	r3, r3, #1
 800db92:	672b      	str	r3, [r5, #112]	; 0x70
 800db94:	f7fd fe70 	bl	800b878 <HAL_GetTick>
 800db98:	4e3b      	ldr	r6, [pc, #236]	; (800dc88 <HAL_RCC_OscConfig+0x2cc>)
 800db9a:	4605      	mov	r5, r0
 800db9c:	f241 3888 	movw	r8, #5000	; 0x1388
 800dba0:	6f33      	ldr	r3, [r6, #112]	; 0x70
 800dba2:	079b      	lsls	r3, r3, #30
 800dba4:	d539      	bpl.n	800dc1a <HAL_RCC_OscConfig+0x25e>
 800dba6:	2f00      	cmp	r7, #0
 800dba8:	f43f af1a 	beq.w	800d9e0 <HAL_RCC_OscConfig+0x24>
 800dbac:	4a36      	ldr	r2, [pc, #216]	; (800dc88 <HAL_RCC_OscConfig+0x2cc>)
 800dbae:	6c13      	ldr	r3, [r2, #64]	; 0x40
 800dbb0:	f023 5380 	bic.w	r3, r3, #268435456	; 0x10000000
 800dbb4:	6413      	str	r3, [r2, #64]	; 0x40
 800dbb6:	e713      	b.n	800d9e0 <HAL_RCC_OscConfig+0x24>
 800dbb8:	2700      	movs	r7, #0
 800dbba:	e7df      	b.n	800db7c <HAL_RCC_OscConfig+0x1c0>
 800dbbc:	682b      	ldr	r3, [r5, #0]
 800dbbe:	f443 7380 	orr.w	r3, r3, #256	; 0x100
 800dbc2:	602b      	str	r3, [r5, #0]
 800dbc4:	f7fd fe58 	bl	800b878 <HAL_GetTick>
 800dbc8:	4606      	mov	r6, r0
 800dbca:	682b      	ldr	r3, [r5, #0]
 800dbcc:	05da      	lsls	r2, r3, #23
 800dbce:	d4d9      	bmi.n	800db84 <HAL_RCC_OscConfig+0x1c8>
 800dbd0:	f7fd fe52 	bl	800b878 <HAL_GetTick>
 800dbd4:	1b80      	subs	r0, r0, r6
 800dbd6:	2802      	cmp	r0, #2
 800dbd8:	d9f7      	bls.n	800dbca <HAL_RCC_OscConfig+0x20e>
 800dbda:	e732      	b.n	800da42 <HAL_RCC_OscConfig+0x86>
 800dbdc:	2b05      	cmp	r3, #5
 800dbde:	d104      	bne.n	800dbea <HAL_RCC_OscConfig+0x22e>
 800dbe0:	6f2b      	ldr	r3, [r5, #112]	; 0x70
 800dbe2:	f043 0304 	orr.w	r3, r3, #4
 800dbe6:	672b      	str	r3, [r5, #112]	; 0x70
 800dbe8:	e7d0      	b.n	800db8c <HAL_RCC_OscConfig+0x1d0>
 800dbea:	6f2a      	ldr	r2, [r5, #112]	; 0x70
 800dbec:	f022 0201 	bic.w	r2, r2, #1
 800dbf0:	672a      	str	r2, [r5, #112]	; 0x70
 800dbf2:	6f2a      	ldr	r2, [r5, #112]	; 0x70
 800dbf4:	f022 0204 	bic.w	r2, r2, #4
 800dbf8:	672a      	str	r2, [r5, #112]	; 0x70
 800dbfa:	2b00      	cmp	r3, #0
 800dbfc:	d1ca      	bne.n	800db94 <HAL_RCC_OscConfig+0x1d8>
 800dbfe:	f7fd fe3b 	bl	800b878 <HAL_GetTick>
 800dc02:	f241 3888 	movw	r8, #5000	; 0x1388
 800dc06:	4606      	mov	r6, r0
 800dc08:	6f2b      	ldr	r3, [r5, #112]	; 0x70
 800dc0a:	0798      	lsls	r0, r3, #30
 800dc0c:	d5cb      	bpl.n	800dba6 <HAL_RCC_OscConfig+0x1ea>
 800dc0e:	f7fd fe33 	bl	800b878 <HAL_GetTick>
 800dc12:	1b80      	subs	r0, r0, r6
 800dc14:	4540      	cmp	r0, r8
 800dc16:	d9f7      	bls.n	800dc08 <HAL_RCC_OscConfig+0x24c>
 800dc18:	e713      	b.n	800da42 <HAL_RCC_OscConfig+0x86>
 800dc1a:	f7fd fe2d 	bl	800b878 <HAL_GetTick>
 800dc1e:	1b40      	subs	r0, r0, r5
 800dc20:	4540      	cmp	r0, r8
 800dc22:	d9bd      	bls.n	800dba0 <HAL_RCC_OscConfig+0x1e4>
 800dc24:	e70d      	b.n	800da42 <HAL_RCC_OscConfig+0x86>
 800dc26:	4d18      	ldr	r5, [pc, #96]	; (800dc88 <HAL_RCC_OscConfig+0x2cc>)
 800dc28:	68ab      	ldr	r3, [r5, #8]
 800dc2a:	f003 030c 	and.w	r3, r3, #12
 800dc2e:	2b08      	cmp	r3, #8
 800dc30:	d047      	beq.n	800dcc2 <HAL_RCC_OscConfig+0x306>
 800dc32:	4e19      	ldr	r6, [pc, #100]	; (800dc98 <HAL_RCC_OscConfig+0x2dc>)
 800dc34:	2300      	movs	r3, #0
 800dc36:	2802      	cmp	r0, #2
 800dc38:	6033      	str	r3, [r6, #0]
 800dc3a:	d135      	bne.n	800dca8 <HAL_RCC_OscConfig+0x2ec>
 800dc3c:	f7fd fe1c 	bl	800b878 <HAL_GetTick>
 800dc40:	4607      	mov	r7, r0
 800dc42:	682b      	ldr	r3, [r5, #0]
 800dc44:	0199      	lsls	r1, r3, #6
 800dc46:	d429      	bmi.n	800dc9c <HAL_RCC_OscConfig+0x2e0>
 800dc48:	e9d4 3207 	ldrd	r3, r2, [r4, #28]
 800dc4c:	4313      	orrs	r3, r2
 800dc4e:	6a62      	ldr	r2, [r4, #36]	; 0x24
 800dc50:	ea43 1382 	orr.w	r3, r3, r2, lsl #6
 800dc54:	6ae2      	ldr	r2, [r4, #44]	; 0x2c
 800dc56:	ea43 6302 	orr.w	r3, r3, r2, lsl #24
 800dc5a:	6aa2      	ldr	r2, [r4, #40]	; 0x28
 800dc5c:	0852      	lsrs	r2, r2, #1
 800dc5e:	3a01      	subs	r2, #1
 800dc60:	ea43 4302 	orr.w	r3, r3, r2, lsl #16
 800dc64:	606b      	str	r3, [r5, #4]
 800dc66:	2301      	movs	r3, #1
 800dc68:	6033      	str	r3, [r6, #0]
 800dc6a:	f7fd fe05 	bl	800b878 <HAL_GetTick>
 800dc6e:	4d06      	ldr	r5, [pc, #24]	; (800dc88 <HAL_RCC_OscConfig+0x2cc>)
 800dc70:	4604      	mov	r4, r0
 800dc72:	682b      	ldr	r3, [r5, #0]
 800dc74:	019a      	lsls	r2, r3, #6
 800dc76:	f53f aeb7 	bmi.w	800d9e8 <HAL_RCC_OscConfig+0x2c>
 800dc7a:	f7fd fdfd 	bl	800b878 <HAL_GetTick>
 800dc7e:	1b00      	subs	r0, r0, r4
 800dc80:	2802      	cmp	r0, #2
 800dc82:	d9f6      	bls.n	800dc72 <HAL_RCC_OscConfig+0x2b6>
 800dc84:	e6dd      	b.n	800da42 <HAL_RCC_OscConfig+0x86>
 800dc86:	bf00      	nop
 800dc88:	40023800 	.word	0x40023800
 800dc8c:	42470000 	.word	0x42470000
 800dc90:	42470e80 	.word	0x42470e80
 800dc94:	40007000 	.word	0x40007000
 800dc98:	42470060 	.word	0x42470060
 800dc9c:	f7fd fdec 	bl	800b878 <HAL_GetTick>
 800dca0:	1bc0      	subs	r0, r0, r7
 800dca2:	2802      	cmp	r0, #2
 800dca4:	d9cd      	bls.n	800dc42 <HAL_RCC_OscConfig+0x286>
 800dca6:	e6cc      	b.n	800da42 <HAL_RCC_OscConfig+0x86>
 800dca8:	f7fd fde6 	bl	800b878 <HAL_GetTick>
 800dcac:	4604      	mov	r4, r0
 800dcae:	682b      	ldr	r3, [r5, #0]
 800dcb0:	019b      	lsls	r3, r3, #6
 800dcb2:	f57f ae99 	bpl.w	800d9e8 <HAL_RCC_OscConfig+0x2c>
 800dcb6:	f7fd fddf 	bl	800b878 <HAL_GetTick>
 800dcba:	1b00      	subs	r0, r0, r4
 800dcbc:	2802      	cmp	r0, #2
 800dcbe:	d9f6      	bls.n	800dcae <HAL_RCC_OscConfig+0x2f2>
 800dcc0:	e6bf      	b.n	800da42 <HAL_RCC_OscConfig+0x86>
 800dcc2:	2801      	cmp	r0, #1
 800dcc4:	f43f aebe 	beq.w	800da44 <HAL_RCC_OscConfig+0x88>
 800dcc8:	686b      	ldr	r3, [r5, #4]
 800dcca:	69e2      	ldr	r2, [r4, #28]
 800dccc:	f403 0180 	and.w	r1, r3, #4194304	; 0x400000
 800dcd0:	4291      	cmp	r1, r2
 800dcd2:	f47f aea0 	bne.w	800da16 <HAL_RCC_OscConfig+0x5a>
 800dcd6:	6a21      	ldr	r1, [r4, #32]
 800dcd8:	f003 023f 	and.w	r2, r3, #63	; 0x3f
 800dcdc:	428a      	cmp	r2, r1
 800dcde:	f47f ae9a 	bne.w	800da16 <HAL_RCC_OscConfig+0x5a>
 800dce2:	6a61      	ldr	r1, [r4, #36]	; 0x24
 800dce4:	f647 72c0 	movw	r2, #32704	; 0x7fc0
 800dce8:	401a      	ands	r2, r3
 800dcea:	ebb2 1f81 	cmp.w	r2, r1, lsl #6
 800dcee:	f47f ae92 	bne.w	800da16 <HAL_RCC_OscConfig+0x5a>
 800dcf2:	6aa2      	ldr	r2, [r4, #40]	; 0x28
 800dcf4:	0852      	lsrs	r2, r2, #1
 800dcf6:	f403 3140 	and.w	r1, r3, #196608	; 0x30000
 800dcfa:	3a01      	subs	r2, #1
 800dcfc:	ebb1 4f02 	cmp.w	r1, r2, lsl #16
 800dd00:	f47f ae89 	bne.w	800da16 <HAL_RCC_OscConfig+0x5a>
 800dd04:	6ae2      	ldr	r2, [r4, #44]	; 0x2c
 800dd06:	f003 6370 	and.w	r3, r3, #251658240	; 0xf000000
 800dd0a:	ebb3 6f02 	cmp.w	r3, r2, lsl #24
 800dd0e:	f43f ae6b 	beq.w	800d9e8 <HAL_RCC_OscConfig+0x2c>
 800dd12:	e680      	b.n	800da16 <HAL_RCC_OscConfig+0x5a>

0800dd14 <HAL_RCC_GetSysClockFreq>:
 800dd14:	4913      	ldr	r1, [pc, #76]	; (800dd64 <HAL_RCC_GetSysClockFreq+0x50>)
 800dd16:	b508      	push	{r3, lr}
 800dd18:	688b      	ldr	r3, [r1, #8]
 800dd1a:	f003 030c 	and.w	r3, r3, #12
 800dd1e:	2b04      	cmp	r3, #4
 800dd20:	d01c      	beq.n	800dd5c <HAL_RCC_GetSysClockFreq+0x48>
 800dd22:	2b08      	cmp	r3, #8
 800dd24:	d11c      	bne.n	800dd60 <HAL_RCC_GetSysClockFreq+0x4c>
 800dd26:	684a      	ldr	r2, [r1, #4]
 800dd28:	684b      	ldr	r3, [r1, #4]
 800dd2a:	6849      	ldr	r1, [r1, #4]
 800dd2c:	f413 0380 	ands.w	r3, r3, #4194304	; 0x400000
 800dd30:	bf14      	ite	ne
 800dd32:	480d      	ldrne	r0, [pc, #52]	; (800dd68 <HAL_RCC_GetSysClockFreq+0x54>)
 800dd34:	480d      	ldreq	r0, [pc, #52]	; (800dd6c <HAL_RCC_GetSysClockFreq+0x58>)
 800dd36:	f3c1 1188 	ubfx	r1, r1, #6, #9
 800dd3a:	bf18      	it	ne
 800dd3c:	2300      	movne	r3, #0
 800dd3e:	f002 023f 	and.w	r2, r2, #63	; 0x3f
 800dd42:	fba1 0100 	umull	r0, r1, r1, r0
 800dd46:	f7fa ff87 	bl	8008c58 <__aeabi_uldivmod>
 800dd4a:	4b06      	ldr	r3, [pc, #24]	; (800dd64 <HAL_RCC_GetSysClockFreq+0x50>)
 800dd4c:	685b      	ldr	r3, [r3, #4]
 800dd4e:	f3c3 4301 	ubfx	r3, r3, #16, #2
 800dd52:	3301      	adds	r3, #1
 800dd54:	005b      	lsls	r3, r3, #1
 800dd56:	fbb0 f0f3 	udiv	r0, r0, r3
 800dd5a:	bd08      	pop	{r3, pc}
 800dd5c:	4802      	ldr	r0, [pc, #8]	; (800dd68 <HAL_RCC_GetSysClockFreq+0x54>)
 800dd5e:	e7fc      	b.n	800dd5a <HAL_RCC_GetSysClockFreq+0x46>
 800dd60:	4802      	ldr	r0, [pc, #8]	; (800dd6c <HAL_RCC_GetSysClockFreq+0x58>)
 800dd62:	e7fa      	b.n	800dd5a <HAL_RCC_GetSysClockFreq+0x46>
 800dd64:	40023800 	.word	0x40023800
 800dd68:	017d7840 	.word	0x017d7840
 800dd6c:	00f42400 	.word	0x00f42400

0800dd70 <HAL_RCC_ClockConfig>:
 800dd70:	e92d 41f0 	stmdb	sp!, {r4, r5, r6, r7, r8, lr}
 800dd74:	460d      	mov	r5, r1
 800dd76:	4604      	mov	r4, r0
 800dd78:	b910      	cbnz	r0, 800dd80 <HAL_RCC_ClockConfig+0x10>
 800dd7a:	2001      	movs	r0, #1
 800dd7c:	e8bd 81f0 	ldmia.w	sp!, {r4, r5, r6, r7, r8, pc}
 800dd80:	4b44      	ldr	r3, [pc, #272]	; (800de94 <HAL_RCC_ClockConfig+0x124>)
 800dd82:	681a      	ldr	r2, [r3, #0]
 800dd84:	f002 0207 	and.w	r2, r2, #7
 800dd88:	428a      	cmp	r2, r1
 800dd8a:	d328      	bcc.n	800ddde <HAL_RCC_ClockConfig+0x6e>
 800dd8c:	6822      	ldr	r2, [r4, #0]
 800dd8e:	0797      	lsls	r7, r2, #30
 800dd90:	d42d      	bmi.n	800ddee <HAL_RCC_ClockConfig+0x7e>
 800dd92:	07d0      	lsls	r0, r2, #31
 800dd94:	d441      	bmi.n	800de1a <HAL_RCC_ClockConfig+0xaa>
 800dd96:	4b3f      	ldr	r3, [pc, #252]	; (800de94 <HAL_RCC_ClockConfig+0x124>)
 800dd98:	681a      	ldr	r2, [r3, #0]
 800dd9a:	f002 0207 	and.w	r2, r2, #7
 800dd9e:	42aa      	cmp	r2, r5
 800dda0:	d866      	bhi.n	800de70 <HAL_RCC_ClockConfig+0x100>
 800dda2:	6822      	ldr	r2, [r4, #0]
 800dda4:	0751      	lsls	r1, r2, #29
 800dda6:	d46c      	bmi.n	800de82 <HAL_RCC_ClockConfig+0x112>
 800dda8:	0713      	lsls	r3, r2, #28
 800ddaa:	d507      	bpl.n	800ddbc <HAL_RCC_ClockConfig+0x4c>
 800ddac:	4a3a      	ldr	r2, [pc, #232]	; (800de98 <HAL_RCC_ClockConfig+0x128>)
 800ddae:	6921      	ldr	r1, [r4, #16]
 800ddb0:	6893      	ldr	r3, [r2, #8]
 800ddb2:	f423 4360 	bic.w	r3, r3, #57344	; 0xe000
 800ddb6:	ea43 03c1 	orr.w	r3, r3, r1, lsl #3
 800ddba:	6093      	str	r3, [r2, #8]
 800ddbc:	f7ff ffaa 	bl	800dd14 <HAL_RCC_GetSysClockFreq>
 800ddc0:	4b35      	ldr	r3, [pc, #212]	; (800de98 <HAL_RCC_ClockConfig+0x128>)
 800ddc2:	4a36      	ldr	r2, [pc, #216]	; (800de9c <HAL_RCC_ClockConfig+0x12c>)
 800ddc4:	689b      	ldr	r3, [r3, #8]
 800ddc6:	f3c3 1303 	ubfx	r3, r3, #4, #4
 800ddca:	5cd3      	ldrb	r3, [r2, r3]
 800ddcc:	40d8      	lsrs	r0, r3
 800ddce:	4b34      	ldr	r3, [pc, #208]	; (800dea0 <HAL_RCC_ClockConfig+0x130>)
 800ddd0:	6018      	str	r0, [r3, #0]
 800ddd2:	4b34      	ldr	r3, [pc, #208]	; (800dea4 <HAL_RCC_ClockConfig+0x134>)
 800ddd4:	6818      	ldr	r0, [r3, #0]
 800ddd6:	f7fd fd05 	bl	800b7e4 <HAL_InitTick>
 800ddda:	2000      	movs	r0, #0
 800dddc:	e7ce      	b.n	800dd7c <HAL_RCC_ClockConfig+0xc>
 800ddde:	b2ca      	uxtb	r2, r1
 800dde0:	701a      	strb	r2, [r3, #0]
 800dde2:	681b      	ldr	r3, [r3, #0]
 800dde4:	f003 0307 	and.w	r3, r3, #7
 800dde8:	428b      	cmp	r3, r1
 800ddea:	d1c6      	bne.n	800dd7a <HAL_RCC_ClockConfig+0xa>
 800ddec:	e7ce      	b.n	800dd8c <HAL_RCC_ClockConfig+0x1c>
 800ddee:	4b2a      	ldr	r3, [pc, #168]	; (800de98 <HAL_RCC_ClockConfig+0x128>)
 800ddf0:	f012 0f04 	tst.w	r2, #4
 800ddf4:	bf1e      	ittt	ne
 800ddf6:	6899      	ldrne	r1, [r3, #8]
 800ddf8:	f441 51e0 	orrne.w	r1, r1, #7168	; 0x1c00
 800ddfc:	6099      	strne	r1, [r3, #8]
 800ddfe:	0716      	lsls	r6, r2, #28
 800de00:	bf42      	ittt	mi
 800de02:	6899      	ldrmi	r1, [r3, #8]
 800de04:	f441 4160 	orrmi.w	r1, r1, #57344	; 0xe000
 800de08:	6099      	strmi	r1, [r3, #8]
 800de0a:	4923      	ldr	r1, [pc, #140]	; (800de98 <HAL_RCC_ClockConfig+0x128>)
 800de0c:	68a0      	ldr	r0, [r4, #8]
 800de0e:	688b      	ldr	r3, [r1, #8]
 800de10:	f023 03f0 	bic.w	r3, r3, #240	; 0xf0
 800de14:	4303      	orrs	r3, r0
 800de16:	608b      	str	r3, [r1, #8]
 800de18:	e7bb      	b.n	800dd92 <HAL_RCC_ClockConfig+0x22>
 800de1a:	6862      	ldr	r2, [r4, #4]
 800de1c:	4b1e      	ldr	r3, [pc, #120]	; (800de98 <HAL_RCC_ClockConfig+0x128>)
 800de1e:	2a01      	cmp	r2, #1
 800de20:	d11c      	bne.n	800de5c <HAL_RCC_ClockConfig+0xec>
 800de22:	681b      	ldr	r3, [r3, #0]
 800de24:	f413 3f00 	tst.w	r3, #131072	; 0x20000
 800de28:	d0a7      	beq.n	800dd7a <HAL_RCC_ClockConfig+0xa>
 800de2a:	4e1b      	ldr	r6, [pc, #108]	; (800de98 <HAL_RCC_ClockConfig+0x128>)
 800de2c:	68b3      	ldr	r3, [r6, #8]
 800de2e:	f023 0303 	bic.w	r3, r3, #3
 800de32:	4313      	orrs	r3, r2
 800de34:	60b3      	str	r3, [r6, #8]
 800de36:	f7fd fd1f 	bl	800b878 <HAL_GetTick>
 800de3a:	f241 3888 	movw	r8, #5000	; 0x1388
 800de3e:	4607      	mov	r7, r0
 800de40:	68b3      	ldr	r3, [r6, #8]
 800de42:	6862      	ldr	r2, [r4, #4]
 800de44:	f003 030c 	and.w	r3, r3, #12
 800de48:	ebb3 0f82 	cmp.w	r3, r2, lsl #2
 800de4c:	d0a3      	beq.n	800dd96 <HAL_RCC_ClockConfig+0x26>
 800de4e:	f7fd fd13 	bl	800b878 <HAL_GetTick>
 800de52:	1bc0      	subs	r0, r0, r7
 800de54:	4540      	cmp	r0, r8
 800de56:	d9f3      	bls.n	800de40 <HAL_RCC_ClockConfig+0xd0>
 800de58:	2003      	movs	r0, #3
 800de5a:	e78f      	b.n	800dd7c <HAL_RCC_ClockConfig+0xc>
 800de5c:	1e91      	subs	r1, r2, #2
 800de5e:	2901      	cmp	r1, #1
 800de60:	681b      	ldr	r3, [r3, #0]
 800de62:	d802      	bhi.n	800de6a <HAL_RCC_ClockConfig+0xfa>
 800de64:	f013 7f00 	tst.w	r3, #33554432	; 0x2000000
 800de68:	e7de      	b.n	800de28 <HAL_RCC_ClockConfig+0xb8>
 800de6a:	f013 0f02 	tst.w	r3, #2
 800de6e:	e7db      	b.n	800de28 <HAL_RCC_ClockConfig+0xb8>
 800de70:	b2ea      	uxtb	r2, r5
 800de72:	701a      	strb	r2, [r3, #0]
 800de74:	681b      	ldr	r3, [r3, #0]
 800de76:	f003 0307 	and.w	r3, r3, #7
 800de7a:	42ab      	cmp	r3, r5
 800de7c:	f47f af7d 	bne.w	800dd7a <HAL_RCC_ClockConfig+0xa>
 800de80:	e78f      	b.n	800dda2 <HAL_RCC_ClockConfig+0x32>
 800de82:	4905      	ldr	r1, [pc, #20]	; (800de98 <HAL_RCC_ClockConfig+0x128>)
 800de84:	68e0      	ldr	r0, [r4, #12]
 800de86:	688b      	ldr	r3, [r1, #8]
 800de88:	f423 53e0 	bic.w	r3, r3, #7168	; 0x1c00
 800de8c:	4303      	orrs	r3, r0
 800de8e:	608b      	str	r3, [r1, #8]
 800de90:	e78a      	b.n	800dda8 <HAL_RCC_ClockConfig+0x38>
 800de92:	bf00      	nop
 800de94:	40023c00 	.word	0x40023c00
 800de98:	40023800 	.word	0x40023800
 800de9c:	08016c67 	.word	0x08016c67
 800dea0:	20000060 	.word	0x20000060
 800dea4:	20000068 	.word	0x20000068

0800dea8 <HAL_RCC_GetPCLK1Freq>:
 800dea8:	4b04      	ldr	r3, [pc, #16]	; (800debc <HAL_RCC_GetPCLK1Freq+0x14>)
 800deaa:	4a05      	ldr	r2, [pc, #20]	; (800dec0 <HAL_RCC_GetPCLK1Freq+0x18>)
 800deac:	689b      	ldr	r3, [r3, #8]
 800deae:	f3c3 2382 	ubfx	r3, r3, #10, #3
 800deb2:	5cd3      	ldrb	r3, [r2, r3]
 800deb4:	4a03      	ldr	r2, [pc, #12]	; (800dec4 <HAL_RCC_GetPCLK1Freq+0x1c>)
 800deb6:	6810      	ldr	r0, [r2, #0]
 800deb8:	40d8      	lsrs	r0, r3
 800deba:	4770      	bx	lr
 800debc:	40023800 	.word	0x40023800
 800dec0:	08016c77 	.word	0x08016c77
 800dec4:	20000060 	.word	0x20000060

0800dec8 <HAL_RCC_GetPCLK2Freq>:
 800dec8:	4b04      	ldr	r3, [pc, #16]	; (800dedc <HAL_RCC_GetPCLK2Freq+0x14>)
 800deca:	4a05      	ldr	r2, [pc, #20]	; (800dee0 <HAL_RCC_GetPCLK2Freq+0x18>)
 800decc:	689b      	ldr	r3, [r3, #8]
 800dece:	f3c3 3342 	ubfx	r3, r3, #13, #3
 800ded2:	5cd3      	ldrb	r3, [r2, r3]
 800ded4:	4a03      	ldr	r2, [pc, #12]	; (800dee4 <HAL_RCC_GetPCLK2Freq+0x1c>)
 800ded6:	6810      	ldr	r0, [r2, #0]
 800ded8:	40d8      	lsrs	r0, r3
 800deda:	4770      	bx	lr
 800dedc:	40023800 	.word	0x40023800
 800dee0:	08016c77 	.word	0x08016c77
 800dee4:	20000060 	.word	0x20000060

0800dee8 <SPI_WaitFlagStateUntilTimeout.constprop.0>:
 800dee8:	e92d 41f3 	stmdb	sp!, {r0, r1, r4, r5, r6, r7, r8, lr}
 800deec:	461d      	mov	r5, r3
 800deee:	4617      	mov	r7, r2
 800def0:	4688      	mov	r8, r1
 800def2:	4606      	mov	r6, r0
 800def4:	f7fd fcc0 	bl	800b878 <HAL_GetTick>
 800def8:	443d      	add	r5, r7
 800defa:	1a2c      	subs	r4, r5, r0
 800defc:	f7fd fcbc 	bl	800b878 <HAL_GetTick>
 800df00:	4b22      	ldr	r3, [pc, #136]	; (800df8c <SPI_WaitFlagStateUntilTimeout.constprop.0+0xa4>)
 800df02:	681b      	ldr	r3, [r3, #0]
 800df04:	f3c3 33cb 	ubfx	r3, r3, #15, #12
 800df08:	4605      	mov	r5, r0
 800df0a:	4363      	muls	r3, r4
 800df0c:	6832      	ldr	r2, [r6, #0]
 800df0e:	9301      	str	r3, [sp, #4]
 800df10:	6893      	ldr	r3, [r2, #8]
 800df12:	ea38 0303 	bics.w	r3, r8, r3
 800df16:	d001      	beq.n	800df1c <SPI_WaitFlagStateUntilTimeout.constprop.0+0x34>
 800df18:	2000      	movs	r0, #0
 800df1a:	e02d      	b.n	800df78 <SPI_WaitFlagStateUntilTimeout.constprop.0+0x90>
 800df1c:	1c7b      	adds	r3, r7, #1
 800df1e:	d0f7      	beq.n	800df10 <SPI_WaitFlagStateUntilTimeout.constprop.0+0x28>
 800df20:	f7fd fcaa 	bl	800b878 <HAL_GetTick>
 800df24:	1b40      	subs	r0, r0, r5
 800df26:	42a0      	cmp	r0, r4
 800df28:	d329      	bcc.n	800df7e <SPI_WaitFlagStateUntilTimeout.constprop.0+0x96>
 800df2a:	6833      	ldr	r3, [r6, #0]
 800df2c:	685a      	ldr	r2, [r3, #4]
 800df2e:	f022 02e0 	bic.w	r2, r2, #224	; 0xe0
 800df32:	605a      	str	r2, [r3, #4]
 800df34:	6872      	ldr	r2, [r6, #4]
 800df36:	f5b2 7f82 	cmp.w	r2, #260	; 0x104
 800df3a:	d10a      	bne.n	800df52 <SPI_WaitFlagStateUntilTimeout.constprop.0+0x6a>
 800df3c:	68b2      	ldr	r2, [r6, #8]
 800df3e:	f5b2 4f00 	cmp.w	r2, #32768	; 0x8000
 800df42:	d002      	beq.n	800df4a <SPI_WaitFlagStateUntilTimeout.constprop.0+0x62>
 800df44:	f5b2 6f80 	cmp.w	r2, #1024	; 0x400
 800df48:	d103      	bne.n	800df52 <SPI_WaitFlagStateUntilTimeout.constprop.0+0x6a>
 800df4a:	681a      	ldr	r2, [r3, #0]
 800df4c:	f022 0240 	bic.w	r2, r2, #64	; 0x40
 800df50:	601a      	str	r2, [r3, #0]
 800df52:	6ab2      	ldr	r2, [r6, #40]	; 0x28
 800df54:	f5b2 5f00 	cmp.w	r2, #8192	; 0x2000
 800df58:	d107      	bne.n	800df6a <SPI_WaitFlagStateUntilTimeout.constprop.0+0x82>
 800df5a:	681a      	ldr	r2, [r3, #0]
 800df5c:	f422 5200 	bic.w	r2, r2, #8192	; 0x2000
 800df60:	601a      	str	r2, [r3, #0]
 800df62:	681a      	ldr	r2, [r3, #0]
 800df64:	f442 5200 	orr.w	r2, r2, #8192	; 0x2000
 800df68:	601a      	str	r2, [r3, #0]
 800df6a:	2301      	movs	r3, #1
 800df6c:	f886 3051 	strb.w	r3, [r6, #81]	; 0x51
 800df70:	2300      	movs	r3, #0
 800df72:	f886 3050 	strb.w	r3, [r6, #80]	; 0x50
 800df76:	2003      	movs	r0, #3
 800df78:	b002      	add	sp, #8
 800df7a:	e8bd 81f0 	ldmia.w	sp!, {r4, r5, r6, r7, r8, pc}
 800df7e:	9b01      	ldr	r3, [sp, #4]
 800df80:	2b00      	cmp	r3, #0
 800df82:	9b01      	ldr	r3, [sp, #4]
 800df84:	bf08      	it	eq
 800df86:	2400      	moveq	r4, #0
 800df88:	3b01      	subs	r3, #1
 800df8a:	e7bf      	b.n	800df0c <SPI_WaitFlagStateUntilTimeout.constprop.0+0x24>
 800df8c:	20000060 	.word	0x20000060

0800df90 <SPI_EndRxTxTransaction>:
 800df90:	b537      	push	{r0, r1, r2, r4, r5, lr}
 800df92:	4613      	mov	r3, r2
 800df94:	4a12      	ldr	r2, [pc, #72]	; (800dfe0 <SPI_EndRxTxTransaction+0x50>)
 800df96:	4d13      	ldr	r5, [pc, #76]	; (800dfe4 <SPI_EndRxTxTransaction+0x54>)
 800df98:	6812      	ldr	r2, [r2, #0]
 800df9a:	fbb2 f5f5 	udiv	r5, r2, r5
 800df9e:	f44f 727a 	mov.w	r2, #1000	; 0x3e8
 800dfa2:	436a      	muls	r2, r5
 800dfa4:	9201      	str	r2, [sp, #4]
 800dfa6:	6842      	ldr	r2, [r0, #4]
 800dfa8:	f5b2 7f82 	cmp.w	r2, #260	; 0x104
 800dfac:	4604      	mov	r4, r0
 800dfae:	d10b      	bne.n	800dfc8 <SPI_EndRxTxTransaction+0x38>
 800dfb0:	460a      	mov	r2, r1
 800dfb2:	2180      	movs	r1, #128	; 0x80
 800dfb4:	f7ff ff98 	bl	800dee8 <SPI_WaitFlagStateUntilTimeout.constprop.0>
 800dfb8:	b178      	cbz	r0, 800dfda <SPI_EndRxTxTransaction+0x4a>
 800dfba:	6d63      	ldr	r3, [r4, #84]	; 0x54
 800dfbc:	f043 0320 	orr.w	r3, r3, #32
 800dfc0:	6563      	str	r3, [r4, #84]	; 0x54
 800dfc2:	2003      	movs	r0, #3
 800dfc4:	b003      	add	sp, #12
 800dfc6:	bd30      	pop	{r4, r5, pc}
 800dfc8:	9b01      	ldr	r3, [sp, #4]
 800dfca:	b133      	cbz	r3, 800dfda <SPI_EndRxTxTransaction+0x4a>
 800dfcc:	9b01      	ldr	r3, [sp, #4]
 800dfce:	3b01      	subs	r3, #1
 800dfd0:	9301      	str	r3, [sp, #4]
 800dfd2:	6823      	ldr	r3, [r4, #0]
 800dfd4:	689b      	ldr	r3, [r3, #8]
 800dfd6:	061b      	lsls	r3, r3, #24
 800dfd8:	d4f6      	bmi.n	800dfc8 <SPI_EndRxTxTransaction+0x38>
 800dfda:	2000      	movs	r0, #0
 800dfdc:	e7f2      	b.n	800dfc4 <SPI_EndRxTxTransaction+0x34>
 800dfde:	bf00      	nop
 800dfe0:	20000060 	.word	0x20000060
 800dfe4:	016e3600 	.word	0x016e3600

0800dfe8 <HAL_SPI_Init>:
 800dfe8:	b510      	push	{r4, lr}
 800dfea:	4604      	mov	r4, r0
 800dfec:	2800      	cmp	r0, #0
 800dfee:	d055      	beq.n	800e09c <HAL_SPI_Init+0xb4>
 800dff0:	6a43      	ldr	r3, [r0, #36]	; 0x24
 800dff2:	2b00      	cmp	r3, #0
 800dff4:	d14e      	bne.n	800e094 <HAL_SPI_Init+0xac>
 800dff6:	6842      	ldr	r2, [r0, #4]
 800dff8:	f5b2 7f82 	cmp.w	r2, #260	; 0x104
 800dffc:	d000      	beq.n	800e000 <HAL_SPI_Init+0x18>
 800dffe:	61c3      	str	r3, [r0, #28]
 800e000:	2300      	movs	r3, #0
 800e002:	62a3      	str	r3, [r4, #40]	; 0x28
 800e004:	f894 3051 	ldrb.w	r3, [r4, #81]	; 0x51
 800e008:	f003 02ff 	and.w	r2, r3, #255	; 0xff
 800e00c:	b923      	cbnz	r3, 800e018 <HAL_SPI_Init+0x30>
 800e00e:	f884 2050 	strb.w	r2, [r4, #80]	; 0x50
 800e012:	4620      	mov	r0, r4
 800e014:	f7fd f9fa 	bl	800b40c <HAL_SPI_MspInit>
 800e018:	6821      	ldr	r1, [r4, #0]
 800e01a:	68a0      	ldr	r0, [r4, #8]
 800e01c:	69a2      	ldr	r2, [r4, #24]
 800e01e:	2302      	movs	r3, #2
 800e020:	f884 3051 	strb.w	r3, [r4, #81]	; 0x51
 800e024:	680b      	ldr	r3, [r1, #0]
 800e026:	f023 0340 	bic.w	r3, r3, #64	; 0x40
 800e02a:	600b      	str	r3, [r1, #0]
 800e02c:	6863      	ldr	r3, [r4, #4]
 800e02e:	f400 4004 	and.w	r0, r0, #33792	; 0x8400
 800e032:	f403 7382 	and.w	r3, r3, #260	; 0x104
 800e036:	4303      	orrs	r3, r0
 800e038:	68e0      	ldr	r0, [r4, #12]
 800e03a:	f400 6000 	and.w	r0, r0, #2048	; 0x800
 800e03e:	4303      	orrs	r3, r0
 800e040:	6920      	ldr	r0, [r4, #16]
 800e042:	f000 0002 	and.w	r0, r0, #2
 800e046:	4303      	orrs	r3, r0
 800e048:	6960      	ldr	r0, [r4, #20]
 800e04a:	f000 0001 	and.w	r0, r0, #1
 800e04e:	4303      	orrs	r3, r0
 800e050:	f402 7000 	and.w	r0, r2, #512	; 0x200
 800e054:	4303      	orrs	r3, r0
 800e056:	69e0      	ldr	r0, [r4, #28]
 800e058:	f000 0038 	and.w	r0, r0, #56	; 0x38
 800e05c:	4303      	orrs	r3, r0
 800e05e:	6a20      	ldr	r0, [r4, #32]
 800e060:	f000 0080 	and.w	r0, r0, #128	; 0x80
 800e064:	4303      	orrs	r3, r0
 800e066:	6aa0      	ldr	r0, [r4, #40]	; 0x28
 800e068:	f400 5000 	and.w	r0, r0, #8192	; 0x2000
 800e06c:	4303      	orrs	r3, r0
 800e06e:	600b      	str	r3, [r1, #0]
 800e070:	6a63      	ldr	r3, [r4, #36]	; 0x24
 800e072:	0c12      	lsrs	r2, r2, #16
 800e074:	f003 0310 	and.w	r3, r3, #16
 800e078:	f002 0204 	and.w	r2, r2, #4
 800e07c:	431a      	orrs	r2, r3
 800e07e:	604a      	str	r2, [r1, #4]
 800e080:	69cb      	ldr	r3, [r1, #28]
 800e082:	f423 6300 	bic.w	r3, r3, #2048	; 0x800
 800e086:	61cb      	str	r3, [r1, #28]
 800e088:	2000      	movs	r0, #0
 800e08a:	2301      	movs	r3, #1
 800e08c:	6560      	str	r0, [r4, #84]	; 0x54
 800e08e:	f884 3051 	strb.w	r3, [r4, #81]	; 0x51
 800e092:	bd10      	pop	{r4, pc}
 800e094:	2300      	movs	r3, #0
 800e096:	e9c0 3304 	strd	r3, r3, [r0, #16]
 800e09a:	e7b1      	b.n	800e000 <HAL_SPI_Init+0x18>
 800e09c:	2001      	movs	r0, #1
 800e09e:	e7f8      	b.n	800e092 <HAL_SPI_Init+0xaa>

0800e0a0 <HAL_SPI_Transmit>:
 800e0a0:	e92d 43f7 	stmdb	sp!, {r0, r1, r2, r4, r5, r6, r7, r8, r9, lr}
 800e0a4:	461f      	mov	r7, r3
 800e0a6:	f890 3050 	ldrb.w	r3, [r0, #80]	; 0x50
 800e0aa:	2b01      	cmp	r3, #1
 800e0ac:	4604      	mov	r4, r0
 800e0ae:	460d      	mov	r5, r1
 800e0b0:	4690      	mov	r8, r2
 800e0b2:	f000 80a0 	beq.w	800e1f6 <HAL_SPI_Transmit+0x156>
 800e0b6:	2301      	movs	r3, #1
 800e0b8:	f880 3050 	strb.w	r3, [r0, #80]	; 0x50
 800e0bc:	f7fd fbdc 	bl	800b878 <HAL_GetTick>
 800e0c0:	f894 3051 	ldrb.w	r3, [r4, #81]	; 0x51
 800e0c4:	2b01      	cmp	r3, #1
 800e0c6:	4681      	mov	r9, r0
 800e0c8:	b2d8      	uxtb	r0, r3
 800e0ca:	f040 8092 	bne.w	800e1f2 <HAL_SPI_Transmit+0x152>
 800e0ce:	2d00      	cmp	r5, #0
 800e0d0:	d061      	beq.n	800e196 <HAL_SPI_Transmit+0xf6>
 800e0d2:	f1b8 0f00 	cmp.w	r8, #0
 800e0d6:	d05e      	beq.n	800e196 <HAL_SPI_Transmit+0xf6>
 800e0d8:	2303      	movs	r3, #3
 800e0da:	f884 3051 	strb.w	r3, [r4, #81]	; 0x51
 800e0de:	2300      	movs	r3, #0
 800e0e0:	6563      	str	r3, [r4, #84]	; 0x54
 800e0e2:	e9c4 3310 	strd	r3, r3, [r4, #64]	; 0x40
 800e0e6:	f8a4 8036 	strh.w	r8, [r4, #54]	; 0x36
 800e0ea:	63a3      	str	r3, [r4, #56]	; 0x38
 800e0ec:	87a3      	strh	r3, [r4, #60]	; 0x3c
 800e0ee:	87e3      	strh	r3, [r4, #62]	; 0x3e
 800e0f0:	68a3      	ldr	r3, [r4, #8]
 800e0f2:	6826      	ldr	r6, [r4, #0]
 800e0f4:	6325      	str	r5, [r4, #48]	; 0x30
 800e0f6:	f5b3 4f00 	cmp.w	r3, #32768	; 0x8000
 800e0fa:	f8a4 8034 	strh.w	r8, [r4, #52]	; 0x34
 800e0fe:	d107      	bne.n	800e110 <HAL_SPI_Transmit+0x70>
 800e100:	6833      	ldr	r3, [r6, #0]
 800e102:	f023 0340 	bic.w	r3, r3, #64	; 0x40
 800e106:	6033      	str	r3, [r6, #0]
 800e108:	6833      	ldr	r3, [r6, #0]
 800e10a:	f443 4380 	orr.w	r3, r3, #16384	; 0x4000
 800e10e:	6033      	str	r3, [r6, #0]
 800e110:	6833      	ldr	r3, [r6, #0]
 800e112:	68e2      	ldr	r2, [r4, #12]
 800e114:	065b      	lsls	r3, r3, #25
 800e116:	bf5e      	ittt	pl
 800e118:	6833      	ldrpl	r3, [r6, #0]
 800e11a:	f043 0340 	orrpl.w	r3, r3, #64	; 0x40
 800e11e:	6033      	strpl	r3, [r6, #0]
 800e120:	f5b2 6f00 	cmp.w	r2, #2048	; 0x800
 800e124:	6863      	ldr	r3, [r4, #4]
 800e126:	d13f      	bne.n	800e1a8 <HAL_SPI_Transmit+0x108>
 800e128:	b113      	cbz	r3, 800e130 <HAL_SPI_Transmit+0x90>
 800e12a:	f1b8 0f01 	cmp.w	r8, #1
 800e12e:	d107      	bne.n	800e140 <HAL_SPI_Transmit+0xa0>
 800e130:	f835 3b02 	ldrh.w	r3, [r5], #2
 800e134:	60f3      	str	r3, [r6, #12]
 800e136:	6325      	str	r5, [r4, #48]	; 0x30
 800e138:	8ee3      	ldrh	r3, [r4, #54]	; 0x36
 800e13a:	3b01      	subs	r3, #1
 800e13c:	b29b      	uxth	r3, r3
 800e13e:	86e3      	strh	r3, [r4, #54]	; 0x36
 800e140:	8ee3      	ldrh	r3, [r4, #54]	; 0x36
 800e142:	b29b      	uxth	r3, r3
 800e144:	b9a3      	cbnz	r3, 800e170 <HAL_SPI_Transmit+0xd0>
 800e146:	464a      	mov	r2, r9
 800e148:	4639      	mov	r1, r7
 800e14a:	4620      	mov	r0, r4
 800e14c:	f7ff ff20 	bl	800df90 <SPI_EndRxTxTransaction>
 800e150:	2800      	cmp	r0, #0
 800e152:	d14b      	bne.n	800e1ec <HAL_SPI_Transmit+0x14c>
 800e154:	68a3      	ldr	r3, [r4, #8]
 800e156:	b933      	cbnz	r3, 800e166 <HAL_SPI_Transmit+0xc6>
 800e158:	9301      	str	r3, [sp, #4]
 800e15a:	6823      	ldr	r3, [r4, #0]
 800e15c:	68da      	ldr	r2, [r3, #12]
 800e15e:	9201      	str	r2, [sp, #4]
 800e160:	689b      	ldr	r3, [r3, #8]
 800e162:	9301      	str	r3, [sp, #4]
 800e164:	9b01      	ldr	r3, [sp, #4]
 800e166:	6d60      	ldr	r0, [r4, #84]	; 0x54
 800e168:	3800      	subs	r0, #0
 800e16a:	bf18      	it	ne
 800e16c:	2001      	movne	r0, #1
 800e16e:	e012      	b.n	800e196 <HAL_SPI_Transmit+0xf6>
 800e170:	6822      	ldr	r2, [r4, #0]
 800e172:	6893      	ldr	r3, [r2, #8]
 800e174:	0798      	lsls	r0, r3, #30
 800e176:	d505      	bpl.n	800e184 <HAL_SPI_Transmit+0xe4>
 800e178:	6b23      	ldr	r3, [r4, #48]	; 0x30
 800e17a:	f833 1b02 	ldrh.w	r1, [r3], #2
 800e17e:	60d1      	str	r1, [r2, #12]
 800e180:	6323      	str	r3, [r4, #48]	; 0x30
 800e182:	e7d9      	b.n	800e138 <HAL_SPI_Transmit+0x98>
 800e184:	f7fd fb78 	bl	800b878 <HAL_GetTick>
 800e188:	eba0 0009 	sub.w	r0, r0, r9
 800e18c:	42b8      	cmp	r0, r7
 800e18e:	d3d7      	bcc.n	800e140 <HAL_SPI_Transmit+0xa0>
 800e190:	1c79      	adds	r1, r7, #1
 800e192:	d0d5      	beq.n	800e140 <HAL_SPI_Transmit+0xa0>
 800e194:	2003      	movs	r0, #3
 800e196:	2301      	movs	r3, #1
 800e198:	f884 3051 	strb.w	r3, [r4, #81]	; 0x51
 800e19c:	2300      	movs	r3, #0
 800e19e:	f884 3050 	strb.w	r3, [r4, #80]	; 0x50
 800e1a2:	b003      	add	sp, #12
 800e1a4:	e8bd 83f0 	ldmia.w	sp!, {r4, r5, r6, r7, r8, r9, pc}
 800e1a8:	b113      	cbz	r3, 800e1b0 <HAL_SPI_Transmit+0x110>
 800e1aa:	f1b8 0f01 	cmp.w	r8, #1
 800e1ae:	d108      	bne.n	800e1c2 <HAL_SPI_Transmit+0x122>
 800e1b0:	782b      	ldrb	r3, [r5, #0]
 800e1b2:	7333      	strb	r3, [r6, #12]
 800e1b4:	6b23      	ldr	r3, [r4, #48]	; 0x30
 800e1b6:	3301      	adds	r3, #1
 800e1b8:	6323      	str	r3, [r4, #48]	; 0x30
 800e1ba:	8ee3      	ldrh	r3, [r4, #54]	; 0x36
 800e1bc:	3b01      	subs	r3, #1
 800e1be:	b29b      	uxth	r3, r3
 800e1c0:	86e3      	strh	r3, [r4, #54]	; 0x36
 800e1c2:	8ee3      	ldrh	r3, [r4, #54]	; 0x36
 800e1c4:	b29b      	uxth	r3, r3
 800e1c6:	2b00      	cmp	r3, #0
 800e1c8:	d0bd      	beq.n	800e146 <HAL_SPI_Transmit+0xa6>
 800e1ca:	6823      	ldr	r3, [r4, #0]
 800e1cc:	689a      	ldr	r2, [r3, #8]
 800e1ce:	0792      	lsls	r2, r2, #30
 800e1d0:	d503      	bpl.n	800e1da <HAL_SPI_Transmit+0x13a>
 800e1d2:	6b22      	ldr	r2, [r4, #48]	; 0x30
 800e1d4:	7812      	ldrb	r2, [r2, #0]
 800e1d6:	731a      	strb	r2, [r3, #12]
 800e1d8:	e7ec      	b.n	800e1b4 <HAL_SPI_Transmit+0x114>
 800e1da:	f7fd fb4d 	bl	800b878 <HAL_GetTick>
 800e1de:	eba0 0009 	sub.w	r0, r0, r9
 800e1e2:	42b8      	cmp	r0, r7
 800e1e4:	d3ed      	bcc.n	800e1c2 <HAL_SPI_Transmit+0x122>
 800e1e6:	1c7b      	adds	r3, r7, #1
 800e1e8:	d0eb      	beq.n	800e1c2 <HAL_SPI_Transmit+0x122>
 800e1ea:	e7d3      	b.n	800e194 <HAL_SPI_Transmit+0xf4>
 800e1ec:	2320      	movs	r3, #32
 800e1ee:	6563      	str	r3, [r4, #84]	; 0x54
 800e1f0:	e7b0      	b.n	800e154 <HAL_SPI_Transmit+0xb4>
 800e1f2:	2002      	movs	r0, #2
 800e1f4:	e7cf      	b.n	800e196 <HAL_SPI_Transmit+0xf6>
 800e1f6:	2002      	movs	r0, #2
 800e1f8:	e7d3      	b.n	800e1a2 <HAL_SPI_Transmit+0x102>

0800e1fa <HAL_SPI_ErrorCallback>:
 800e1fa:	4770      	bx	lr

0800e1fc <HAL_SPI_IRQHandler>:
 800e1fc:	b5f0      	push	{r4, r5, r6, r7, lr}
 800e1fe:	6803      	ldr	r3, [r0, #0]
 800e200:	685d      	ldr	r5, [r3, #4]
 800e202:	689a      	ldr	r2, [r3, #8]
 800e204:	0656      	lsls	r6, r2, #25
 800e206:	b085      	sub	sp, #20
 800e208:	4604      	mov	r4, r0
 800e20a:	ea4f 1192 	mov.w	r1, r2, lsr #6
 800e20e:	f3c2 1780 	ubfx	r7, r2, #6, #1
 800e212:	d408      	bmi.n	800e226 <HAL_SPI_IRQHandler+0x2a>
 800e214:	07d6      	lsls	r6, r2, #31
 800e216:	d506      	bpl.n	800e226 <HAL_SPI_IRQHandler+0x2a>
 800e218:	066e      	lsls	r6, r5, #25
 800e21a:	d504      	bpl.n	800e226 <HAL_SPI_IRQHandler+0x2a>
 800e21c:	6c03      	ldr	r3, [r0, #64]	; 0x40
 800e21e:	b005      	add	sp, #20
 800e220:	e8bd 40f0 	ldmia.w	sp!, {r4, r5, r6, r7, lr}
 800e224:	4718      	bx	r3
 800e226:	0796      	lsls	r6, r2, #30
 800e228:	d504      	bpl.n	800e234 <HAL_SPI_IRQHandler+0x38>
 800e22a:	0628      	lsls	r0, r5, #24
 800e22c:	d502      	bpl.n	800e234 <HAL_SPI_IRQHandler+0x38>
 800e22e:	6c63      	ldr	r3, [r4, #68]	; 0x44
 800e230:	4620      	mov	r0, r4
 800e232:	e7f4      	b.n	800e21e <HAL_SPI_IRQHandler+0x22>
 800e234:	f3c2 2000 	ubfx	r0, r2, #8, #1
 800e238:	0956      	lsrs	r6, r2, #5
 800e23a:	ea41 1252 	orr.w	r2, r1, r2, lsr #5
 800e23e:	f002 0201 	and.w	r2, r2, #1
 800e242:	4302      	orrs	r2, r0
 800e244:	d057      	beq.n	800e2f6 <HAL_SPI_IRQHandler+0xfa>
 800e246:	06aa      	lsls	r2, r5, #26
 800e248:	d555      	bpl.n	800e2f6 <HAL_SPI_IRQHandler+0xfa>
 800e24a:	b17f      	cbz	r7, 800e26c <HAL_SPI_IRQHandler+0x70>
 800e24c:	f894 2051 	ldrb.w	r2, [r4, #81]	; 0x51
 800e250:	2a03      	cmp	r2, #3
 800e252:	f04f 0100 	mov.w	r1, #0
 800e256:	d048      	beq.n	800e2ea <HAL_SPI_IRQHandler+0xee>
 800e258:	6d62      	ldr	r2, [r4, #84]	; 0x54
 800e25a:	f042 0204 	orr.w	r2, r2, #4
 800e25e:	6562      	str	r2, [r4, #84]	; 0x54
 800e260:	9100      	str	r1, [sp, #0]
 800e262:	68da      	ldr	r2, [r3, #12]
 800e264:	9200      	str	r2, [sp, #0]
 800e266:	689a      	ldr	r2, [r3, #8]
 800e268:	9200      	str	r2, [sp, #0]
 800e26a:	9a00      	ldr	r2, [sp, #0]
 800e26c:	07f1      	lsls	r1, r6, #31
 800e26e:	d50c      	bpl.n	800e28a <HAL_SPI_IRQHandler+0x8e>
 800e270:	6d62      	ldr	r2, [r4, #84]	; 0x54
 800e272:	f042 0201 	orr.w	r2, r2, #1
 800e276:	6562      	str	r2, [r4, #84]	; 0x54
 800e278:	2200      	movs	r2, #0
 800e27a:	9202      	str	r2, [sp, #8]
 800e27c:	689a      	ldr	r2, [r3, #8]
 800e27e:	9202      	str	r2, [sp, #8]
 800e280:	681a      	ldr	r2, [r3, #0]
 800e282:	f022 0240 	bic.w	r2, r2, #64	; 0x40
 800e286:	601a      	str	r2, [r3, #0]
 800e288:	9a02      	ldr	r2, [sp, #8]
 800e28a:	b140      	cbz	r0, 800e29e <HAL_SPI_IRQHandler+0xa2>
 800e28c:	6d62      	ldr	r2, [r4, #84]	; 0x54
 800e28e:	f042 0208 	orr.w	r2, r2, #8
 800e292:	6562      	str	r2, [r4, #84]	; 0x54
 800e294:	2200      	movs	r2, #0
 800e296:	9203      	str	r2, [sp, #12]
 800e298:	689a      	ldr	r2, [r3, #8]
 800e29a:	9203      	str	r2, [sp, #12]
 800e29c:	9a03      	ldr	r2, [sp, #12]
 800e29e:	6d62      	ldr	r2, [r4, #84]	; 0x54
 800e2a0:	b34a      	cbz	r2, 800e2f6 <HAL_SPI_IRQHandler+0xfa>
 800e2a2:	685a      	ldr	r2, [r3, #4]
 800e2a4:	f022 02e0 	bic.w	r2, r2, #224	; 0xe0
 800e2a8:	605a      	str	r2, [r3, #4]
 800e2aa:	2201      	movs	r2, #1
 800e2ac:	f884 2051 	strb.w	r2, [r4, #81]	; 0x51
 800e2b0:	07aa      	lsls	r2, r5, #30
 800e2b2:	d022      	beq.n	800e2fa <HAL_SPI_IRQHandler+0xfe>
 800e2b4:	685a      	ldr	r2, [r3, #4]
 800e2b6:	6ce0      	ldr	r0, [r4, #76]	; 0x4c
 800e2b8:	f022 0203 	bic.w	r2, r2, #3
 800e2bc:	605a      	str	r2, [r3, #4]
 800e2be:	b140      	cbz	r0, 800e2d2 <HAL_SPI_IRQHandler+0xd6>
 800e2c0:	4b10      	ldr	r3, [pc, #64]	; (800e304 <HAL_SPI_IRQHandler+0x108>)
 800e2c2:	6503      	str	r3, [r0, #80]	; 0x50
 800e2c4:	f7fd fed4 	bl	800c070 <HAL_DMA_Abort_IT>
 800e2c8:	b118      	cbz	r0, 800e2d2 <HAL_SPI_IRQHandler+0xd6>
 800e2ca:	6d63      	ldr	r3, [r4, #84]	; 0x54
 800e2cc:	f043 0340 	orr.w	r3, r3, #64	; 0x40
 800e2d0:	6563      	str	r3, [r4, #84]	; 0x54
 800e2d2:	6ca0      	ldr	r0, [r4, #72]	; 0x48
 800e2d4:	b178      	cbz	r0, 800e2f6 <HAL_SPI_IRQHandler+0xfa>
 800e2d6:	4b0b      	ldr	r3, [pc, #44]	; (800e304 <HAL_SPI_IRQHandler+0x108>)
 800e2d8:	6503      	str	r3, [r0, #80]	; 0x50
 800e2da:	f7fd fec9 	bl	800c070 <HAL_DMA_Abort_IT>
 800e2de:	b150      	cbz	r0, 800e2f6 <HAL_SPI_IRQHandler+0xfa>
 800e2e0:	6d63      	ldr	r3, [r4, #84]	; 0x54
 800e2e2:	f043 0340 	orr.w	r3, r3, #64	; 0x40
 800e2e6:	6563      	str	r3, [r4, #84]	; 0x54
 800e2e8:	e005      	b.n	800e2f6 <HAL_SPI_IRQHandler+0xfa>
 800e2ea:	9101      	str	r1, [sp, #4]
 800e2ec:	68da      	ldr	r2, [r3, #12]
 800e2ee:	9201      	str	r2, [sp, #4]
 800e2f0:	689b      	ldr	r3, [r3, #8]
 800e2f2:	9301      	str	r3, [sp, #4]
 800e2f4:	9b01      	ldr	r3, [sp, #4]
 800e2f6:	b005      	add	sp, #20
 800e2f8:	bdf0      	pop	{r4, r5, r6, r7, pc}
 800e2fa:	4620      	mov	r0, r4
 800e2fc:	f7ff ff7d 	bl	800e1fa <HAL_SPI_ErrorCallback>
 800e300:	e7f9      	b.n	800e2f6 <HAL_SPI_IRQHandler+0xfa>
 800e302:	bf00      	nop
 800e304:	0800e309 	.word	0x0800e309

0800e308 <SPI_DMAAbortOnError>:
 800e308:	b508      	push	{r3, lr}
 800e30a:	6b80      	ldr	r0, [r0, #56]	; 0x38
 800e30c:	2300      	movs	r3, #0
 800e30e:	87c3      	strh	r3, [r0, #62]	; 0x3e
 800e310:	86c3      	strh	r3, [r0, #54]	; 0x36
 800e312:	f7ff ff72 	bl	800e1fa <HAL_SPI_ErrorCallback>
 800e316:	bd08      	pop	{r3, pc}

0800e318 <HAL_TIM_Base_Start_IT>:
 800e318:	f890 303d 	ldrb.w	r3, [r0, #61]	; 0x3d
 800e31c:	2b01      	cmp	r3, #1
 800e31e:	d128      	bne.n	800e372 <HAL_TIM_Base_Start_IT+0x5a>
 800e320:	2302      	movs	r3, #2
 800e322:	f880 303d 	strb.w	r3, [r0, #61]	; 0x3d
 800e326:	6803      	ldr	r3, [r0, #0]
 800e328:	68da      	ldr	r2, [r3, #12]
 800e32a:	f042 0201 	orr.w	r2, r2, #1
 800e32e:	60da      	str	r2, [r3, #12]
 800e330:	4a11      	ldr	r2, [pc, #68]	; (800e378 <HAL_TIM_Base_Start_IT+0x60>)
 800e332:	4293      	cmp	r3, r2
 800e334:	d012      	beq.n	800e35c <HAL_TIM_Base_Start_IT+0x44>
 800e336:	f1b3 4f80 	cmp.w	r3, #1073741824	; 0x40000000
 800e33a:	d00f      	beq.n	800e35c <HAL_TIM_Base_Start_IT+0x44>
 800e33c:	f5a2 427c 	sub.w	r2, r2, #64512	; 0xfc00
 800e340:	4293      	cmp	r3, r2
 800e342:	d00b      	beq.n	800e35c <HAL_TIM_Base_Start_IT+0x44>
 800e344:	f502 6280 	add.w	r2, r2, #1024	; 0x400
 800e348:	4293      	cmp	r3, r2
 800e34a:	d007      	beq.n	800e35c <HAL_TIM_Base_Start_IT+0x44>
 800e34c:	f502 6280 	add.w	r2, r2, #1024	; 0x400
 800e350:	4293      	cmp	r3, r2
 800e352:	d003      	beq.n	800e35c <HAL_TIM_Base_Start_IT+0x44>
 800e354:	f502 329a 	add.w	r2, r2, #78848	; 0x13400
 800e358:	4293      	cmp	r3, r2
 800e35a:	d104      	bne.n	800e366 <HAL_TIM_Base_Start_IT+0x4e>
 800e35c:	689a      	ldr	r2, [r3, #8]
 800e35e:	f002 0207 	and.w	r2, r2, #7
 800e362:	2a06      	cmp	r2, #6
 800e364:	d003      	beq.n	800e36e <HAL_TIM_Base_Start_IT+0x56>
 800e366:	681a      	ldr	r2, [r3, #0]
 800e368:	f042 0201 	orr.w	r2, r2, #1
 800e36c:	601a      	str	r2, [r3, #0]
 800e36e:	2000      	movs	r0, #0
 800e370:	4770      	bx	lr
 800e372:	2001      	movs	r0, #1
 800e374:	4770      	bx	lr
 800e376:	bf00      	nop
 800e378:	40010000 	.word	0x40010000

0800e37c <HAL_TIM_OC_DelayElapsedCallback>:
 800e37c:	4770      	bx	lr

0800e37e <HAL_TIM_IC_CaptureCallback>:
 800e37e:	4770      	bx	lr

0800e380 <HAL_TIM_PWM_PulseFinishedCallback>:
 800e380:	4770      	bx	lr

0800e382 <HAL_TIM_TriggerCallback>:
 800e382:	4770      	bx	lr

0800e384 <HAL_TIM_IRQHandler>:
 800e384:	6803      	ldr	r3, [r0, #0]
 800e386:	691a      	ldr	r2, [r3, #16]
 800e388:	0791      	lsls	r1, r2, #30
 800e38a:	b510      	push	{r4, lr}
 800e38c:	4604      	mov	r4, r0
 800e38e:	d50e      	bpl.n	800e3ae <HAL_TIM_IRQHandler+0x2a>
 800e390:	68da      	ldr	r2, [r3, #12]
 800e392:	0792      	lsls	r2, r2, #30
 800e394:	d50b      	bpl.n	800e3ae <HAL_TIM_IRQHandler+0x2a>
 800e396:	f06f 0202 	mvn.w	r2, #2
 800e39a:	611a      	str	r2, [r3, #16]
 800e39c:	2201      	movs	r2, #1
 800e39e:	7702      	strb	r2, [r0, #28]
 800e3a0:	699b      	ldr	r3, [r3, #24]
 800e3a2:	079b      	lsls	r3, r3, #30
 800e3a4:	d077      	beq.n	800e496 <HAL_TIM_IRQHandler+0x112>
 800e3a6:	f7ff ffea 	bl	800e37e <HAL_TIM_IC_CaptureCallback>
 800e3aa:	2300      	movs	r3, #0
 800e3ac:	7723      	strb	r3, [r4, #28]
 800e3ae:	6823      	ldr	r3, [r4, #0]
 800e3b0:	691a      	ldr	r2, [r3, #16]
 800e3b2:	0750      	lsls	r0, r2, #29
 800e3b4:	d510      	bpl.n	800e3d8 <HAL_TIM_IRQHandler+0x54>
 800e3b6:	68da      	ldr	r2, [r3, #12]
 800e3b8:	0751      	lsls	r1, r2, #29
 800e3ba:	d50d      	bpl.n	800e3d8 <HAL_TIM_IRQHandler+0x54>
 800e3bc:	f06f 0204 	mvn.w	r2, #4
 800e3c0:	611a      	str	r2, [r3, #16]
 800e3c2:	2202      	movs	r2, #2
 800e3c4:	7722      	strb	r2, [r4, #28]
 800e3c6:	699b      	ldr	r3, [r3, #24]
 800e3c8:	f413 7f40 	tst.w	r3, #768	; 0x300
 800e3cc:	4620      	mov	r0, r4
 800e3ce:	d068      	beq.n	800e4a2 <HAL_TIM_IRQHandler+0x11e>
 800e3d0:	f7ff ffd5 	bl	800e37e <HAL_TIM_IC_CaptureCallback>
 800e3d4:	2300      	movs	r3, #0
 800e3d6:	7723      	strb	r3, [r4, #28]
 800e3d8:	6823      	ldr	r3, [r4, #0]
 800e3da:	691a      	ldr	r2, [r3, #16]
 800e3dc:	0712      	lsls	r2, r2, #28
 800e3de:	d50f      	bpl.n	800e400 <HAL_TIM_IRQHandler+0x7c>
 800e3e0:	68da      	ldr	r2, [r3, #12]
 800e3e2:	0710      	lsls	r0, r2, #28
 800e3e4:	d50c      	bpl.n	800e400 <HAL_TIM_IRQHandler+0x7c>
 800e3e6:	f06f 0208 	mvn.w	r2, #8
 800e3ea:	611a      	str	r2, [r3, #16]
 800e3ec:	2204      	movs	r2, #4
 800e3ee:	7722      	strb	r2, [r4, #28]
 800e3f0:	69db      	ldr	r3, [r3, #28]
 800e3f2:	0799      	lsls	r1, r3, #30
 800e3f4:	4620      	mov	r0, r4
 800e3f6:	d05a      	beq.n	800e4ae <HAL_TIM_IRQHandler+0x12a>
 800e3f8:	f7ff ffc1 	bl	800e37e <HAL_TIM_IC_CaptureCallback>
 800e3fc:	2300      	movs	r3, #0
 800e3fe:	7723      	strb	r3, [r4, #28]
 800e400:	6823      	ldr	r3, [r4, #0]
 800e402:	691a      	ldr	r2, [r3, #16]
 800e404:	06d2      	lsls	r2, r2, #27
 800e406:	d510      	bpl.n	800e42a <HAL_TIM_IRQHandler+0xa6>
 800e408:	68da      	ldr	r2, [r3, #12]
 800e40a:	06d0      	lsls	r0, r2, #27
 800e40c:	d50d      	bpl.n	800e42a <HAL_TIM_IRQHandler+0xa6>
 800e40e:	f06f 0210 	mvn.w	r2, #16
 800e412:	611a      	str	r2, [r3, #16]
 800e414:	2208      	movs	r2, #8
 800e416:	7722      	strb	r2, [r4, #28]
 800e418:	69db      	ldr	r3, [r3, #28]
 800e41a:	f413 7f40 	tst.w	r3, #768	; 0x300
 800e41e:	4620      	mov	r0, r4
 800e420:	d04b      	beq.n	800e4ba <HAL_TIM_IRQHandler+0x136>
 800e422:	f7ff ffac 	bl	800e37e <HAL_TIM_IC_CaptureCallback>
 800e426:	2300      	movs	r3, #0
 800e428:	7723      	strb	r3, [r4, #28]
 800e42a:	6823      	ldr	r3, [r4, #0]
 800e42c:	691a      	ldr	r2, [r3, #16]
 800e42e:	07d1      	lsls	r1, r2, #31
 800e430:	d508      	bpl.n	800e444 <HAL_TIM_IRQHandler+0xc0>
 800e432:	68da      	ldr	r2, [r3, #12]
 800e434:	07d2      	lsls	r2, r2, #31
 800e436:	d505      	bpl.n	800e444 <HAL_TIM_IRQHandler+0xc0>
 800e438:	f06f 0201 	mvn.w	r2, #1
 800e43c:	611a      	str	r2, [r3, #16]
 800e43e:	4620      	mov	r0, r4
 800e440:	f7fc fc16 	bl	800ac70 <HAL_TIM_PeriodElapsedCallback>
 800e444:	6823      	ldr	r3, [r4, #0]
 800e446:	691a      	ldr	r2, [r3, #16]
 800e448:	0610      	lsls	r0, r2, #24
 800e44a:	d508      	bpl.n	800e45e <HAL_TIM_IRQHandler+0xda>
 800e44c:	68da      	ldr	r2, [r3, #12]
 800e44e:	0611      	lsls	r1, r2, #24
 800e450:	d505      	bpl.n	800e45e <HAL_TIM_IRQHandler+0xda>
 800e452:	f06f 0280 	mvn.w	r2, #128	; 0x80
 800e456:	611a      	str	r2, [r3, #16]
 800e458:	4620      	mov	r0, r4
 800e45a:	f000 f98c 	bl	800e776 <HAL_TIMEx_BreakCallback>
 800e45e:	6823      	ldr	r3, [r4, #0]
 800e460:	691a      	ldr	r2, [r3, #16]
 800e462:	0652      	lsls	r2, r2, #25
 800e464:	d508      	bpl.n	800e478 <HAL_TIM_IRQHandler+0xf4>
 800e466:	68da      	ldr	r2, [r3, #12]
 800e468:	0650      	lsls	r0, r2, #25
 800e46a:	d505      	bpl.n	800e478 <HAL_TIM_IRQHandler+0xf4>
 800e46c:	f06f 0240 	mvn.w	r2, #64	; 0x40
 800e470:	611a      	str	r2, [r3, #16]
 800e472:	4620      	mov	r0, r4
 800e474:	f7ff ff85 	bl	800e382 <HAL_TIM_TriggerCallback>
 800e478:	6823      	ldr	r3, [r4, #0]
 800e47a:	691a      	ldr	r2, [r3, #16]
 800e47c:	0691      	lsls	r1, r2, #26
 800e47e:	d522      	bpl.n	800e4c6 <HAL_TIM_IRQHandler+0x142>
 800e480:	68da      	ldr	r2, [r3, #12]
 800e482:	0692      	lsls	r2, r2, #26
 800e484:	d51f      	bpl.n	800e4c6 <HAL_TIM_IRQHandler+0x142>
 800e486:	f06f 0220 	mvn.w	r2, #32
 800e48a:	4620      	mov	r0, r4
 800e48c:	611a      	str	r2, [r3, #16]
 800e48e:	e8bd 4010 	ldmia.w	sp!, {r4, lr}
 800e492:	f000 b96f 	b.w	800e774 <HAL_TIMEx_CommutCallback>
 800e496:	f7ff ff71 	bl	800e37c <HAL_TIM_OC_DelayElapsedCallback>
 800e49a:	4620      	mov	r0, r4
 800e49c:	f7ff ff70 	bl	800e380 <HAL_TIM_PWM_PulseFinishedCallback>
 800e4a0:	e783      	b.n	800e3aa <HAL_TIM_IRQHandler+0x26>
 800e4a2:	f7ff ff6b 	bl	800e37c <HAL_TIM_OC_DelayElapsedCallback>
 800e4a6:	4620      	mov	r0, r4
 800e4a8:	f7ff ff6a 	bl	800e380 <HAL_TIM_PWM_PulseFinishedCallback>
 800e4ac:	e792      	b.n	800e3d4 <HAL_TIM_IRQHandler+0x50>
 800e4ae:	f7ff ff65 	bl	800e37c <HAL_TIM_OC_DelayElapsedCallback>
 800e4b2:	4620      	mov	r0, r4
 800e4b4:	f7ff ff64 	bl	800e380 <HAL_TIM_PWM_PulseFinishedCallback>
 800e4b8:	e7a0      	b.n	800e3fc <HAL_TIM_IRQHandler+0x78>
 800e4ba:	f7ff ff5f 	bl	800e37c <HAL_TIM_OC_DelayElapsedCallback>
 800e4be:	4620      	mov	r0, r4
 800e4c0:	f7ff ff5e 	bl	800e380 <HAL_TIM_PWM_PulseFinishedCallback>
 800e4c4:	e7af      	b.n	800e426 <HAL_TIM_IRQHandler+0xa2>
 800e4c6:	bd10      	pop	{r4, pc}

0800e4c8 <TIM_Base_SetConfig>:
 800e4c8:	4a24      	ldr	r2, [pc, #144]	; (800e55c <TIM_Base_SetConfig+0x94>)
 800e4ca:	6803      	ldr	r3, [r0, #0]
 800e4cc:	4290      	cmp	r0, r2
 800e4ce:	d00e      	beq.n	800e4ee <TIM_Base_SetConfig+0x26>
 800e4d0:	f1b0 4f80 	cmp.w	r0, #1073741824	; 0x40000000
 800e4d4:	d00b      	beq.n	800e4ee <TIM_Base_SetConfig+0x26>
 800e4d6:	f5a2 427c 	sub.w	r2, r2, #64512	; 0xfc00
 800e4da:	4290      	cmp	r0, r2
 800e4dc:	d007      	beq.n	800e4ee <TIM_Base_SetConfig+0x26>
 800e4de:	f502 6280 	add.w	r2, r2, #1024	; 0x400
 800e4e2:	4290      	cmp	r0, r2
 800e4e4:	d003      	beq.n	800e4ee <TIM_Base_SetConfig+0x26>
 800e4e6:	f502 6280 	add.w	r2, r2, #1024	; 0x400
 800e4ea:	4290      	cmp	r0, r2
 800e4ec:	d115      	bne.n	800e51a <TIM_Base_SetConfig+0x52>
 800e4ee:	684a      	ldr	r2, [r1, #4]
 800e4f0:	f023 0370 	bic.w	r3, r3, #112	; 0x70
 800e4f4:	4313      	orrs	r3, r2
 800e4f6:	4a19      	ldr	r2, [pc, #100]	; (800e55c <TIM_Base_SetConfig+0x94>)
 800e4f8:	4290      	cmp	r0, r2
 800e4fa:	d019      	beq.n	800e530 <TIM_Base_SetConfig+0x68>
 800e4fc:	f1b0 4f80 	cmp.w	r0, #1073741824	; 0x40000000
 800e500:	d016      	beq.n	800e530 <TIM_Base_SetConfig+0x68>
 800e502:	f5a2 427c 	sub.w	r2, r2, #64512	; 0xfc00
 800e506:	4290      	cmp	r0, r2
 800e508:	d012      	beq.n	800e530 <TIM_Base_SetConfig+0x68>
 800e50a:	f502 6280 	add.w	r2, r2, #1024	; 0x400
 800e50e:	4290      	cmp	r0, r2
 800e510:	d00e      	beq.n	800e530 <TIM_Base_SetConfig+0x68>
 800e512:	f502 6280 	add.w	r2, r2, #1024	; 0x400
 800e516:	4290      	cmp	r0, r2
 800e518:	d00a      	beq.n	800e530 <TIM_Base_SetConfig+0x68>
 800e51a:	4a11      	ldr	r2, [pc, #68]	; (800e560 <TIM_Base_SetConfig+0x98>)
 800e51c:	4290      	cmp	r0, r2
 800e51e:	d007      	beq.n	800e530 <TIM_Base_SetConfig+0x68>
 800e520:	f502 6280 	add.w	r2, r2, #1024	; 0x400
 800e524:	4290      	cmp	r0, r2
 800e526:	d003      	beq.n	800e530 <TIM_Base_SetConfig+0x68>
 800e528:	f502 6280 	add.w	r2, r2, #1024	; 0x400
 800e52c:	4290      	cmp	r0, r2
 800e52e:	d103      	bne.n	800e538 <TIM_Base_SetConfig+0x70>
 800e530:	68ca      	ldr	r2, [r1, #12]
 800e532:	f423 7340 	bic.w	r3, r3, #768	; 0x300
 800e536:	4313      	orrs	r3, r2
 800e538:	694a      	ldr	r2, [r1, #20]
 800e53a:	f023 0380 	bic.w	r3, r3, #128	; 0x80
 800e53e:	4313      	orrs	r3, r2
 800e540:	6003      	str	r3, [r0, #0]
 800e542:	688b      	ldr	r3, [r1, #8]
 800e544:	62c3      	str	r3, [r0, #44]	; 0x2c
 800e546:	680b      	ldr	r3, [r1, #0]
 800e548:	6283      	str	r3, [r0, #40]	; 0x28
 800e54a:	4b04      	ldr	r3, [pc, #16]	; (800e55c <TIM_Base_SetConfig+0x94>)
 800e54c:	4298      	cmp	r0, r3
 800e54e:	bf04      	itt	eq
 800e550:	690b      	ldreq	r3, [r1, #16]
 800e552:	6303      	streq	r3, [r0, #48]	; 0x30
 800e554:	2301      	movs	r3, #1
 800e556:	6143      	str	r3, [r0, #20]
 800e558:	4770      	bx	lr
 800e55a:	bf00      	nop
 800e55c:	40010000 	.word	0x40010000
 800e560:	40014000 	.word	0x40014000

0800e564 <HAL_TIM_Base_Init>:
 800e564:	b510      	push	{r4, lr}
 800e566:	4604      	mov	r4, r0
 800e568:	b330      	cbz	r0, 800e5b8 <HAL_TIM_Base_Init+0x54>
 800e56a:	f890 303d 	ldrb.w	r3, [r0, #61]	; 0x3d
 800e56e:	f003 02ff 	and.w	r2, r3, #255	; 0xff
 800e572:	b91b      	cbnz	r3, 800e57c <HAL_TIM_Base_Init+0x18>
 800e574:	f880 203c 	strb.w	r2, [r0, #60]	; 0x3c
 800e578:	f7fc ffa4 	bl	800b4c4 <HAL_TIM_Base_MspInit>
 800e57c:	2302      	movs	r3, #2
 800e57e:	6820      	ldr	r0, [r4, #0]
 800e580:	f884 303d 	strb.w	r3, [r4, #61]	; 0x3d
 800e584:	1d21      	adds	r1, r4, #4
 800e586:	f7ff ff9f 	bl	800e4c8 <TIM_Base_SetConfig>
 800e58a:	2301      	movs	r3, #1
 800e58c:	f884 3046 	strb.w	r3, [r4, #70]	; 0x46
 800e590:	2000      	movs	r0, #0
 800e592:	f884 303e 	strb.w	r3, [r4, #62]	; 0x3e
 800e596:	f884 303f 	strb.w	r3, [r4, #63]	; 0x3f
 800e59a:	f884 3040 	strb.w	r3, [r4, #64]	; 0x40
 800e59e:	f884 3041 	strb.w	r3, [r4, #65]	; 0x41
 800e5a2:	f884 3042 	strb.w	r3, [r4, #66]	; 0x42
 800e5a6:	f884 3043 	strb.w	r3, [r4, #67]	; 0x43
 800e5aa:	f884 3044 	strb.w	r3, [r4, #68]	; 0x44
 800e5ae:	f884 3045 	strb.w	r3, [r4, #69]	; 0x45
 800e5b2:	f884 303d 	strb.w	r3, [r4, #61]	; 0x3d
 800e5b6:	bd10      	pop	{r4, pc}
 800e5b8:	2001      	movs	r0, #1
 800e5ba:	e7fc      	b.n	800e5b6 <HAL_TIM_Base_Init+0x52>

0800e5bc <TIM_ETR_SetConfig>:
 800e5bc:	b510      	push	{r4, lr}
 800e5be:	6884      	ldr	r4, [r0, #8]
 800e5c0:	4311      	orrs	r1, r2
 800e5c2:	f424 447f 	bic.w	r4, r4, #65280	; 0xff00
 800e5c6:	ea41 2303 	orr.w	r3, r1, r3, lsl #8
 800e5ca:	4323      	orrs	r3, r4
 800e5cc:	6083      	str	r3, [r0, #8]
 800e5ce:	bd10      	pop	{r4, pc}

0800e5d0 <HAL_TIM_ConfigClockSource>:
 800e5d0:	b570      	push	{r4, r5, r6, lr}
 800e5d2:	f890 303c 	ldrb.w	r3, [r0, #60]	; 0x3c
 800e5d6:	2b01      	cmp	r3, #1
 800e5d8:	4604      	mov	r4, r0
 800e5da:	f04f 0302 	mov.w	r3, #2
 800e5de:	f000 8091 	beq.w	800e704 <HAL_TIM_ConfigClockSource+0x134>
 800e5e2:	2201      	movs	r2, #1
 800e5e4:	f880 303d 	strb.w	r3, [r0, #61]	; 0x3d
 800e5e8:	f880 203c 	strb.w	r2, [r0, #60]	; 0x3c
 800e5ec:	6800      	ldr	r0, [r0, #0]
 800e5ee:	6883      	ldr	r3, [r0, #8]
 800e5f0:	f423 437f 	bic.w	r3, r3, #65280	; 0xff00
 800e5f4:	f023 0377 	bic.w	r3, r3, #119	; 0x77
 800e5f8:	6083      	str	r3, [r0, #8]
 800e5fa:	680b      	ldr	r3, [r1, #0]
 800e5fc:	2b60      	cmp	r3, #96	; 0x60
 800e5fe:	d052      	beq.n	800e6a6 <HAL_TIM_ConfigClockSource+0xd6>
 800e600:	d833      	bhi.n	800e66a <HAL_TIM_ConfigClockSource+0x9a>
 800e602:	2b40      	cmp	r3, #64	; 0x40
 800e604:	d067      	beq.n	800e6d6 <HAL_TIM_ConfigClockSource+0x106>
 800e606:	d816      	bhi.n	800e636 <HAL_TIM_ConfigClockSource+0x66>
 800e608:	2b20      	cmp	r3, #32
 800e60a:	d00d      	beq.n	800e628 <HAL_TIM_ConfigClockSource+0x58>
 800e60c:	d80a      	bhi.n	800e624 <HAL_TIM_ConfigClockSource+0x54>
 800e60e:	f033 0110 	bics.w	r1, r3, #16
 800e612:	d009      	beq.n	800e628 <HAL_TIM_ConfigClockSource+0x58>
 800e614:	2301      	movs	r3, #1
 800e616:	f884 303d 	strb.w	r3, [r4, #61]	; 0x3d
 800e61a:	2300      	movs	r3, #0
 800e61c:	f884 303c 	strb.w	r3, [r4, #60]	; 0x3c
 800e620:	4610      	mov	r0, r2
 800e622:	bd70      	pop	{r4, r5, r6, pc}
 800e624:	2b30      	cmp	r3, #48	; 0x30
 800e626:	d1f5      	bne.n	800e614 <HAL_TIM_ConfigClockSource+0x44>
 800e628:	6882      	ldr	r2, [r0, #8]
 800e62a:	f022 0270 	bic.w	r2, r2, #112	; 0x70
 800e62e:	4313      	orrs	r3, r2
 800e630:	f043 0307 	orr.w	r3, r3, #7
 800e634:	e017      	b.n	800e666 <HAL_TIM_ConfigClockSource+0x96>
 800e636:	2b50      	cmp	r3, #80	; 0x50
 800e638:	d1ec      	bne.n	800e614 <HAL_TIM_ConfigClockSource+0x44>
 800e63a:	684a      	ldr	r2, [r1, #4]
 800e63c:	68ce      	ldr	r6, [r1, #12]
 800e63e:	6a01      	ldr	r1, [r0, #32]
 800e640:	6a05      	ldr	r5, [r0, #32]
 800e642:	f025 0501 	bic.w	r5, r5, #1
 800e646:	6205      	str	r5, [r0, #32]
 800e648:	6983      	ldr	r3, [r0, #24]
 800e64a:	f021 010a 	bic.w	r1, r1, #10
 800e64e:	f023 03f0 	bic.w	r3, r3, #240	; 0xf0
 800e652:	ea43 1306 	orr.w	r3, r3, r6, lsl #4
 800e656:	430a      	orrs	r2, r1
 800e658:	6183      	str	r3, [r0, #24]
 800e65a:	6202      	str	r2, [r0, #32]
 800e65c:	6883      	ldr	r3, [r0, #8]
 800e65e:	f023 0370 	bic.w	r3, r3, #112	; 0x70
 800e662:	f043 0357 	orr.w	r3, r3, #87	; 0x57
 800e666:	6083      	str	r3, [r0, #8]
 800e668:	e011      	b.n	800e68e <HAL_TIM_ConfigClockSource+0xbe>
 800e66a:	f5b3 5f80 	cmp.w	r3, #4096	; 0x1000
 800e66e:	d00e      	beq.n	800e68e <HAL_TIM_ConfigClockSource+0xbe>
 800e670:	f5b3 5f00 	cmp.w	r3, #8192	; 0x2000
 800e674:	d00d      	beq.n	800e692 <HAL_TIM_ConfigClockSource+0xc2>
 800e676:	2b70      	cmp	r3, #112	; 0x70
 800e678:	d1cc      	bne.n	800e614 <HAL_TIM_ConfigClockSource+0x44>
 800e67a:	68cb      	ldr	r3, [r1, #12]
 800e67c:	e9d1 2101 	ldrd	r2, r1, [r1, #4]
 800e680:	f7ff ff9c 	bl	800e5bc <TIM_ETR_SetConfig>
 800e684:	6822      	ldr	r2, [r4, #0]
 800e686:	6893      	ldr	r3, [r2, #8]
 800e688:	f043 0377 	orr.w	r3, r3, #119	; 0x77
 800e68c:	6093      	str	r3, [r2, #8]
 800e68e:	2200      	movs	r2, #0
 800e690:	e7c0      	b.n	800e614 <HAL_TIM_ConfigClockSource+0x44>
 800e692:	68cb      	ldr	r3, [r1, #12]
 800e694:	e9d1 2101 	ldrd	r2, r1, [r1, #4]
 800e698:	f7ff ff90 	bl	800e5bc <TIM_ETR_SetConfig>
 800e69c:	6822      	ldr	r2, [r4, #0]
 800e69e:	6893      	ldr	r3, [r2, #8]
 800e6a0:	f443 4380 	orr.w	r3, r3, #16384	; 0x4000
 800e6a4:	e7f2      	b.n	800e68c <HAL_TIM_ConfigClockSource+0xbc>
 800e6a6:	684d      	ldr	r5, [r1, #4]
 800e6a8:	68ce      	ldr	r6, [r1, #12]
 800e6aa:	6a01      	ldr	r1, [r0, #32]
 800e6ac:	f021 0110 	bic.w	r1, r1, #16
 800e6b0:	6201      	str	r1, [r0, #32]
 800e6b2:	6982      	ldr	r2, [r0, #24]
 800e6b4:	6a03      	ldr	r3, [r0, #32]
 800e6b6:	f422 4270 	bic.w	r2, r2, #61440	; 0xf000
 800e6ba:	f023 03a0 	bic.w	r3, r3, #160	; 0xa0
 800e6be:	ea43 1305 	orr.w	r3, r3, r5, lsl #4
 800e6c2:	ea42 3206 	orr.w	r2, r2, r6, lsl #12
 800e6c6:	6182      	str	r2, [r0, #24]
 800e6c8:	6203      	str	r3, [r0, #32]
 800e6ca:	6883      	ldr	r3, [r0, #8]
 800e6cc:	f023 0370 	bic.w	r3, r3, #112	; 0x70
 800e6d0:	f043 0367 	orr.w	r3, r3, #103	; 0x67
 800e6d4:	e7c7      	b.n	800e666 <HAL_TIM_ConfigClockSource+0x96>
 800e6d6:	684a      	ldr	r2, [r1, #4]
 800e6d8:	68ce      	ldr	r6, [r1, #12]
 800e6da:	6a01      	ldr	r1, [r0, #32]
 800e6dc:	6a05      	ldr	r5, [r0, #32]
 800e6de:	f025 0501 	bic.w	r5, r5, #1
 800e6e2:	6205      	str	r5, [r0, #32]
 800e6e4:	6983      	ldr	r3, [r0, #24]
 800e6e6:	f021 010a 	bic.w	r1, r1, #10
 800e6ea:	f023 03f0 	bic.w	r3, r3, #240	; 0xf0
 800e6ee:	ea43 1306 	orr.w	r3, r3, r6, lsl #4
 800e6f2:	430a      	orrs	r2, r1
 800e6f4:	6183      	str	r3, [r0, #24]
 800e6f6:	6202      	str	r2, [r0, #32]
 800e6f8:	6883      	ldr	r3, [r0, #8]
 800e6fa:	f023 0370 	bic.w	r3, r3, #112	; 0x70
 800e6fe:	f043 0347 	orr.w	r3, r3, #71	; 0x47
 800e702:	e7b0      	b.n	800e666 <HAL_TIM_ConfigClockSource+0x96>
 800e704:	461a      	mov	r2, r3
 800e706:	e78b      	b.n	800e620 <HAL_TIM_ConfigClockSource+0x50>

0800e708 <HAL_TIMEx_MasterConfigSynchronization>:
 800e708:	b530      	push	{r4, r5, lr}
 800e70a:	f890 303c 	ldrb.w	r3, [r0, #60]	; 0x3c
 800e70e:	2b01      	cmp	r3, #1
 800e710:	f04f 0302 	mov.w	r3, #2
 800e714:	d02a      	beq.n	800e76c <HAL_TIMEx_MasterConfigSynchronization+0x64>
 800e716:	f880 303d 	strb.w	r3, [r0, #61]	; 0x3d
 800e71a:	6803      	ldr	r3, [r0, #0]
 800e71c:	680d      	ldr	r5, [r1, #0]
 800e71e:	685c      	ldr	r4, [r3, #4]
 800e720:	689a      	ldr	r2, [r3, #8]
 800e722:	f024 0470 	bic.w	r4, r4, #112	; 0x70
 800e726:	432c      	orrs	r4, r5
 800e728:	605c      	str	r4, [r3, #4]
 800e72a:	4c11      	ldr	r4, [pc, #68]	; (800e770 <HAL_TIMEx_MasterConfigSynchronization+0x68>)
 800e72c:	42a3      	cmp	r3, r4
 800e72e:	d012      	beq.n	800e756 <HAL_TIMEx_MasterConfigSynchronization+0x4e>
 800e730:	f1b3 4f80 	cmp.w	r3, #1073741824	; 0x40000000
 800e734:	d00f      	beq.n	800e756 <HAL_TIMEx_MasterConfigSynchronization+0x4e>
 800e736:	f5a4 447c 	sub.w	r4, r4, #64512	; 0xfc00
 800e73a:	42a3      	cmp	r3, r4
 800e73c:	d00b      	beq.n	800e756 <HAL_TIMEx_MasterConfigSynchronization+0x4e>
 800e73e:	f504 6480 	add.w	r4, r4, #1024	; 0x400
 800e742:	42a3      	cmp	r3, r4
 800e744:	d007      	beq.n	800e756 <HAL_TIMEx_MasterConfigSynchronization+0x4e>
 800e746:	f504 6480 	add.w	r4, r4, #1024	; 0x400
 800e74a:	42a3      	cmp	r3, r4
 800e74c:	d003      	beq.n	800e756 <HAL_TIMEx_MasterConfigSynchronization+0x4e>
 800e74e:	f504 349a 	add.w	r4, r4, #78848	; 0x13400
 800e752:	42a3      	cmp	r3, r4
 800e754:	d104      	bne.n	800e760 <HAL_TIMEx_MasterConfigSynchronization+0x58>
 800e756:	6849      	ldr	r1, [r1, #4]
 800e758:	f022 0280 	bic.w	r2, r2, #128	; 0x80
 800e75c:	430a      	orrs	r2, r1
 800e75e:	609a      	str	r2, [r3, #8]
 800e760:	2301      	movs	r3, #1
 800e762:	f880 303d 	strb.w	r3, [r0, #61]	; 0x3d
 800e766:	2300      	movs	r3, #0
 800e768:	f880 303c 	strb.w	r3, [r0, #60]	; 0x3c
 800e76c:	4618      	mov	r0, r3
 800e76e:	bd30      	pop	{r4, r5, pc}
 800e770:	40010000 	.word	0x40010000

0800e774 <HAL_TIMEx_CommutCallback>:
 800e774:	4770      	bx	lr

0800e776 <HAL_TIMEx_BreakCallback>:
 800e776:	4770      	bx	lr

0800e778 <UART_EndRxTransfer>:
 800e778:	6802      	ldr	r2, [r0, #0]
 800e77a:	f102 030c 	add.w	r3, r2, #12
 800e77e:	e853 3f00 	ldrex	r3, [r3]
 800e782:	f423 7390 	bic.w	r3, r3, #288	; 0x120
 800e786:	320c      	adds	r2, #12
 800e788:	e842 3100 	strex	r1, r3, [r2]
 800e78c:	6802      	ldr	r2, [r0, #0]
 800e78e:	2900      	cmp	r1, #0
 800e790:	d1f2      	bne.n	800e778 <UART_EndRxTransfer>
 800e792:	f102 0314 	add.w	r3, r2, #20
 800e796:	e853 3f00 	ldrex	r3, [r3]
 800e79a:	f023 0301 	bic.w	r3, r3, #1
 800e79e:	f102 0c14 	add.w	ip, r2, #20
 800e7a2:	e84c 3100 	strex	r1, r3, [ip]
 800e7a6:	2900      	cmp	r1, #0
 800e7a8:	d1f3      	bne.n	800e792 <UART_EndRxTransfer+0x1a>
 800e7aa:	6b03      	ldr	r3, [r0, #48]	; 0x30
 800e7ac:	2b01      	cmp	r3, #1
 800e7ae:	d10b      	bne.n	800e7c8 <UART_EndRxTransfer+0x50>
 800e7b0:	f102 030c 	add.w	r3, r2, #12
 800e7b4:	e853 3f00 	ldrex	r3, [r3]
 800e7b8:	f023 0310 	bic.w	r3, r3, #16
 800e7bc:	f102 0c0c 	add.w	ip, r2, #12
 800e7c0:	e84c 3100 	strex	r1, r3, [ip]
 800e7c4:	2900      	cmp	r1, #0
 800e7c6:	d1f3      	bne.n	800e7b0 <UART_EndRxTransfer+0x38>
 800e7c8:	2320      	movs	r3, #32
 800e7ca:	f880 303e 	strb.w	r3, [r0, #62]	; 0x3e
 800e7ce:	2300      	movs	r3, #0
 800e7d0:	6303      	str	r3, [r0, #48]	; 0x30
 800e7d2:	4770      	bx	lr

0800e7d4 <UART_SetConfig>:
 800e7d4:	6802      	ldr	r2, [r0, #0]
 800e7d6:	68c1      	ldr	r1, [r0, #12]
 800e7d8:	b538      	push	{r3, r4, r5, lr}
 800e7da:	6913      	ldr	r3, [r2, #16]
 800e7dc:	f423 5340 	bic.w	r3, r3, #12288	; 0x3000
 800e7e0:	430b      	orrs	r3, r1
 800e7e2:	6113      	str	r3, [r2, #16]
 800e7e4:	4605      	mov	r5, r0
 800e7e6:	6883      	ldr	r3, [r0, #8]
 800e7e8:	6900      	ldr	r0, [r0, #16]
 800e7ea:	68d1      	ldr	r1, [r2, #12]
 800e7ec:	4303      	orrs	r3, r0
 800e7ee:	6968      	ldr	r0, [r5, #20]
 800e7f0:	4303      	orrs	r3, r0
 800e7f2:	69e8      	ldr	r0, [r5, #28]
 800e7f4:	f421 4116 	bic.w	r1, r1, #38400	; 0x9600
 800e7f8:	f021 010c 	bic.w	r1, r1, #12
 800e7fc:	4303      	orrs	r3, r0
 800e7fe:	430b      	orrs	r3, r1
 800e800:	60d3      	str	r3, [r2, #12]
 800e802:	6953      	ldr	r3, [r2, #20]
 800e804:	69a9      	ldr	r1, [r5, #24]
 800e806:	f423 7340 	bic.w	r3, r3, #768	; 0x300
 800e80a:	430b      	orrs	r3, r1
 800e80c:	6153      	str	r3, [r2, #20]
 800e80e:	4b1f      	ldr	r3, [pc, #124]	; (800e88c <UART_SetConfig+0xb8>)
 800e810:	429a      	cmp	r2, r3
 800e812:	d003      	beq.n	800e81c <UART_SetConfig+0x48>
 800e814:	f503 6380 	add.w	r3, r3, #1024	; 0x400
 800e818:	429a      	cmp	r2, r3
 800e81a:	d124      	bne.n	800e866 <UART_SetConfig+0x92>
 800e81c:	f7ff fb54 	bl	800dec8 <HAL_RCC_GetPCLK2Freq>
 800e820:	69ea      	ldr	r2, [r5, #28]
 800e822:	2319      	movs	r3, #25
 800e824:	f5b2 4f00 	cmp.w	r2, #32768	; 0x8000
 800e828:	fba0 0103 	umull	r0, r1, r0, r3
 800e82c:	e9d5 4300 	ldrd	r4, r3, [r5]
 800e830:	d11c      	bne.n	800e86c <UART_SetConfig+0x98>
 800e832:	461a      	mov	r2, r3
 800e834:	1892      	adds	r2, r2, r2
 800e836:	f04f 0300 	mov.w	r3, #0
 800e83a:	415b      	adcs	r3, r3
 800e83c:	f7fa fa0c 	bl	8008c58 <__aeabi_uldivmod>
 800e840:	2164      	movs	r1, #100	; 0x64
 800e842:	fbb0 f5f1 	udiv	r5, r0, r1
 800e846:	fb01 0315 	mls	r3, r1, r5, r0
 800e84a:	00db      	lsls	r3, r3, #3
 800e84c:	3332      	adds	r3, #50	; 0x32
 800e84e:	fbb3 f3f1 	udiv	r3, r3, r1
 800e852:	f003 0207 	and.w	r2, r3, #7
 800e856:	005b      	lsls	r3, r3, #1
 800e858:	eb02 1205 	add.w	r2, r2, r5, lsl #4
 800e85c:	f403 73f8 	and.w	r3, r3, #496	; 0x1f0
 800e860:	4413      	add	r3, r2
 800e862:	60a3      	str	r3, [r4, #8]
 800e864:	bd38      	pop	{r3, r4, r5, pc}
 800e866:	f7ff fb1f 	bl	800dea8 <HAL_RCC_GetPCLK1Freq>
 800e86a:	e7d9      	b.n	800e820 <UART_SetConfig+0x4c>
 800e86c:	009a      	lsls	r2, r3, #2
 800e86e:	0f9b      	lsrs	r3, r3, #30
 800e870:	f7fa f9f2 	bl	8008c58 <__aeabi_uldivmod>
 800e874:	2264      	movs	r2, #100	; 0x64
 800e876:	fbb0 f1f2 	udiv	r1, r0, r2
 800e87a:	fb02 0311 	mls	r3, r2, r1, r0
 800e87e:	011b      	lsls	r3, r3, #4
 800e880:	3332      	adds	r3, #50	; 0x32
 800e882:	fbb3 f3f2 	udiv	r3, r3, r2
 800e886:	eb03 1301 	add.w	r3, r3, r1, lsl #4
 800e88a:	e7ea      	b.n	800e862 <UART_SetConfig+0x8e>
 800e88c:	40011000 	.word	0x40011000

0800e890 <HAL_UART_Init>:
 800e890:	b510      	push	{r4, lr}
 800e892:	4604      	mov	r4, r0
 800e894:	b340      	cbz	r0, 800e8e8 <HAL_UART_Init+0x58>
 800e896:	f890 303d 	ldrb.w	r3, [r0, #61]	; 0x3d
 800e89a:	f003 02ff 	and.w	r2, r3, #255	; 0xff
 800e89e:	b91b      	cbnz	r3, 800e8a8 <HAL_UART_Init+0x18>
 800e8a0:	f880 203c 	strb.w	r2, [r0, #60]	; 0x3c
 800e8a4:	f7fc fe30 	bl	800b508 <HAL_UART_MspInit>
 800e8a8:	6822      	ldr	r2, [r4, #0]
 800e8aa:	2324      	movs	r3, #36	; 0x24
 800e8ac:	f884 303d 	strb.w	r3, [r4, #61]	; 0x3d
 800e8b0:	68d3      	ldr	r3, [r2, #12]
 800e8b2:	f423 5300 	bic.w	r3, r3, #8192	; 0x2000
 800e8b6:	60d3      	str	r3, [r2, #12]
 800e8b8:	4620      	mov	r0, r4
 800e8ba:	f7ff ff8b 	bl	800e7d4 <UART_SetConfig>
 800e8be:	6823      	ldr	r3, [r4, #0]
 800e8c0:	691a      	ldr	r2, [r3, #16]
 800e8c2:	f422 4290 	bic.w	r2, r2, #18432	; 0x4800
 800e8c6:	611a      	str	r2, [r3, #16]
 800e8c8:	695a      	ldr	r2, [r3, #20]
 800e8ca:	f022 022a 	bic.w	r2, r2, #42	; 0x2a
 800e8ce:	615a      	str	r2, [r3, #20]
 800e8d0:	68da      	ldr	r2, [r3, #12]
 800e8d2:	f442 5200 	orr.w	r2, r2, #8192	; 0x2000
 800e8d6:	60da      	str	r2, [r3, #12]
 800e8d8:	2000      	movs	r0, #0
 800e8da:	2320      	movs	r3, #32
 800e8dc:	6420      	str	r0, [r4, #64]	; 0x40
 800e8de:	f884 303d 	strb.w	r3, [r4, #61]	; 0x3d
 800e8e2:	f884 303e 	strb.w	r3, [r4, #62]	; 0x3e
 800e8e6:	bd10      	pop	{r4, pc}
 800e8e8:	2001      	movs	r0, #1
 800e8ea:	e7fc      	b.n	800e8e6 <HAL_UART_Init+0x56>

0800e8ec <HAL_UART_Transmit_DMA>:
 800e8ec:	b538      	push	{r3, r4, r5, lr}
 800e8ee:	4604      	mov	r4, r0
 800e8f0:	4613      	mov	r3, r2
 800e8f2:	f894 203d 	ldrb.w	r2, [r4, #61]	; 0x3d
 800e8f6:	2a20      	cmp	r2, #32
 800e8f8:	d132      	bne.n	800e960 <HAL_UART_Transmit_DMA+0x74>
 800e8fa:	b379      	cbz	r1, 800e95c <HAL_UART_Transmit_DMA+0x70>
 800e8fc:	b373      	cbz	r3, 800e95c <HAL_UART_Transmit_DMA+0x70>
 800e8fe:	f894 203c 	ldrb.w	r2, [r4, #60]	; 0x3c
 800e902:	2a01      	cmp	r2, #1
 800e904:	d02c      	beq.n	800e960 <HAL_UART_Transmit_DMA+0x74>
 800e906:	2201      	movs	r2, #1
 800e908:	f884 203c 	strb.w	r2, [r4, #60]	; 0x3c
 800e90c:	6b60      	ldr	r0, [r4, #52]	; 0x34
 800e90e:	84e3      	strh	r3, [r4, #38]	; 0x26
 800e910:	2500      	movs	r5, #0
 800e912:	2221      	movs	r2, #33	; 0x21
 800e914:	6425      	str	r5, [r4, #64]	; 0x40
 800e916:	f884 203d 	strb.w	r2, [r4, #61]	; 0x3d
 800e91a:	4a12      	ldr	r2, [pc, #72]	; (800e964 <HAL_UART_Transmit_DMA+0x78>)
 800e91c:	84a3      	strh	r3, [r4, #36]	; 0x24
 800e91e:	6221      	str	r1, [r4, #32]
 800e920:	63c2      	str	r2, [r0, #60]	; 0x3c
 800e922:	4a11      	ldr	r2, [pc, #68]	; (800e968 <HAL_UART_Transmit_DMA+0x7c>)
 800e924:	6402      	str	r2, [r0, #64]	; 0x40
 800e926:	4a11      	ldr	r2, [pc, #68]	; (800e96c <HAL_UART_Transmit_DMA+0x80>)
 800e928:	e9c0 2513 	strd	r2, r5, [r0, #76]	; 0x4c
 800e92c:	6822      	ldr	r2, [r4, #0]
 800e92e:	3204      	adds	r2, #4
 800e930:	f7fd fb20 	bl	800bf74 <HAL_DMA_Start_IT>
 800e934:	6823      	ldr	r3, [r4, #0]
 800e936:	f06f 0240 	mvn.w	r2, #64	; 0x40
 800e93a:	601a      	str	r2, [r3, #0]
 800e93c:	6822      	ldr	r2, [r4, #0]
 800e93e:	f884 503c 	strb.w	r5, [r4, #60]	; 0x3c
 800e942:	f102 0314 	add.w	r3, r2, #20
 800e946:	e853 3f00 	ldrex	r3, [r3]
 800e94a:	f043 0380 	orr.w	r3, r3, #128	; 0x80
 800e94e:	f102 0114 	add.w	r1, r2, #20
 800e952:	e841 3000 	strex	r0, r3, [r1]
 800e956:	2800      	cmp	r0, #0
 800e958:	d1f3      	bne.n	800e942 <HAL_UART_Transmit_DMA+0x56>
 800e95a:	bd38      	pop	{r3, r4, r5, pc}
 800e95c:	2001      	movs	r0, #1
 800e95e:	e7fc      	b.n	800e95a <HAL_UART_Transmit_DMA+0x6e>
 800e960:	2002      	movs	r0, #2
 800e962:	e7fa      	b.n	800e95a <HAL_UART_Transmit_DMA+0x6e>
 800e964:	0800e971 	.word	0x0800e971
 800e968:	0800e9bf 	.word	0x0800e9bf
 800e96c:	0800e9c9 	.word	0x0800e9c9

0800e970 <UART_DMATransmitCplt>:
 800e970:	b508      	push	{r3, lr}
 800e972:	4603      	mov	r3, r0
 800e974:	6b80      	ldr	r0, [r0, #56]	; 0x38
 800e976:	681b      	ldr	r3, [r3, #0]
 800e978:	681b      	ldr	r3, [r3, #0]
 800e97a:	f413 7380 	ands.w	r3, r3, #256	; 0x100
 800e97e:	d11a      	bne.n	800e9b6 <UART_DMATransmitCplt+0x46>
 800e980:	84c3      	strh	r3, [r0, #38]	; 0x26
 800e982:	6802      	ldr	r2, [r0, #0]
 800e984:	f102 0314 	add.w	r3, r2, #20
 800e988:	e853 3f00 	ldrex	r3, [r3]
 800e98c:	f023 0380 	bic.w	r3, r3, #128	; 0x80
 800e990:	3214      	adds	r2, #20
 800e992:	e842 3100 	strex	r1, r3, [r2]
 800e996:	6802      	ldr	r2, [r0, #0]
 800e998:	2900      	cmp	r1, #0
 800e99a:	d1f2      	bne.n	800e982 <UART_DMATransmitCplt+0x12>
 800e99c:	f102 030c 	add.w	r3, r2, #12
 800e9a0:	e853 3f00 	ldrex	r3, [r3]
 800e9a4:	f043 0340 	orr.w	r3, r3, #64	; 0x40
 800e9a8:	f102 000c 	add.w	r0, r2, #12
 800e9ac:	e840 3100 	strex	r1, r3, [r0]
 800e9b0:	2900      	cmp	r1, #0
 800e9b2:	d1f3      	bne.n	800e99c <UART_DMATransmitCplt+0x2c>
 800e9b4:	bd08      	pop	{r3, pc}
 800e9b6:	f7fc f929 	bl	800ac0c <HAL_UART_TxCpltCallback>
 800e9ba:	e7fb      	b.n	800e9b4 <UART_DMATransmitCplt+0x44>

0800e9bc <HAL_UART_TxHalfCpltCallback>:
 800e9bc:	4770      	bx	lr

0800e9be <UART_DMATxHalfCplt>:
 800e9be:	b508      	push	{r3, lr}
 800e9c0:	6b80      	ldr	r0, [r0, #56]	; 0x38
 800e9c2:	f7ff fffb 	bl	800e9bc <HAL_UART_TxHalfCpltCallback>
 800e9c6:	bd08      	pop	{r3, pc}

0800e9c8 <UART_DMAError>:
 800e9c8:	b508      	push	{r3, lr}
 800e9ca:	6b80      	ldr	r0, [r0, #56]	; 0x38
 800e9cc:	6803      	ldr	r3, [r0, #0]
 800e9ce:	695a      	ldr	r2, [r3, #20]
 800e9d0:	f890 103d 	ldrb.w	r1, [r0, #61]	; 0x3d
 800e9d4:	2921      	cmp	r1, #33	; 0x21
 800e9d6:	d112      	bne.n	800e9fe <UART_DMAError+0x36>
 800e9d8:	0612      	lsls	r2, r2, #24
 800e9da:	d510      	bpl.n	800e9fe <UART_DMAError+0x36>
 800e9dc:	2200      	movs	r2, #0
 800e9de:	84c2      	strh	r2, [r0, #38]	; 0x26
 800e9e0:	f103 020c 	add.w	r2, r3, #12
 800e9e4:	e852 2f00 	ldrex	r2, [r2]
 800e9e8:	f022 02c0 	bic.w	r2, r2, #192	; 0xc0
 800e9ec:	f103 0c0c 	add.w	ip, r3, #12
 800e9f0:	e84c 2100 	strex	r1, r2, [ip]
 800e9f4:	2900      	cmp	r1, #0
 800e9f6:	d1f3      	bne.n	800e9e0 <UART_DMAError+0x18>
 800e9f8:	2220      	movs	r2, #32
 800e9fa:	f880 203d 	strb.w	r2, [r0, #61]	; 0x3d
 800e9fe:	695b      	ldr	r3, [r3, #20]
 800ea00:	f890 203e 	ldrb.w	r2, [r0, #62]	; 0x3e
 800ea04:	2a22      	cmp	r2, #34	; 0x22
 800ea06:	d105      	bne.n	800ea14 <UART_DMAError+0x4c>
 800ea08:	065b      	lsls	r3, r3, #25
 800ea0a:	d503      	bpl.n	800ea14 <UART_DMAError+0x4c>
 800ea0c:	2300      	movs	r3, #0
 800ea0e:	85c3      	strh	r3, [r0, #46]	; 0x2e
 800ea10:	f7ff feb2 	bl	800e778 <UART_EndRxTransfer>
 800ea14:	6c03      	ldr	r3, [r0, #64]	; 0x40
 800ea16:	f043 0310 	orr.w	r3, r3, #16
 800ea1a:	6403      	str	r3, [r0, #64]	; 0x40
 800ea1c:	f7fc f8e4 	bl	800abe8 <HAL_UART_ErrorCallback>
 800ea20:	bd08      	pop	{r3, pc}

0800ea22 <UART_DMAAbortOnError>:
 800ea22:	b508      	push	{r3, lr}
 800ea24:	6b80      	ldr	r0, [r0, #56]	; 0x38
 800ea26:	2300      	movs	r3, #0
 800ea28:	85c3      	strh	r3, [r0, #46]	; 0x2e
 800ea2a:	84c3      	strh	r3, [r0, #38]	; 0x26
 800ea2c:	f7fc f8dc 	bl	800abe8 <HAL_UART_ErrorCallback>
 800ea30:	bd08      	pop	{r3, pc}

0800ea32 <HAL_UARTEx_RxEventCallback>:
 800ea32:	4770      	bx	lr

0800ea34 <UART_Receive_IT>:
 800ea34:	b513      	push	{r0, r1, r4, lr}
 800ea36:	f890 303e 	ldrb.w	r3, [r0, #62]	; 0x3e
 800ea3a:	2b22      	cmp	r3, #34	; 0x22
 800ea3c:	d153      	bne.n	800eae6 <UART_Receive_IT+0xb2>
 800ea3e:	6881      	ldr	r1, [r0, #8]
 800ea40:	6a83      	ldr	r3, [r0, #40]	; 0x28
 800ea42:	6802      	ldr	r2, [r0, #0]
 800ea44:	f5b1 5f80 	cmp.w	r1, #4096	; 0x1000
 800ea48:	d13d      	bne.n	800eac6 <UART_Receive_IT+0x92>
 800ea4a:	6901      	ldr	r1, [r0, #16]
 800ea4c:	2900      	cmp	r1, #0
 800ea4e:	d13d      	bne.n	800eacc <UART_Receive_IT+0x98>
 800ea50:	6852      	ldr	r2, [r2, #4]
 800ea52:	f3c2 0208 	ubfx	r2, r2, #0, #9
 800ea56:	f823 2b02 	strh.w	r2, [r3], #2
 800ea5a:	8dc4      	ldrh	r4, [r0, #46]	; 0x2e
 800ea5c:	6283      	str	r3, [r0, #40]	; 0x28
 800ea5e:	3c01      	subs	r4, #1
 800ea60:	b2a4      	uxth	r4, r4
 800ea62:	85c4      	strh	r4, [r0, #46]	; 0x2e
 800ea64:	2c00      	cmp	r4, #0
 800ea66:	d12c      	bne.n	800eac2 <UART_Receive_IT+0x8e>
 800ea68:	6803      	ldr	r3, [r0, #0]
 800ea6a:	68da      	ldr	r2, [r3, #12]
 800ea6c:	f022 0220 	bic.w	r2, r2, #32
 800ea70:	60da      	str	r2, [r3, #12]
 800ea72:	68da      	ldr	r2, [r3, #12]
 800ea74:	f422 7280 	bic.w	r2, r2, #256	; 0x100
 800ea78:	60da      	str	r2, [r3, #12]
 800ea7a:	695a      	ldr	r2, [r3, #20]
 800ea7c:	f022 0201 	bic.w	r2, r2, #1
 800ea80:	615a      	str	r2, [r3, #20]
 800ea82:	2320      	movs	r3, #32
 800ea84:	f880 303e 	strb.w	r3, [r0, #62]	; 0x3e
 800ea88:	6b03      	ldr	r3, [r0, #48]	; 0x30
 800ea8a:	2b01      	cmp	r3, #1
 800ea8c:	6803      	ldr	r3, [r0, #0]
 800ea8e:	d127      	bne.n	800eae0 <UART_Receive_IT+0xac>
 800ea90:	6304      	str	r4, [r0, #48]	; 0x30
 800ea92:	f103 020c 	add.w	r2, r3, #12
 800ea96:	e852 2f00 	ldrex	r2, [r2]
 800ea9a:	f022 0210 	bic.w	r2, r2, #16
 800ea9e:	f103 040c 	add.w	r4, r3, #12
 800eaa2:	e844 2100 	strex	r1, r2, [r4]
 800eaa6:	2900      	cmp	r1, #0
 800eaa8:	d1f3      	bne.n	800ea92 <UART_Receive_IT+0x5e>
 800eaaa:	681a      	ldr	r2, [r3, #0]
 800eaac:	06d2      	lsls	r2, r2, #27
 800eaae:	d505      	bpl.n	800eabc <UART_Receive_IT+0x88>
 800eab0:	9101      	str	r1, [sp, #4]
 800eab2:	681a      	ldr	r2, [r3, #0]
 800eab4:	9201      	str	r2, [sp, #4]
 800eab6:	685b      	ldr	r3, [r3, #4]
 800eab8:	9301      	str	r3, [sp, #4]
 800eaba:	9b01      	ldr	r3, [sp, #4]
 800eabc:	8d81      	ldrh	r1, [r0, #44]	; 0x2c
 800eabe:	f7ff ffb8 	bl	800ea32 <HAL_UARTEx_RxEventCallback>
 800eac2:	2000      	movs	r0, #0
 800eac4:	e010      	b.n	800eae8 <UART_Receive_IT+0xb4>
 800eac6:	b939      	cbnz	r1, 800ead8 <UART_Receive_IT+0xa4>
 800eac8:	6901      	ldr	r1, [r0, #16]
 800eaca:	b929      	cbnz	r1, 800ead8 <UART_Receive_IT+0xa4>
 800eacc:	6852      	ldr	r2, [r2, #4]
 800eace:	b2d2      	uxtb	r2, r2
 800ead0:	701a      	strb	r2, [r3, #0]
 800ead2:	6a83      	ldr	r3, [r0, #40]	; 0x28
 800ead4:	3301      	adds	r3, #1
 800ead6:	e7c0      	b.n	800ea5a <UART_Receive_IT+0x26>
 800ead8:	6852      	ldr	r2, [r2, #4]
 800eada:	f002 027f 	and.w	r2, r2, #127	; 0x7f
 800eade:	e7f7      	b.n	800ead0 <UART_Receive_IT+0x9c>
 800eae0:	f7fb ff2c 	bl	800a93c <HAL_UART_RxCpltCallback>
 800eae4:	e7ed      	b.n	800eac2 <UART_Receive_IT+0x8e>
 800eae6:	2002      	movs	r0, #2
 800eae8:	b002      	add	sp, #8
 800eaea:	bd10      	pop	{r4, pc}

0800eaec <HAL_UART_IRQHandler>:
 800eaec:	6803      	ldr	r3, [r0, #0]
 800eaee:	b537      	push	{r0, r1, r2, r4, r5, lr}
 800eaf0:	681a      	ldr	r2, [r3, #0]
 800eaf2:	68d9      	ldr	r1, [r3, #12]
 800eaf4:	695d      	ldr	r5, [r3, #20]
 800eaf6:	f012 0f0f 	tst.w	r2, #15
 800eafa:	4604      	mov	r4, r0
 800eafc:	d108      	bne.n	800eb10 <HAL_UART_IRQHandler+0x24>
 800eafe:	0695      	lsls	r5, r2, #26
 800eb00:	d568      	bpl.n	800ebd4 <HAL_UART_IRQHandler+0xe8>
 800eb02:	068d      	lsls	r5, r1, #26
 800eb04:	d566      	bpl.n	800ebd4 <HAL_UART_IRQHandler+0xe8>
 800eb06:	b003      	add	sp, #12
 800eb08:	e8bd 4030 	ldmia.w	sp!, {r4, r5, lr}
 800eb0c:	f7ff bf92 	b.w	800ea34 <UART_Receive_IT>
 800eb10:	f005 0001 	and.w	r0, r5, #1
 800eb14:	f401 7590 	and.w	r5, r1, #288	; 0x120
 800eb18:	4305      	orrs	r5, r0
 800eb1a:	d05b      	beq.n	800ebd4 <HAL_UART_IRQHandler+0xe8>
 800eb1c:	07d5      	lsls	r5, r2, #31
 800eb1e:	d505      	bpl.n	800eb2c <HAL_UART_IRQHandler+0x40>
 800eb20:	05cb      	lsls	r3, r1, #23
 800eb22:	bf42      	ittt	mi
 800eb24:	6c23      	ldrmi	r3, [r4, #64]	; 0x40
 800eb26:	f043 0301 	orrmi.w	r3, r3, #1
 800eb2a:	6423      	strmi	r3, [r4, #64]	; 0x40
 800eb2c:	0755      	lsls	r5, r2, #29
 800eb2e:	d504      	bpl.n	800eb3a <HAL_UART_IRQHandler+0x4e>
 800eb30:	b118      	cbz	r0, 800eb3a <HAL_UART_IRQHandler+0x4e>
 800eb32:	6c23      	ldr	r3, [r4, #64]	; 0x40
 800eb34:	f043 0302 	orr.w	r3, r3, #2
 800eb38:	6423      	str	r3, [r4, #64]	; 0x40
 800eb3a:	0793      	lsls	r3, r2, #30
 800eb3c:	d504      	bpl.n	800eb48 <HAL_UART_IRQHandler+0x5c>
 800eb3e:	b118      	cbz	r0, 800eb48 <HAL_UART_IRQHandler+0x5c>
 800eb40:	6c23      	ldr	r3, [r4, #64]	; 0x40
 800eb42:	f043 0304 	orr.w	r3, r3, #4
 800eb46:	6423      	str	r3, [r4, #64]	; 0x40
 800eb48:	0715      	lsls	r5, r2, #28
 800eb4a:	d507      	bpl.n	800eb5c <HAL_UART_IRQHandler+0x70>
 800eb4c:	f001 0320 	and.w	r3, r1, #32
 800eb50:	4303      	orrs	r3, r0
 800eb52:	bf1e      	ittt	ne
 800eb54:	6c23      	ldrne	r3, [r4, #64]	; 0x40
 800eb56:	f043 0308 	orrne.w	r3, r3, #8
 800eb5a:	6423      	strne	r3, [r4, #64]	; 0x40
 800eb5c:	6c23      	ldr	r3, [r4, #64]	; 0x40
 800eb5e:	2b00      	cmp	r3, #0
 800eb60:	d032      	beq.n	800ebc8 <HAL_UART_IRQHandler+0xdc>
 800eb62:	0690      	lsls	r0, r2, #26
 800eb64:	d504      	bpl.n	800eb70 <HAL_UART_IRQHandler+0x84>
 800eb66:	068a      	lsls	r2, r1, #26
 800eb68:	d502      	bpl.n	800eb70 <HAL_UART_IRQHandler+0x84>
 800eb6a:	4620      	mov	r0, r4
 800eb6c:	f7ff ff62 	bl	800ea34 <UART_Receive_IT>
 800eb70:	6823      	ldr	r3, [r4, #0]
 800eb72:	695b      	ldr	r3, [r3, #20]
 800eb74:	6c25      	ldr	r5, [r4, #64]	; 0x40
 800eb76:	f003 0340 	and.w	r3, r3, #64	; 0x40
 800eb7a:	f005 0508 	and.w	r5, r5, #8
 800eb7e:	431d      	orrs	r5, r3
 800eb80:	4620      	mov	r0, r4
 800eb82:	d023      	beq.n	800ebcc <HAL_UART_IRQHandler+0xe0>
 800eb84:	f7ff fdf8 	bl	800e778 <UART_EndRxTransfer>
 800eb88:	6822      	ldr	r2, [r4, #0]
 800eb8a:	6953      	ldr	r3, [r2, #20]
 800eb8c:	065b      	lsls	r3, r3, #25
 800eb8e:	d518      	bpl.n	800ebc2 <HAL_UART_IRQHandler+0xd6>
 800eb90:	f102 0314 	add.w	r3, r2, #20
 800eb94:	e853 3f00 	ldrex	r3, [r3]
 800eb98:	f023 0340 	bic.w	r3, r3, #64	; 0x40
 800eb9c:	f102 0014 	add.w	r0, r2, #20
 800eba0:	e840 3100 	strex	r1, r3, [r0]
 800eba4:	2900      	cmp	r1, #0
 800eba6:	d1f3      	bne.n	800eb90 <HAL_UART_IRQHandler+0xa4>
 800eba8:	6ba0      	ldr	r0, [r4, #56]	; 0x38
 800ebaa:	b150      	cbz	r0, 800ebc2 <HAL_UART_IRQHandler+0xd6>
 800ebac:	4b72      	ldr	r3, [pc, #456]	; (800ed78 <HAL_UART_IRQHandler+0x28c>)
 800ebae:	6503      	str	r3, [r0, #80]	; 0x50
 800ebb0:	f7fd fa5e 	bl	800c070 <HAL_DMA_Abort_IT>
 800ebb4:	b140      	cbz	r0, 800ebc8 <HAL_UART_IRQHandler+0xdc>
 800ebb6:	6ba0      	ldr	r0, [r4, #56]	; 0x38
 800ebb8:	6d03      	ldr	r3, [r0, #80]	; 0x50
 800ebba:	b003      	add	sp, #12
 800ebbc:	e8bd 4030 	ldmia.w	sp!, {r4, r5, lr}
 800ebc0:	4718      	bx	r3
 800ebc2:	4620      	mov	r0, r4
 800ebc4:	f7fc f810 	bl	800abe8 <HAL_UART_ErrorCallback>
 800ebc8:	b003      	add	sp, #12
 800ebca:	bd30      	pop	{r4, r5, pc}
 800ebcc:	f7fc f80c 	bl	800abe8 <HAL_UART_ErrorCallback>
 800ebd0:	6425      	str	r5, [r4, #64]	; 0x40
 800ebd2:	e7f9      	b.n	800ebc8 <HAL_UART_IRQHandler+0xdc>
 800ebd4:	6b20      	ldr	r0, [r4, #48]	; 0x30
 800ebd6:	2801      	cmp	r0, #1
 800ebd8:	f040 8091 	bne.w	800ecfe <HAL_UART_IRQHandler+0x212>
 800ebdc:	06d5      	lsls	r5, r2, #27
 800ebde:	f140 808e 	bpl.w	800ecfe <HAL_UART_IRQHandler+0x212>
 800ebe2:	06c8      	lsls	r0, r1, #27
 800ebe4:	f140 808b 	bpl.w	800ecfe <HAL_UART_IRQHandler+0x212>
 800ebe8:	2200      	movs	r2, #0
 800ebea:	9201      	str	r2, [sp, #4]
 800ebec:	681a      	ldr	r2, [r3, #0]
 800ebee:	9201      	str	r2, [sp, #4]
 800ebf0:	685a      	ldr	r2, [r3, #4]
 800ebf2:	9201      	str	r2, [sp, #4]
 800ebf4:	9a01      	ldr	r2, [sp, #4]
 800ebf6:	695a      	ldr	r2, [r3, #20]
 800ebf8:	0655      	lsls	r5, r2, #25
 800ebfa:	d54c      	bpl.n	800ec96 <HAL_UART_IRQHandler+0x1aa>
 800ebfc:	6ba1      	ldr	r1, [r4, #56]	; 0x38
 800ebfe:	680a      	ldr	r2, [r1, #0]
 800ec00:	6852      	ldr	r2, [r2, #4]
 800ec02:	b292      	uxth	r2, r2
 800ec04:	2a00      	cmp	r2, #0
 800ec06:	d0df      	beq.n	800ebc8 <HAL_UART_IRQHandler+0xdc>
 800ec08:	8da0      	ldrh	r0, [r4, #44]	; 0x2c
 800ec0a:	4290      	cmp	r0, r2
 800ec0c:	d9dc      	bls.n	800ebc8 <HAL_UART_IRQHandler+0xdc>
 800ec0e:	85e2      	strh	r2, [r4, #46]	; 0x2e
 800ec10:	69ca      	ldr	r2, [r1, #28]
 800ec12:	f5b2 7f80 	cmp.w	r2, #256	; 0x100
 800ec16:	d036      	beq.n	800ec86 <HAL_UART_IRQHandler+0x19a>
 800ec18:	f103 020c 	add.w	r2, r3, #12
 800ec1c:	e852 2f00 	ldrex	r2, [r2]
 800ec20:	f422 7280 	bic.w	r2, r2, #256	; 0x100
 800ec24:	f103 000c 	add.w	r0, r3, #12
 800ec28:	e840 2100 	strex	r1, r2, [r0]
 800ec2c:	2900      	cmp	r1, #0
 800ec2e:	d1f3      	bne.n	800ec18 <HAL_UART_IRQHandler+0x12c>
 800ec30:	f103 0214 	add.w	r2, r3, #20
 800ec34:	e852 2f00 	ldrex	r2, [r2]
 800ec38:	f022 0201 	bic.w	r2, r2, #1
 800ec3c:	f103 0014 	add.w	r0, r3, #20
 800ec40:	e840 2100 	strex	r1, r2, [r0]
 800ec44:	2900      	cmp	r1, #0
 800ec46:	d1f3      	bne.n	800ec30 <HAL_UART_IRQHandler+0x144>
 800ec48:	f103 0214 	add.w	r2, r3, #20
 800ec4c:	e852 2f00 	ldrex	r2, [r2]
 800ec50:	f022 0240 	bic.w	r2, r2, #64	; 0x40
 800ec54:	f103 0014 	add.w	r0, r3, #20
 800ec58:	e840 2100 	strex	r1, r2, [r0]
 800ec5c:	2900      	cmp	r1, #0
 800ec5e:	d1f3      	bne.n	800ec48 <HAL_UART_IRQHandler+0x15c>
 800ec60:	2220      	movs	r2, #32
 800ec62:	f884 203e 	strb.w	r2, [r4, #62]	; 0x3e
 800ec66:	6321      	str	r1, [r4, #48]	; 0x30
 800ec68:	f103 020c 	add.w	r2, r3, #12
 800ec6c:	e852 2f00 	ldrex	r2, [r2]
 800ec70:	f022 0210 	bic.w	r2, r2, #16
 800ec74:	f103 000c 	add.w	r0, r3, #12
 800ec78:	e840 2100 	strex	r1, r2, [r0]
 800ec7c:	2900      	cmp	r1, #0
 800ec7e:	d1f3      	bne.n	800ec68 <HAL_UART_IRQHandler+0x17c>
 800ec80:	6ba0      	ldr	r0, [r4, #56]	; 0x38
 800ec82:	f7fd f9b1 	bl	800bfe8 <HAL_DMA_Abort>
 800ec86:	8de3      	ldrh	r3, [r4, #46]	; 0x2e
 800ec88:	8da1      	ldrh	r1, [r4, #44]	; 0x2c
 800ec8a:	1ac9      	subs	r1, r1, r3
 800ec8c:	b289      	uxth	r1, r1
 800ec8e:	4620      	mov	r0, r4
 800ec90:	f7ff fecf 	bl	800ea32 <HAL_UARTEx_RxEventCallback>
 800ec94:	e798      	b.n	800ebc8 <HAL_UART_IRQHandler+0xdc>
 800ec96:	8de1      	ldrh	r1, [r4, #46]	; 0x2e
 800ec98:	b28a      	uxth	r2, r1
 800ec9a:	8de1      	ldrh	r1, [r4, #46]	; 0x2e
 800ec9c:	b289      	uxth	r1, r1
 800ec9e:	2900      	cmp	r1, #0
 800eca0:	d092      	beq.n	800ebc8 <HAL_UART_IRQHandler+0xdc>
 800eca2:	8da1      	ldrh	r1, [r4, #44]	; 0x2c
 800eca4:	1a89      	subs	r1, r1, r2
 800eca6:	b289      	uxth	r1, r1
 800eca8:	2900      	cmp	r1, #0
 800ecaa:	d08d      	beq.n	800ebc8 <HAL_UART_IRQHandler+0xdc>
 800ecac:	f103 020c 	add.w	r2, r3, #12
 800ecb0:	e852 2f00 	ldrex	r2, [r2]
 800ecb4:	f422 7290 	bic.w	r2, r2, #288	; 0x120
 800ecb8:	f103 050c 	add.w	r5, r3, #12
 800ecbc:	e845 2000 	strex	r0, r2, [r5]
 800ecc0:	2800      	cmp	r0, #0
 800ecc2:	d1f3      	bne.n	800ecac <HAL_UART_IRQHandler+0x1c0>
 800ecc4:	f103 0214 	add.w	r2, r3, #20
 800ecc8:	e852 2f00 	ldrex	r2, [r2]
 800eccc:	f022 0201 	bic.w	r2, r2, #1
 800ecd0:	f103 0514 	add.w	r5, r3, #20
 800ecd4:	e845 2000 	strex	r0, r2, [r5]
 800ecd8:	2800      	cmp	r0, #0
 800ecda:	d1f3      	bne.n	800ecc4 <HAL_UART_IRQHandler+0x1d8>
 800ecdc:	2220      	movs	r2, #32
 800ecde:	f884 203e 	strb.w	r2, [r4, #62]	; 0x3e
 800ece2:	6320      	str	r0, [r4, #48]	; 0x30
 800ece4:	f103 020c 	add.w	r2, r3, #12
 800ece8:	e852 2f00 	ldrex	r2, [r2]
 800ecec:	f022 0210 	bic.w	r2, r2, #16
 800ecf0:	f103 050c 	add.w	r5, r3, #12
 800ecf4:	e845 2000 	strex	r0, r2, [r5]
 800ecf8:	2800      	cmp	r0, #0
 800ecfa:	d1f3      	bne.n	800ece4 <HAL_UART_IRQHandler+0x1f8>
 800ecfc:	e7c7      	b.n	800ec8e <HAL_UART_IRQHandler+0x1a2>
 800ecfe:	0610      	lsls	r0, r2, #24
 800ed00:	d528      	bpl.n	800ed54 <HAL_UART_IRQHandler+0x268>
 800ed02:	060d      	lsls	r5, r1, #24
 800ed04:	d526      	bpl.n	800ed54 <HAL_UART_IRQHandler+0x268>
 800ed06:	f894 203d 	ldrb.w	r2, [r4, #61]	; 0x3d
 800ed0a:	2a21      	cmp	r2, #33	; 0x21
 800ed0c:	f47f af5c 	bne.w	800ebc8 <HAL_UART_IRQHandler+0xdc>
 800ed10:	68a1      	ldr	r1, [r4, #8]
 800ed12:	6a22      	ldr	r2, [r4, #32]
 800ed14:	f5b1 5f80 	cmp.w	r1, #4096	; 0x1000
 800ed18:	d117      	bne.n	800ed4a <HAL_UART_IRQHandler+0x25e>
 800ed1a:	6921      	ldr	r1, [r4, #16]
 800ed1c:	b9a9      	cbnz	r1, 800ed4a <HAL_UART_IRQHandler+0x25e>
 800ed1e:	f832 1b02 	ldrh.w	r1, [r2], #2
 800ed22:	f3c1 0108 	ubfx	r1, r1, #0, #9
 800ed26:	6059      	str	r1, [r3, #4]
 800ed28:	6222      	str	r2, [r4, #32]
 800ed2a:	8ce2      	ldrh	r2, [r4, #38]	; 0x26
 800ed2c:	3a01      	subs	r2, #1
 800ed2e:	b292      	uxth	r2, r2
 800ed30:	84e2      	strh	r2, [r4, #38]	; 0x26
 800ed32:	2a00      	cmp	r2, #0
 800ed34:	f47f af48 	bne.w	800ebc8 <HAL_UART_IRQHandler+0xdc>
 800ed38:	68da      	ldr	r2, [r3, #12]
 800ed3a:	f022 0280 	bic.w	r2, r2, #128	; 0x80
 800ed3e:	60da      	str	r2, [r3, #12]
 800ed40:	68da      	ldr	r2, [r3, #12]
 800ed42:	f042 0240 	orr.w	r2, r2, #64	; 0x40
 800ed46:	60da      	str	r2, [r3, #12]
 800ed48:	e73e      	b.n	800ebc8 <HAL_UART_IRQHandler+0xdc>
 800ed4a:	1c51      	adds	r1, r2, #1
 800ed4c:	6221      	str	r1, [r4, #32]
 800ed4e:	7812      	ldrb	r2, [r2, #0]
 800ed50:	605a      	str	r2, [r3, #4]
 800ed52:	e7ea      	b.n	800ed2a <HAL_UART_IRQHandler+0x23e>
 800ed54:	0650      	lsls	r0, r2, #25
 800ed56:	f57f af37 	bpl.w	800ebc8 <HAL_UART_IRQHandler+0xdc>
 800ed5a:	064a      	lsls	r2, r1, #25
 800ed5c:	f57f af34 	bpl.w	800ebc8 <HAL_UART_IRQHandler+0xdc>
 800ed60:	68da      	ldr	r2, [r3, #12]
 800ed62:	f022 0240 	bic.w	r2, r2, #64	; 0x40
 800ed66:	60da      	str	r2, [r3, #12]
 800ed68:	2320      	movs	r3, #32
 800ed6a:	f884 303d 	strb.w	r3, [r4, #61]	; 0x3d
 800ed6e:	4620      	mov	r0, r4
 800ed70:	f7fb ff4c 	bl	800ac0c <HAL_UART_TxCpltCallback>
 800ed74:	e728      	b.n	800ebc8 <HAL_UART_IRQHandler+0xdc>
 800ed76:	bf00      	nop
 800ed78:	0800ea23 	.word	0x0800ea23

0800ed7c <HAL_UART_GetState>:
 800ed7c:	f890 203d 	ldrb.w	r2, [r0, #61]	; 0x3d
 800ed80:	f890 003e 	ldrb.w	r0, [r0, #62]	; 0x3e
 800ed84:	4310      	orrs	r0, r2
 800ed86:	4770      	bx	lr

0800ed88 <UART_Start_Receive_IT>:
 800ed88:	85c2      	strh	r2, [r0, #46]	; 0x2e
 800ed8a:	8582      	strh	r2, [r0, #44]	; 0x2c
 800ed8c:	2322      	movs	r3, #34	; 0x22
 800ed8e:	2200      	movs	r2, #0
 800ed90:	6402      	str	r2, [r0, #64]	; 0x40
 800ed92:	f880 303e 	strb.w	r3, [r0, #62]	; 0x3e
 800ed96:	6803      	ldr	r3, [r0, #0]
 800ed98:	f880 203c 	strb.w	r2, [r0, #60]	; 0x3c
 800ed9c:	6281      	str	r1, [r0, #40]	; 0x28
 800ed9e:	68d9      	ldr	r1, [r3, #12]
 800eda0:	f441 7180 	orr.w	r1, r1, #256	; 0x100
 800eda4:	60d9      	str	r1, [r3, #12]
 800eda6:	6959      	ldr	r1, [r3, #20]
 800eda8:	f041 0101 	orr.w	r1, r1, #1
 800edac:	6159      	str	r1, [r3, #20]
 800edae:	68d9      	ldr	r1, [r3, #12]
 800edb0:	f041 0120 	orr.w	r1, r1, #32
 800edb4:	60d9      	str	r1, [r3, #12]
 800edb6:	4610      	mov	r0, r2
 800edb8:	4770      	bx	lr

0800edba <HAL_UART_Receive_IT>:
 800edba:	b470      	push	{r4, r5, r6}
 800edbc:	f890 603e 	ldrb.w	r6, [r0, #62]	; 0x3e
 800edc0:	2e20      	cmp	r6, #32
 800edc2:	d110      	bne.n	800ede6 <HAL_UART_Receive_IT+0x2c>
 800edc4:	b161      	cbz	r1, 800ede0 <HAL_UART_Receive_IT+0x26>
 800edc6:	b15a      	cbz	r2, 800ede0 <HAL_UART_Receive_IT+0x26>
 800edc8:	f890 403c 	ldrb.w	r4, [r0, #60]	; 0x3c
 800edcc:	2c01      	cmp	r4, #1
 800edce:	d00a      	beq.n	800ede6 <HAL_UART_Receive_IT+0x2c>
 800edd0:	2401      	movs	r4, #1
 800edd2:	f880 403c 	strb.w	r4, [r0, #60]	; 0x3c
 800edd6:	2400      	movs	r4, #0
 800edd8:	6304      	str	r4, [r0, #48]	; 0x30
 800edda:	bc70      	pop	{r4, r5, r6}
 800eddc:	f7ff bfd4 	b.w	800ed88 <UART_Start_Receive_IT>
 800ede0:	2001      	movs	r0, #1
 800ede2:	bc70      	pop	{r4, r5, r6}
 800ede4:	4770      	bx	lr
 800ede6:	2002      	movs	r0, #2
 800ede8:	e7fb      	b.n	800ede2 <HAL_UART_Receive_IT+0x28>

0800edea <atol>:
 800edea:	220a      	movs	r2, #10
 800edec:	2100      	movs	r1, #0
 800edee:	f000 bd9d 	b.w	800f92c <strtol>
	...

0800edf4 <__errno>:
 800edf4:	4b01      	ldr	r3, [pc, #4]	; (800edfc <__errno+0x8>)
 800edf6:	6818      	ldr	r0, [r3, #0]
 800edf8:	4770      	bx	lr
 800edfa:	bf00      	nop
 800edfc:	2000006c 	.word	0x2000006c

0800ee00 <__libc_init_array>:
 800ee00:	b570      	push	{r4, r5, r6, lr}
 800ee02:	4d0d      	ldr	r5, [pc, #52]	; (800ee38 <__libc_init_array+0x38>)
 800ee04:	4c0d      	ldr	r4, [pc, #52]	; (800ee3c <__libc_init_array+0x3c>)
 800ee06:	1b64      	subs	r4, r4, r5
 800ee08:	10a4      	asrs	r4, r4, #2
 800ee0a:	2600      	movs	r6, #0
 800ee0c:	42a6      	cmp	r6, r4
 800ee0e:	d109      	bne.n	800ee24 <__libc_init_array+0x24>
 800ee10:	4d0b      	ldr	r5, [pc, #44]	; (800ee40 <__libc_init_array+0x40>)
 800ee12:	4c0c      	ldr	r4, [pc, #48]	; (800ee44 <__libc_init_array+0x44>)
 800ee14:	f003 ff82 	bl	8012d1c <_init>
 800ee18:	1b64      	subs	r4, r4, r5
 800ee1a:	10a4      	asrs	r4, r4, #2
 800ee1c:	2600      	movs	r6, #0
 800ee1e:	42a6      	cmp	r6, r4
 800ee20:	d105      	bne.n	800ee2e <__libc_init_array+0x2e>
 800ee22:	bd70      	pop	{r4, r5, r6, pc}
 800ee24:	f855 3b04 	ldr.w	r3, [r5], #4
 800ee28:	4798      	blx	r3
 800ee2a:	3601      	adds	r6, #1
 800ee2c:	e7ee      	b.n	800ee0c <__libc_init_array+0xc>
 800ee2e:	f855 3b04 	ldr.w	r3, [r5], #4
 800ee32:	4798      	blx	r3
 800ee34:	3601      	adds	r6, #1
 800ee36:	e7f2      	b.n	800ee1e <__libc_init_array+0x1e>
 800ee38:	080170b8 	.word	0x080170b8
 800ee3c:	080170b8 	.word	0x080170b8
 800ee40:	080170b8 	.word	0x080170b8
 800ee44:	080170bc 	.word	0x080170bc

0800ee48 <memcpy>:
 800ee48:	440a      	add	r2, r1
 800ee4a:	4291      	cmp	r1, r2
 800ee4c:	f100 33ff 	add.w	r3, r0, #4294967295	; 0xffffffff
 800ee50:	d100      	bne.n	800ee54 <memcpy+0xc>
 800ee52:	4770      	bx	lr
 800ee54:	b510      	push	{r4, lr}
 800ee56:	f811 4b01 	ldrb.w	r4, [r1], #1
 800ee5a:	f803 4f01 	strb.w	r4, [r3, #1]!
 800ee5e:	4291      	cmp	r1, r2
 800ee60:	d1f9      	bne.n	800ee56 <memcpy+0xe>
 800ee62:	bd10      	pop	{r4, pc}

0800ee64 <memset>:
 800ee64:	4402      	add	r2, r0
 800ee66:	4603      	mov	r3, r0
 800ee68:	4293      	cmp	r3, r2
 800ee6a:	d100      	bne.n	800ee6e <memset+0xa>
 800ee6c:	4770      	bx	lr
 800ee6e:	f803 1b01 	strb.w	r1, [r3], #1
 800ee72:	e7f9      	b.n	800ee68 <memset+0x4>

0800ee74 <__cvt>:
 800ee74:	e92d 47ff 	stmdb	sp!, {r0, r1, r2, r3, r4, r5, r6, r7, r8, r9, sl, lr}
 800ee78:	ec55 4b10 	vmov	r4, r5, d0
 800ee7c:	2d00      	cmp	r5, #0
 800ee7e:	460e      	mov	r6, r1
 800ee80:	4619      	mov	r1, r3
 800ee82:	462b      	mov	r3, r5
 800ee84:	bfbb      	ittet	lt
 800ee86:	f105 4300 	addlt.w	r3, r5, #2147483648	; 0x80000000
 800ee8a:	461d      	movlt	r5, r3
 800ee8c:	2300      	movge	r3, #0
 800ee8e:	232d      	movlt	r3, #45	; 0x2d
 800ee90:	700b      	strb	r3, [r1, #0]
 800ee92:	9b0d      	ldr	r3, [sp, #52]	; 0x34
 800ee94:	f8dd a030 	ldr.w	sl, [sp, #48]	; 0x30
 800ee98:	4691      	mov	r9, r2
 800ee9a:	f023 0820 	bic.w	r8, r3, #32
 800ee9e:	bfbc      	itt	lt
 800eea0:	4622      	movlt	r2, r4
 800eea2:	4614      	movlt	r4, r2
 800eea4:	f1b8 0f46 	cmp.w	r8, #70	; 0x46
 800eea8:	d005      	beq.n	800eeb6 <__cvt+0x42>
 800eeaa:	f1b8 0f45 	cmp.w	r8, #69	; 0x45
 800eeae:	d100      	bne.n	800eeb2 <__cvt+0x3e>
 800eeb0:	3601      	adds	r6, #1
 800eeb2:	2102      	movs	r1, #2
 800eeb4:	e000      	b.n	800eeb8 <__cvt+0x44>
 800eeb6:	2103      	movs	r1, #3
 800eeb8:	ab03      	add	r3, sp, #12
 800eeba:	9301      	str	r3, [sp, #4]
 800eebc:	ab02      	add	r3, sp, #8
 800eebe:	9300      	str	r3, [sp, #0]
 800eec0:	ec45 4b10 	vmov	d0, r4, r5
 800eec4:	4653      	mov	r3, sl
 800eec6:	4632      	mov	r2, r6
 800eec8:	f000 fe02 	bl	800fad0 <_dtoa_r>
 800eecc:	f1b8 0f47 	cmp.w	r8, #71	; 0x47
 800eed0:	4607      	mov	r7, r0
 800eed2:	d102      	bne.n	800eeda <__cvt+0x66>
 800eed4:	f019 0f01 	tst.w	r9, #1
 800eed8:	d022      	beq.n	800ef20 <__cvt+0xac>
 800eeda:	f1b8 0f46 	cmp.w	r8, #70	; 0x46
 800eede:	eb07 0906 	add.w	r9, r7, r6
 800eee2:	d110      	bne.n	800ef06 <__cvt+0x92>
 800eee4:	783b      	ldrb	r3, [r7, #0]
 800eee6:	2b30      	cmp	r3, #48	; 0x30
 800eee8:	d10a      	bne.n	800ef00 <__cvt+0x8c>
 800eeea:	2200      	movs	r2, #0
 800eeec:	2300      	movs	r3, #0
 800eeee:	4620      	mov	r0, r4
 800eef0:	4629      	mov	r1, r5
 800eef2:	f7f9 fdf1 	bl	8008ad8 <__aeabi_dcmpeq>
 800eef6:	b918      	cbnz	r0, 800ef00 <__cvt+0x8c>
 800eef8:	f1c6 0601 	rsb	r6, r6, #1
 800eefc:	f8ca 6000 	str.w	r6, [sl]
 800ef00:	f8da 3000 	ldr.w	r3, [sl]
 800ef04:	4499      	add	r9, r3
 800ef06:	2200      	movs	r2, #0
 800ef08:	2300      	movs	r3, #0
 800ef0a:	4620      	mov	r0, r4
 800ef0c:	4629      	mov	r1, r5
 800ef0e:	f7f9 fde3 	bl	8008ad8 <__aeabi_dcmpeq>
 800ef12:	b108      	cbz	r0, 800ef18 <__cvt+0xa4>
 800ef14:	f8cd 900c 	str.w	r9, [sp, #12]
 800ef18:	2230      	movs	r2, #48	; 0x30
 800ef1a:	9b03      	ldr	r3, [sp, #12]
 800ef1c:	454b      	cmp	r3, r9
 800ef1e:	d307      	bcc.n	800ef30 <__cvt+0xbc>
 800ef20:	9b03      	ldr	r3, [sp, #12]
 800ef22:	9a0e      	ldr	r2, [sp, #56]	; 0x38
 800ef24:	1bdb      	subs	r3, r3, r7
 800ef26:	4638      	mov	r0, r7
 800ef28:	6013      	str	r3, [r2, #0]
 800ef2a:	b004      	add	sp, #16
 800ef2c:	e8bd 87f0 	ldmia.w	sp!, {r4, r5, r6, r7, r8, r9, sl, pc}
 800ef30:	1c59      	adds	r1, r3, #1
 800ef32:	9103      	str	r1, [sp, #12]
 800ef34:	701a      	strb	r2, [r3, #0]
 800ef36:	e7f0      	b.n	800ef1a <__cvt+0xa6>

0800ef38 <__exponent>:
 800ef38:	b5f7      	push	{r0, r1, r2, r4, r5, r6, r7, lr}
 800ef3a:	4603      	mov	r3, r0
 800ef3c:	2900      	cmp	r1, #0
 800ef3e:	bfb8      	it	lt
 800ef40:	4249      	neglt	r1, r1
 800ef42:	f803 2b02 	strb.w	r2, [r3], #2
 800ef46:	bfb4      	ite	lt
 800ef48:	222d      	movlt	r2, #45	; 0x2d
 800ef4a:	222b      	movge	r2, #43	; 0x2b
 800ef4c:	2909      	cmp	r1, #9
 800ef4e:	7042      	strb	r2, [r0, #1]
 800ef50:	dd2a      	ble.n	800efa8 <__exponent+0x70>
 800ef52:	f10d 0407 	add.w	r4, sp, #7
 800ef56:	46a4      	mov	ip, r4
 800ef58:	270a      	movs	r7, #10
 800ef5a:	46a6      	mov	lr, r4
 800ef5c:	460a      	mov	r2, r1
 800ef5e:	fb91 f6f7 	sdiv	r6, r1, r7
 800ef62:	fb07 1516 	mls	r5, r7, r6, r1
 800ef66:	3530      	adds	r5, #48	; 0x30
 800ef68:	2a63      	cmp	r2, #99	; 0x63
 800ef6a:	f104 34ff 	add.w	r4, r4, #4294967295	; 0xffffffff
 800ef6e:	f80e 5c01 	strb.w	r5, [lr, #-1]
 800ef72:	4631      	mov	r1, r6
 800ef74:	dcf1      	bgt.n	800ef5a <__exponent+0x22>
 800ef76:	3130      	adds	r1, #48	; 0x30
 800ef78:	f1ae 0502 	sub.w	r5, lr, #2
 800ef7c:	f804 1c01 	strb.w	r1, [r4, #-1]
 800ef80:	1c44      	adds	r4, r0, #1
 800ef82:	4629      	mov	r1, r5
 800ef84:	4561      	cmp	r1, ip
 800ef86:	d30a      	bcc.n	800ef9e <__exponent+0x66>
 800ef88:	f10d 0209 	add.w	r2, sp, #9
 800ef8c:	eba2 020e 	sub.w	r2, r2, lr
 800ef90:	4565      	cmp	r5, ip
 800ef92:	bf88      	it	hi
 800ef94:	2200      	movhi	r2, #0
 800ef96:	4413      	add	r3, r2
 800ef98:	1a18      	subs	r0, r3, r0
 800ef9a:	b003      	add	sp, #12
 800ef9c:	bdf0      	pop	{r4, r5, r6, r7, pc}
 800ef9e:	f811 2b01 	ldrb.w	r2, [r1], #1
 800efa2:	f804 2f01 	strb.w	r2, [r4, #1]!
 800efa6:	e7ed      	b.n	800ef84 <__exponent+0x4c>
 800efa8:	2330      	movs	r3, #48	; 0x30
 800efaa:	3130      	adds	r1, #48	; 0x30
 800efac:	7083      	strb	r3, [r0, #2]
 800efae:	70c1      	strb	r1, [r0, #3]
 800efb0:	1d03      	adds	r3, r0, #4
 800efb2:	e7f1      	b.n	800ef98 <__exponent+0x60>

0800efb4 <_printf_float>:
 800efb4:	e92d 4ff0 	stmdb	sp!, {r4, r5, r6, r7, r8, r9, sl, fp, lr}
 800efb8:	ed2d 8b02 	vpush	{d8}
 800efbc:	b08d      	sub	sp, #52	; 0x34
 800efbe:	460c      	mov	r4, r1
 800efc0:	f8dd 8060 	ldr.w	r8, [sp, #96]	; 0x60
 800efc4:	4616      	mov	r6, r2
 800efc6:	461f      	mov	r7, r3
 800efc8:	4605      	mov	r5, r0
 800efca:	f001 fb6d 	bl	80106a8 <_localeconv_r>
 800efce:	f8d0 a000 	ldr.w	sl, [r0]
 800efd2:	4650      	mov	r0, sl
 800efd4:	f7f9 f904 	bl	80081e0 <strlen>
 800efd8:	2300      	movs	r3, #0
 800efda:	930a      	str	r3, [sp, #40]	; 0x28
 800efdc:	6823      	ldr	r3, [r4, #0]
 800efde:	9305      	str	r3, [sp, #20]
 800efe0:	f8d8 3000 	ldr.w	r3, [r8]
 800efe4:	f894 b018 	ldrb.w	fp, [r4, #24]
 800efe8:	3307      	adds	r3, #7
 800efea:	f023 0307 	bic.w	r3, r3, #7
 800efee:	f103 0208 	add.w	r2, r3, #8
 800eff2:	f8c8 2000 	str.w	r2, [r8]
 800eff6:	e9d3 2300 	ldrd	r2, r3, [r3]
 800effa:	e9c4 2312 	strd	r2, r3, [r4, #72]	; 0x48
 800effe:	e9d4 8912 	ldrd	r8, r9, [r4, #72]	; 0x48
 800f002:	f029 4300 	bic.w	r3, r9, #2147483648	; 0x80000000
 800f006:	9307      	str	r3, [sp, #28]
 800f008:	f8cd 8018 	str.w	r8, [sp, #24]
 800f00c:	ee08 0a10 	vmov	s16, r0
 800f010:	4b9f      	ldr	r3, [pc, #636]	; (800f290 <_printf_float+0x2dc>)
 800f012:	e9dd 0106 	ldrd	r0, r1, [sp, #24]
 800f016:	f04f 32ff 	mov.w	r2, #4294967295	; 0xffffffff
 800f01a:	f7f9 fd8f 	bl	8008b3c <__aeabi_dcmpun>
 800f01e:	bb88      	cbnz	r0, 800f084 <_printf_float+0xd0>
 800f020:	e9dd 0106 	ldrd	r0, r1, [sp, #24]
 800f024:	4b9a      	ldr	r3, [pc, #616]	; (800f290 <_printf_float+0x2dc>)
 800f026:	f04f 32ff 	mov.w	r2, #4294967295	; 0xffffffff
 800f02a:	f7f9 fd69 	bl	8008b00 <__aeabi_dcmple>
 800f02e:	bb48      	cbnz	r0, 800f084 <_printf_float+0xd0>
 800f030:	2200      	movs	r2, #0
 800f032:	2300      	movs	r3, #0
 800f034:	4640      	mov	r0, r8
 800f036:	4649      	mov	r1, r9
 800f038:	f7f9 fd58 	bl	8008aec <__aeabi_dcmplt>
 800f03c:	b110      	cbz	r0, 800f044 <_printf_float+0x90>
 800f03e:	232d      	movs	r3, #45	; 0x2d
 800f040:	f884 3043 	strb.w	r3, [r4, #67]	; 0x43
 800f044:	4b93      	ldr	r3, [pc, #588]	; (800f294 <_printf_float+0x2e0>)
 800f046:	4894      	ldr	r0, [pc, #592]	; (800f298 <_printf_float+0x2e4>)
 800f048:	f1bb 0f47 	cmp.w	fp, #71	; 0x47
 800f04c:	bf94      	ite	ls
 800f04e:	4698      	movls	r8, r3
 800f050:	4680      	movhi	r8, r0
 800f052:	2303      	movs	r3, #3
 800f054:	6123      	str	r3, [r4, #16]
 800f056:	9b05      	ldr	r3, [sp, #20]
 800f058:	f023 0204 	bic.w	r2, r3, #4
 800f05c:	6022      	str	r2, [r4, #0]
 800f05e:	f04f 0900 	mov.w	r9, #0
 800f062:	9700      	str	r7, [sp, #0]
 800f064:	4633      	mov	r3, r6
 800f066:	aa0b      	add	r2, sp, #44	; 0x2c
 800f068:	4621      	mov	r1, r4
 800f06a:	4628      	mov	r0, r5
 800f06c:	f000 f9d8 	bl	800f420 <_printf_common>
 800f070:	3001      	adds	r0, #1
 800f072:	f040 8090 	bne.w	800f196 <_printf_float+0x1e2>
 800f076:	f04f 30ff 	mov.w	r0, #4294967295	; 0xffffffff
 800f07a:	b00d      	add	sp, #52	; 0x34
 800f07c:	ecbd 8b02 	vpop	{d8}
 800f080:	e8bd 8ff0 	ldmia.w	sp!, {r4, r5, r6, r7, r8, r9, sl, fp, pc}
 800f084:	4642      	mov	r2, r8
 800f086:	464b      	mov	r3, r9
 800f088:	4640      	mov	r0, r8
 800f08a:	4649      	mov	r1, r9
 800f08c:	f7f9 fd56 	bl	8008b3c <__aeabi_dcmpun>
 800f090:	b140      	cbz	r0, 800f0a4 <_printf_float+0xf0>
 800f092:	464b      	mov	r3, r9
 800f094:	2b00      	cmp	r3, #0
 800f096:	bfbc      	itt	lt
 800f098:	232d      	movlt	r3, #45	; 0x2d
 800f09a:	f884 3043 	strblt.w	r3, [r4, #67]	; 0x43
 800f09e:	487f      	ldr	r0, [pc, #508]	; (800f29c <_printf_float+0x2e8>)
 800f0a0:	4b7f      	ldr	r3, [pc, #508]	; (800f2a0 <_printf_float+0x2ec>)
 800f0a2:	e7d1      	b.n	800f048 <_printf_float+0x94>
 800f0a4:	6863      	ldr	r3, [r4, #4]
 800f0a6:	f00b 02df 	and.w	r2, fp, #223	; 0xdf
 800f0aa:	9206      	str	r2, [sp, #24]
 800f0ac:	1c5a      	adds	r2, r3, #1
 800f0ae:	d13f      	bne.n	800f130 <_printf_float+0x17c>
 800f0b0:	2306      	movs	r3, #6
 800f0b2:	6063      	str	r3, [r4, #4]
 800f0b4:	9b05      	ldr	r3, [sp, #20]
 800f0b6:	6861      	ldr	r1, [r4, #4]
 800f0b8:	f443 6280 	orr.w	r2, r3, #1024	; 0x400
 800f0bc:	2300      	movs	r3, #0
 800f0be:	9303      	str	r3, [sp, #12]
 800f0c0:	ab0a      	add	r3, sp, #40	; 0x28
 800f0c2:	e9cd b301 	strd	fp, r3, [sp, #4]
 800f0c6:	ab09      	add	r3, sp, #36	; 0x24
 800f0c8:	ec49 8b10 	vmov	d0, r8, r9
 800f0cc:	9300      	str	r3, [sp, #0]
 800f0ce:	6022      	str	r2, [r4, #0]
 800f0d0:	f10d 0323 	add.w	r3, sp, #35	; 0x23
 800f0d4:	4628      	mov	r0, r5
 800f0d6:	f7ff fecd 	bl	800ee74 <__cvt>
 800f0da:	9b06      	ldr	r3, [sp, #24]
 800f0dc:	9909      	ldr	r1, [sp, #36]	; 0x24
 800f0de:	2b47      	cmp	r3, #71	; 0x47
 800f0e0:	4680      	mov	r8, r0
 800f0e2:	d108      	bne.n	800f0f6 <_printf_float+0x142>
 800f0e4:	1cc8      	adds	r0, r1, #3
 800f0e6:	db02      	blt.n	800f0ee <_printf_float+0x13a>
 800f0e8:	6863      	ldr	r3, [r4, #4]
 800f0ea:	4299      	cmp	r1, r3
 800f0ec:	dd41      	ble.n	800f172 <_printf_float+0x1be>
 800f0ee:	f1ab 0b02 	sub.w	fp, fp, #2
 800f0f2:	fa5f fb8b 	uxtb.w	fp, fp
 800f0f6:	f1bb 0f65 	cmp.w	fp, #101	; 0x65
 800f0fa:	d820      	bhi.n	800f13e <_printf_float+0x18a>
 800f0fc:	3901      	subs	r1, #1
 800f0fe:	465a      	mov	r2, fp
 800f100:	f104 0050 	add.w	r0, r4, #80	; 0x50
 800f104:	9109      	str	r1, [sp, #36]	; 0x24
 800f106:	f7ff ff17 	bl	800ef38 <__exponent>
 800f10a:	9a0a      	ldr	r2, [sp, #40]	; 0x28
 800f10c:	1813      	adds	r3, r2, r0
 800f10e:	2a01      	cmp	r2, #1
 800f110:	4681      	mov	r9, r0
 800f112:	6123      	str	r3, [r4, #16]
 800f114:	dc02      	bgt.n	800f11c <_printf_float+0x168>
 800f116:	6822      	ldr	r2, [r4, #0]
 800f118:	07d2      	lsls	r2, r2, #31
 800f11a:	d501      	bpl.n	800f120 <_printf_float+0x16c>
 800f11c:	3301      	adds	r3, #1
 800f11e:	6123      	str	r3, [r4, #16]
 800f120:	f89d 3023 	ldrb.w	r3, [sp, #35]	; 0x23
 800f124:	2b00      	cmp	r3, #0
 800f126:	d09c      	beq.n	800f062 <_printf_float+0xae>
 800f128:	232d      	movs	r3, #45	; 0x2d
 800f12a:	f884 3043 	strb.w	r3, [r4, #67]	; 0x43
 800f12e:	e798      	b.n	800f062 <_printf_float+0xae>
 800f130:	9a06      	ldr	r2, [sp, #24]
 800f132:	2a47      	cmp	r2, #71	; 0x47
 800f134:	d1be      	bne.n	800f0b4 <_printf_float+0x100>
 800f136:	2b00      	cmp	r3, #0
 800f138:	d1bc      	bne.n	800f0b4 <_printf_float+0x100>
 800f13a:	2301      	movs	r3, #1
 800f13c:	e7b9      	b.n	800f0b2 <_printf_float+0xfe>
 800f13e:	f1bb 0f66 	cmp.w	fp, #102	; 0x66
 800f142:	d118      	bne.n	800f176 <_printf_float+0x1c2>
 800f144:	2900      	cmp	r1, #0
 800f146:	6863      	ldr	r3, [r4, #4]
 800f148:	dd0b      	ble.n	800f162 <_printf_float+0x1ae>
 800f14a:	6121      	str	r1, [r4, #16]
 800f14c:	b913      	cbnz	r3, 800f154 <_printf_float+0x1a0>
 800f14e:	6822      	ldr	r2, [r4, #0]
 800f150:	07d0      	lsls	r0, r2, #31
 800f152:	d502      	bpl.n	800f15a <_printf_float+0x1a6>
 800f154:	3301      	adds	r3, #1
 800f156:	440b      	add	r3, r1
 800f158:	6123      	str	r3, [r4, #16]
 800f15a:	65a1      	str	r1, [r4, #88]	; 0x58
 800f15c:	f04f 0900 	mov.w	r9, #0
 800f160:	e7de      	b.n	800f120 <_printf_float+0x16c>
 800f162:	b913      	cbnz	r3, 800f16a <_printf_float+0x1b6>
 800f164:	6822      	ldr	r2, [r4, #0]
 800f166:	07d2      	lsls	r2, r2, #31
 800f168:	d501      	bpl.n	800f16e <_printf_float+0x1ba>
 800f16a:	3302      	adds	r3, #2
 800f16c:	e7f4      	b.n	800f158 <_printf_float+0x1a4>
 800f16e:	2301      	movs	r3, #1
 800f170:	e7f2      	b.n	800f158 <_printf_float+0x1a4>
 800f172:	f04f 0b67 	mov.w	fp, #103	; 0x67
 800f176:	9b0a      	ldr	r3, [sp, #40]	; 0x28
 800f178:	4299      	cmp	r1, r3
 800f17a:	db05      	blt.n	800f188 <_printf_float+0x1d4>
 800f17c:	6823      	ldr	r3, [r4, #0]
 800f17e:	6121      	str	r1, [r4, #16]
 800f180:	07d8      	lsls	r0, r3, #31
 800f182:	d5ea      	bpl.n	800f15a <_printf_float+0x1a6>
 800f184:	1c4b      	adds	r3, r1, #1
 800f186:	e7e7      	b.n	800f158 <_printf_float+0x1a4>
 800f188:	2900      	cmp	r1, #0
 800f18a:	bfd4      	ite	le
 800f18c:	f1c1 0202 	rsble	r2, r1, #2
 800f190:	2201      	movgt	r2, #1
 800f192:	4413      	add	r3, r2
 800f194:	e7e0      	b.n	800f158 <_printf_float+0x1a4>
 800f196:	6823      	ldr	r3, [r4, #0]
 800f198:	055a      	lsls	r2, r3, #21
 800f19a:	d407      	bmi.n	800f1ac <_printf_float+0x1f8>
 800f19c:	6923      	ldr	r3, [r4, #16]
 800f19e:	4642      	mov	r2, r8
 800f1a0:	4631      	mov	r1, r6
 800f1a2:	4628      	mov	r0, r5
 800f1a4:	47b8      	blx	r7
 800f1a6:	3001      	adds	r0, #1
 800f1a8:	d12c      	bne.n	800f204 <_printf_float+0x250>
 800f1aa:	e764      	b.n	800f076 <_printf_float+0xc2>
 800f1ac:	f1bb 0f65 	cmp.w	fp, #101	; 0x65
 800f1b0:	f240 80e0 	bls.w	800f374 <_printf_float+0x3c0>
 800f1b4:	e9d4 0112 	ldrd	r0, r1, [r4, #72]	; 0x48
 800f1b8:	2200      	movs	r2, #0
 800f1ba:	2300      	movs	r3, #0
 800f1bc:	f7f9 fc8c 	bl	8008ad8 <__aeabi_dcmpeq>
 800f1c0:	2800      	cmp	r0, #0
 800f1c2:	d034      	beq.n	800f22e <_printf_float+0x27a>
 800f1c4:	4a37      	ldr	r2, [pc, #220]	; (800f2a4 <_printf_float+0x2f0>)
 800f1c6:	2301      	movs	r3, #1
 800f1c8:	4631      	mov	r1, r6
 800f1ca:	4628      	mov	r0, r5
 800f1cc:	47b8      	blx	r7
 800f1ce:	3001      	adds	r0, #1
 800f1d0:	f43f af51 	beq.w	800f076 <_printf_float+0xc2>
 800f1d4:	e9dd 2309 	ldrd	r2, r3, [sp, #36]	; 0x24
 800f1d8:	429a      	cmp	r2, r3
 800f1da:	db02      	blt.n	800f1e2 <_printf_float+0x22e>
 800f1dc:	6823      	ldr	r3, [r4, #0]
 800f1de:	07d8      	lsls	r0, r3, #31
 800f1e0:	d510      	bpl.n	800f204 <_printf_float+0x250>
 800f1e2:	ee18 3a10 	vmov	r3, s16
 800f1e6:	4652      	mov	r2, sl
 800f1e8:	4631      	mov	r1, r6
 800f1ea:	4628      	mov	r0, r5
 800f1ec:	47b8      	blx	r7
 800f1ee:	3001      	adds	r0, #1
 800f1f0:	f43f af41 	beq.w	800f076 <_printf_float+0xc2>
 800f1f4:	f04f 0800 	mov.w	r8, #0
 800f1f8:	f104 091a 	add.w	r9, r4, #26
 800f1fc:	9b0a      	ldr	r3, [sp, #40]	; 0x28
 800f1fe:	3b01      	subs	r3, #1
 800f200:	4543      	cmp	r3, r8
 800f202:	dc09      	bgt.n	800f218 <_printf_float+0x264>
 800f204:	6823      	ldr	r3, [r4, #0]
 800f206:	079b      	lsls	r3, r3, #30
 800f208:	f100 8105 	bmi.w	800f416 <_printf_float+0x462>
 800f20c:	68e0      	ldr	r0, [r4, #12]
 800f20e:	9b0b      	ldr	r3, [sp, #44]	; 0x2c
 800f210:	4298      	cmp	r0, r3
 800f212:	bfb8      	it	lt
 800f214:	4618      	movlt	r0, r3
 800f216:	e730      	b.n	800f07a <_printf_float+0xc6>
 800f218:	2301      	movs	r3, #1
 800f21a:	464a      	mov	r2, r9
 800f21c:	4631      	mov	r1, r6
 800f21e:	4628      	mov	r0, r5
 800f220:	47b8      	blx	r7
 800f222:	3001      	adds	r0, #1
 800f224:	f43f af27 	beq.w	800f076 <_printf_float+0xc2>
 800f228:	f108 0801 	add.w	r8, r8, #1
 800f22c:	e7e6      	b.n	800f1fc <_printf_float+0x248>
 800f22e:	9b09      	ldr	r3, [sp, #36]	; 0x24
 800f230:	2b00      	cmp	r3, #0
 800f232:	dc39      	bgt.n	800f2a8 <_printf_float+0x2f4>
 800f234:	4a1b      	ldr	r2, [pc, #108]	; (800f2a4 <_printf_float+0x2f0>)
 800f236:	2301      	movs	r3, #1
 800f238:	4631      	mov	r1, r6
 800f23a:	4628      	mov	r0, r5
 800f23c:	47b8      	blx	r7
 800f23e:	3001      	adds	r0, #1
 800f240:	f43f af19 	beq.w	800f076 <_printf_float+0xc2>
 800f244:	e9dd 2309 	ldrd	r2, r3, [sp, #36]	; 0x24
 800f248:	4313      	orrs	r3, r2
 800f24a:	d102      	bne.n	800f252 <_printf_float+0x29e>
 800f24c:	6823      	ldr	r3, [r4, #0]
 800f24e:	07d9      	lsls	r1, r3, #31
 800f250:	d5d8      	bpl.n	800f204 <_printf_float+0x250>
 800f252:	ee18 3a10 	vmov	r3, s16
 800f256:	4652      	mov	r2, sl
 800f258:	4631      	mov	r1, r6
 800f25a:	4628      	mov	r0, r5
 800f25c:	47b8      	blx	r7
 800f25e:	3001      	adds	r0, #1
 800f260:	f43f af09 	beq.w	800f076 <_printf_float+0xc2>
 800f264:	f04f 0900 	mov.w	r9, #0
 800f268:	f104 0a1a 	add.w	sl, r4, #26
 800f26c:	9b09      	ldr	r3, [sp, #36]	; 0x24
 800f26e:	425b      	negs	r3, r3
 800f270:	454b      	cmp	r3, r9
 800f272:	dc01      	bgt.n	800f278 <_printf_float+0x2c4>
 800f274:	9b0a      	ldr	r3, [sp, #40]	; 0x28
 800f276:	e792      	b.n	800f19e <_printf_float+0x1ea>
 800f278:	2301      	movs	r3, #1
 800f27a:	4652      	mov	r2, sl
 800f27c:	4631      	mov	r1, r6
 800f27e:	4628      	mov	r0, r5
 800f280:	47b8      	blx	r7
 800f282:	3001      	adds	r0, #1
 800f284:	f43f aef7 	beq.w	800f076 <_printf_float+0xc2>
 800f288:	f109 0901 	add.w	r9, r9, #1
 800f28c:	e7ee      	b.n	800f26c <_printf_float+0x2b8>
 800f28e:	bf00      	nop
 800f290:	7fefffff 	.word	0x7fefffff
 800f294:	08016c8c 	.word	0x08016c8c
 800f298:	08016c90 	.word	0x08016c90
 800f29c:	08016c98 	.word	0x08016c98
 800f2a0:	08016c94 	.word	0x08016c94
 800f2a4:	08016c9c 	.word	0x08016c9c
 800f2a8:	9a0a      	ldr	r2, [sp, #40]	; 0x28
 800f2aa:	6da3      	ldr	r3, [r4, #88]	; 0x58
 800f2ac:	429a      	cmp	r2, r3
 800f2ae:	bfa8      	it	ge
 800f2b0:	461a      	movge	r2, r3
 800f2b2:	2a00      	cmp	r2, #0
 800f2b4:	4691      	mov	r9, r2
 800f2b6:	dc37      	bgt.n	800f328 <_printf_float+0x374>
 800f2b8:	f04f 0b00 	mov.w	fp, #0
 800f2bc:	ea29 79e9 	bic.w	r9, r9, r9, asr #31
 800f2c0:	f104 021a 	add.w	r2, r4, #26
 800f2c4:	6da3      	ldr	r3, [r4, #88]	; 0x58
 800f2c6:	9305      	str	r3, [sp, #20]
 800f2c8:	eba3 0309 	sub.w	r3, r3, r9
 800f2cc:	455b      	cmp	r3, fp
 800f2ce:	dc33      	bgt.n	800f338 <_printf_float+0x384>
 800f2d0:	e9dd 2309 	ldrd	r2, r3, [sp, #36]	; 0x24
 800f2d4:	429a      	cmp	r2, r3
 800f2d6:	db3b      	blt.n	800f350 <_printf_float+0x39c>
 800f2d8:	6823      	ldr	r3, [r4, #0]
 800f2da:	07da      	lsls	r2, r3, #31
 800f2dc:	d438      	bmi.n	800f350 <_printf_float+0x39c>
 800f2de:	9a0a      	ldr	r2, [sp, #40]	; 0x28
 800f2e0:	9b05      	ldr	r3, [sp, #20]
 800f2e2:	9909      	ldr	r1, [sp, #36]	; 0x24
 800f2e4:	1ad3      	subs	r3, r2, r3
 800f2e6:	eba2 0901 	sub.w	r9, r2, r1
 800f2ea:	4599      	cmp	r9, r3
 800f2ec:	bfa8      	it	ge
 800f2ee:	4699      	movge	r9, r3
 800f2f0:	f1b9 0f00 	cmp.w	r9, #0
 800f2f4:	dc35      	bgt.n	800f362 <_printf_float+0x3ae>
 800f2f6:	f04f 0800 	mov.w	r8, #0
 800f2fa:	ea29 79e9 	bic.w	r9, r9, r9, asr #31
 800f2fe:	f104 0a1a 	add.w	sl, r4, #26
 800f302:	e9dd 2309 	ldrd	r2, r3, [sp, #36]	; 0x24
 800f306:	1a9b      	subs	r3, r3, r2
 800f308:	eba3 0309 	sub.w	r3, r3, r9
 800f30c:	4543      	cmp	r3, r8
 800f30e:	f77f af79 	ble.w	800f204 <_printf_float+0x250>
 800f312:	2301      	movs	r3, #1
 800f314:	4652      	mov	r2, sl
 800f316:	4631      	mov	r1, r6
 800f318:	4628      	mov	r0, r5
 800f31a:	47b8      	blx	r7
 800f31c:	3001      	adds	r0, #1
 800f31e:	f43f aeaa 	beq.w	800f076 <_printf_float+0xc2>
 800f322:	f108 0801 	add.w	r8, r8, #1
 800f326:	e7ec      	b.n	800f302 <_printf_float+0x34e>
 800f328:	4613      	mov	r3, r2
 800f32a:	4631      	mov	r1, r6
 800f32c:	4642      	mov	r2, r8
 800f32e:	4628      	mov	r0, r5
 800f330:	47b8      	blx	r7
 800f332:	3001      	adds	r0, #1
 800f334:	d1c0      	bne.n	800f2b8 <_printf_float+0x304>
 800f336:	e69e      	b.n	800f076 <_printf_float+0xc2>
 800f338:	2301      	movs	r3, #1
 800f33a:	4631      	mov	r1, r6
 800f33c:	4628      	mov	r0, r5
 800f33e:	9205      	str	r2, [sp, #20]
 800f340:	47b8      	blx	r7
 800f342:	3001      	adds	r0, #1
 800f344:	f43f ae97 	beq.w	800f076 <_printf_float+0xc2>
 800f348:	9a05      	ldr	r2, [sp, #20]
 800f34a:	f10b 0b01 	add.w	fp, fp, #1
 800f34e:	e7b9      	b.n	800f2c4 <_printf_float+0x310>
 800f350:	ee18 3a10 	vmov	r3, s16
 800f354:	4652      	mov	r2, sl
 800f356:	4631      	mov	r1, r6
 800f358:	4628      	mov	r0, r5
 800f35a:	47b8      	blx	r7
 800f35c:	3001      	adds	r0, #1
 800f35e:	d1be      	bne.n	800f2de <_printf_float+0x32a>
 800f360:	e689      	b.n	800f076 <_printf_float+0xc2>
 800f362:	9a05      	ldr	r2, [sp, #20]
 800f364:	464b      	mov	r3, r9
 800f366:	4442      	add	r2, r8
 800f368:	4631      	mov	r1, r6
 800f36a:	4628      	mov	r0, r5
 800f36c:	47b8      	blx	r7
 800f36e:	3001      	adds	r0, #1
 800f370:	d1c1      	bne.n	800f2f6 <_printf_float+0x342>
 800f372:	e680      	b.n	800f076 <_printf_float+0xc2>
 800f374:	9a0a      	ldr	r2, [sp, #40]	; 0x28
 800f376:	2a01      	cmp	r2, #1
 800f378:	dc01      	bgt.n	800f37e <_printf_float+0x3ca>
 800f37a:	07db      	lsls	r3, r3, #31
 800f37c:	d538      	bpl.n	800f3f0 <_printf_float+0x43c>
 800f37e:	2301      	movs	r3, #1
 800f380:	4642      	mov	r2, r8
 800f382:	4631      	mov	r1, r6
 800f384:	4628      	mov	r0, r5
 800f386:	47b8      	blx	r7
 800f388:	3001      	adds	r0, #1
 800f38a:	f43f ae74 	beq.w	800f076 <_printf_float+0xc2>
 800f38e:	ee18 3a10 	vmov	r3, s16
 800f392:	4652      	mov	r2, sl
 800f394:	4631      	mov	r1, r6
 800f396:	4628      	mov	r0, r5
 800f398:	47b8      	blx	r7
 800f39a:	3001      	adds	r0, #1
 800f39c:	f43f ae6b 	beq.w	800f076 <_printf_float+0xc2>
 800f3a0:	e9d4 0112 	ldrd	r0, r1, [r4, #72]	; 0x48
 800f3a4:	2200      	movs	r2, #0
 800f3a6:	2300      	movs	r3, #0
 800f3a8:	f7f9 fb96 	bl	8008ad8 <__aeabi_dcmpeq>
 800f3ac:	b9d8      	cbnz	r0, 800f3e6 <_printf_float+0x432>
 800f3ae:	9b0a      	ldr	r3, [sp, #40]	; 0x28
 800f3b0:	f108 0201 	add.w	r2, r8, #1
 800f3b4:	3b01      	subs	r3, #1
 800f3b6:	4631      	mov	r1, r6
 800f3b8:	4628      	mov	r0, r5
 800f3ba:	47b8      	blx	r7
 800f3bc:	3001      	adds	r0, #1
 800f3be:	d10e      	bne.n	800f3de <_printf_float+0x42a>
 800f3c0:	e659      	b.n	800f076 <_printf_float+0xc2>
 800f3c2:	2301      	movs	r3, #1
 800f3c4:	4652      	mov	r2, sl
 800f3c6:	4631      	mov	r1, r6
 800f3c8:	4628      	mov	r0, r5
 800f3ca:	47b8      	blx	r7
 800f3cc:	3001      	adds	r0, #1
 800f3ce:	f43f ae52 	beq.w	800f076 <_printf_float+0xc2>
 800f3d2:	f108 0801 	add.w	r8, r8, #1
 800f3d6:	9b0a      	ldr	r3, [sp, #40]	; 0x28
 800f3d8:	3b01      	subs	r3, #1
 800f3da:	4543      	cmp	r3, r8
 800f3dc:	dcf1      	bgt.n	800f3c2 <_printf_float+0x40e>
 800f3de:	464b      	mov	r3, r9
 800f3e0:	f104 0250 	add.w	r2, r4, #80	; 0x50
 800f3e4:	e6dc      	b.n	800f1a0 <_printf_float+0x1ec>
 800f3e6:	f04f 0800 	mov.w	r8, #0
 800f3ea:	f104 0a1a 	add.w	sl, r4, #26
 800f3ee:	e7f2      	b.n	800f3d6 <_printf_float+0x422>
 800f3f0:	2301      	movs	r3, #1
 800f3f2:	4642      	mov	r2, r8
 800f3f4:	e7df      	b.n	800f3b6 <_printf_float+0x402>
 800f3f6:	2301      	movs	r3, #1
 800f3f8:	464a      	mov	r2, r9
 800f3fa:	4631      	mov	r1, r6
 800f3fc:	4628      	mov	r0, r5
 800f3fe:	47b8      	blx	r7
 800f400:	3001      	adds	r0, #1
 800f402:	f43f ae38 	beq.w	800f076 <_printf_float+0xc2>
 800f406:	f108 0801 	add.w	r8, r8, #1
 800f40a:	68e3      	ldr	r3, [r4, #12]
 800f40c:	990b      	ldr	r1, [sp, #44]	; 0x2c
 800f40e:	1a5b      	subs	r3, r3, r1
 800f410:	4543      	cmp	r3, r8
 800f412:	dcf0      	bgt.n	800f3f6 <_printf_float+0x442>
 800f414:	e6fa      	b.n	800f20c <_printf_float+0x258>
 800f416:	f04f 0800 	mov.w	r8, #0
 800f41a:	f104 0919 	add.w	r9, r4, #25
 800f41e:	e7f4      	b.n	800f40a <_printf_float+0x456>

0800f420 <_printf_common>:
 800f420:	e92d 47f0 	stmdb	sp!, {r4, r5, r6, r7, r8, r9, sl, lr}
 800f424:	4616      	mov	r6, r2
 800f426:	4699      	mov	r9, r3
 800f428:	688a      	ldr	r2, [r1, #8]
 800f42a:	690b      	ldr	r3, [r1, #16]
 800f42c:	f8dd 8020 	ldr.w	r8, [sp, #32]
 800f430:	4293      	cmp	r3, r2
 800f432:	bfb8      	it	lt
 800f434:	4613      	movlt	r3, r2
 800f436:	6033      	str	r3, [r6, #0]
 800f438:	f891 2043 	ldrb.w	r2, [r1, #67]	; 0x43
 800f43c:	4607      	mov	r7, r0
 800f43e:	460c      	mov	r4, r1
 800f440:	b10a      	cbz	r2, 800f446 <_printf_common+0x26>
 800f442:	3301      	adds	r3, #1
 800f444:	6033      	str	r3, [r6, #0]
 800f446:	6823      	ldr	r3, [r4, #0]
 800f448:	0699      	lsls	r1, r3, #26
 800f44a:	bf42      	ittt	mi
 800f44c:	6833      	ldrmi	r3, [r6, #0]
 800f44e:	3302      	addmi	r3, #2
 800f450:	6033      	strmi	r3, [r6, #0]
 800f452:	6825      	ldr	r5, [r4, #0]
 800f454:	f015 0506 	ands.w	r5, r5, #6
 800f458:	d106      	bne.n	800f468 <_printf_common+0x48>
 800f45a:	f104 0a19 	add.w	sl, r4, #25
 800f45e:	68e3      	ldr	r3, [r4, #12]
 800f460:	6832      	ldr	r2, [r6, #0]
 800f462:	1a9b      	subs	r3, r3, r2
 800f464:	42ab      	cmp	r3, r5
 800f466:	dc26      	bgt.n	800f4b6 <_printf_common+0x96>
 800f468:	f894 2043 	ldrb.w	r2, [r4, #67]	; 0x43
 800f46c:	1e13      	subs	r3, r2, #0
 800f46e:	6822      	ldr	r2, [r4, #0]
 800f470:	bf18      	it	ne
 800f472:	2301      	movne	r3, #1
 800f474:	0692      	lsls	r2, r2, #26
 800f476:	d42b      	bmi.n	800f4d0 <_printf_common+0xb0>
 800f478:	f104 0243 	add.w	r2, r4, #67	; 0x43
 800f47c:	4649      	mov	r1, r9
 800f47e:	4638      	mov	r0, r7
 800f480:	47c0      	blx	r8
 800f482:	3001      	adds	r0, #1
 800f484:	d01e      	beq.n	800f4c4 <_printf_common+0xa4>
 800f486:	6823      	ldr	r3, [r4, #0]
 800f488:	68e5      	ldr	r5, [r4, #12]
 800f48a:	6832      	ldr	r2, [r6, #0]
 800f48c:	f003 0306 	and.w	r3, r3, #6
 800f490:	2b04      	cmp	r3, #4
 800f492:	bf08      	it	eq
 800f494:	1aad      	subeq	r5, r5, r2
 800f496:	68a3      	ldr	r3, [r4, #8]
 800f498:	6922      	ldr	r2, [r4, #16]
 800f49a:	bf0c      	ite	eq
 800f49c:	ea25 75e5 	biceq.w	r5, r5, r5, asr #31
 800f4a0:	2500      	movne	r5, #0
 800f4a2:	4293      	cmp	r3, r2
 800f4a4:	bfc4      	itt	gt
 800f4a6:	1a9b      	subgt	r3, r3, r2
 800f4a8:	18ed      	addgt	r5, r5, r3
 800f4aa:	2600      	movs	r6, #0
 800f4ac:	341a      	adds	r4, #26
 800f4ae:	42b5      	cmp	r5, r6
 800f4b0:	d11a      	bne.n	800f4e8 <_printf_common+0xc8>
 800f4b2:	2000      	movs	r0, #0
 800f4b4:	e008      	b.n	800f4c8 <_printf_common+0xa8>
 800f4b6:	2301      	movs	r3, #1
 800f4b8:	4652      	mov	r2, sl
 800f4ba:	4649      	mov	r1, r9
 800f4bc:	4638      	mov	r0, r7
 800f4be:	47c0      	blx	r8
 800f4c0:	3001      	adds	r0, #1
 800f4c2:	d103      	bne.n	800f4cc <_printf_common+0xac>
 800f4c4:	f04f 30ff 	mov.w	r0, #4294967295	; 0xffffffff
 800f4c8:	e8bd 87f0 	ldmia.w	sp!, {r4, r5, r6, r7, r8, r9, sl, pc}
 800f4cc:	3501      	adds	r5, #1
 800f4ce:	e7c6      	b.n	800f45e <_printf_common+0x3e>
 800f4d0:	18e1      	adds	r1, r4, r3
 800f4d2:	1c5a      	adds	r2, r3, #1
 800f4d4:	2030      	movs	r0, #48	; 0x30
 800f4d6:	f881 0043 	strb.w	r0, [r1, #67]	; 0x43
 800f4da:	4422      	add	r2, r4
 800f4dc:	f894 1045 	ldrb.w	r1, [r4, #69]	; 0x45
 800f4e0:	f882 1043 	strb.w	r1, [r2, #67]	; 0x43
 800f4e4:	3302      	adds	r3, #2
 800f4e6:	e7c7      	b.n	800f478 <_printf_common+0x58>
 800f4e8:	2301      	movs	r3, #1
 800f4ea:	4622      	mov	r2, r4
 800f4ec:	4649      	mov	r1, r9
 800f4ee:	4638      	mov	r0, r7
 800f4f0:	47c0      	blx	r8
 800f4f2:	3001      	adds	r0, #1
 800f4f4:	d0e6      	beq.n	800f4c4 <_printf_common+0xa4>
 800f4f6:	3601      	adds	r6, #1
 800f4f8:	e7d9      	b.n	800f4ae <_printf_common+0x8e>
	...

0800f4fc <_printf_i>:
 800f4fc:	e92d 47ff 	stmdb	sp!, {r0, r1, r2, r3, r4, r5, r6, r7, r8, r9, sl, lr}
 800f500:	460c      	mov	r4, r1
 800f502:	4691      	mov	r9, r2
 800f504:	7e27      	ldrb	r7, [r4, #24]
 800f506:	990c      	ldr	r1, [sp, #48]	; 0x30
 800f508:	2f78      	cmp	r7, #120	; 0x78
 800f50a:	4680      	mov	r8, r0
 800f50c:	469a      	mov	sl, r3
 800f50e:	f104 0243 	add.w	r2, r4, #67	; 0x43
 800f512:	d807      	bhi.n	800f524 <_printf_i+0x28>
 800f514:	2f62      	cmp	r7, #98	; 0x62
 800f516:	d80a      	bhi.n	800f52e <_printf_i+0x32>
 800f518:	2f00      	cmp	r7, #0
 800f51a:	f000 80d8 	beq.w	800f6ce <_printf_i+0x1d2>
 800f51e:	2f58      	cmp	r7, #88	; 0x58
 800f520:	f000 80a3 	beq.w	800f66a <_printf_i+0x16e>
 800f524:	f104 0642 	add.w	r6, r4, #66	; 0x42
 800f528:	f884 7042 	strb.w	r7, [r4, #66]	; 0x42
 800f52c:	e03a      	b.n	800f5a4 <_printf_i+0xa8>
 800f52e:	f1a7 0363 	sub.w	r3, r7, #99	; 0x63
 800f532:	2b15      	cmp	r3, #21
 800f534:	d8f6      	bhi.n	800f524 <_printf_i+0x28>
 800f536:	a001      	add	r0, pc, #4	; (adr r0, 800f53c <_printf_i+0x40>)
 800f538:	f850 f023 	ldr.w	pc, [r0, r3, lsl #2]
 800f53c:	0800f595 	.word	0x0800f595
 800f540:	0800f5a9 	.word	0x0800f5a9
 800f544:	0800f525 	.word	0x0800f525
 800f548:	0800f525 	.word	0x0800f525
 800f54c:	0800f525 	.word	0x0800f525
 800f550:	0800f525 	.word	0x0800f525
 800f554:	0800f5a9 	.word	0x0800f5a9
 800f558:	0800f525 	.word	0x0800f525
 800f55c:	0800f525 	.word	0x0800f525
 800f560:	0800f525 	.word	0x0800f525
 800f564:	0800f525 	.word	0x0800f525
 800f568:	0800f6b5 	.word	0x0800f6b5
 800f56c:	0800f5d9 	.word	0x0800f5d9
 800f570:	0800f697 	.word	0x0800f697
 800f574:	0800f525 	.word	0x0800f525
 800f578:	0800f525 	.word	0x0800f525
 800f57c:	0800f6d7 	.word	0x0800f6d7
 800f580:	0800f525 	.word	0x0800f525
 800f584:	0800f5d9 	.word	0x0800f5d9
 800f588:	0800f525 	.word	0x0800f525
 800f58c:	0800f525 	.word	0x0800f525
 800f590:	0800f69f 	.word	0x0800f69f
 800f594:	680b      	ldr	r3, [r1, #0]
 800f596:	1d1a      	adds	r2, r3, #4
 800f598:	681b      	ldr	r3, [r3, #0]
 800f59a:	600a      	str	r2, [r1, #0]
 800f59c:	f104 0642 	add.w	r6, r4, #66	; 0x42
 800f5a0:	f884 3042 	strb.w	r3, [r4, #66]	; 0x42
 800f5a4:	2301      	movs	r3, #1
 800f5a6:	e0a3      	b.n	800f6f0 <_printf_i+0x1f4>
 800f5a8:	6825      	ldr	r5, [r4, #0]
 800f5aa:	6808      	ldr	r0, [r1, #0]
 800f5ac:	062e      	lsls	r6, r5, #24
 800f5ae:	f100 0304 	add.w	r3, r0, #4
 800f5b2:	d50a      	bpl.n	800f5ca <_printf_i+0xce>
 800f5b4:	6805      	ldr	r5, [r0, #0]
 800f5b6:	600b      	str	r3, [r1, #0]
 800f5b8:	2d00      	cmp	r5, #0
 800f5ba:	da03      	bge.n	800f5c4 <_printf_i+0xc8>
 800f5bc:	232d      	movs	r3, #45	; 0x2d
 800f5be:	426d      	negs	r5, r5
 800f5c0:	f884 3043 	strb.w	r3, [r4, #67]	; 0x43
 800f5c4:	485e      	ldr	r0, [pc, #376]	; (800f740 <_printf_i+0x244>)
 800f5c6:	230a      	movs	r3, #10
 800f5c8:	e019      	b.n	800f5fe <_printf_i+0x102>
 800f5ca:	f015 0f40 	tst.w	r5, #64	; 0x40
 800f5ce:	6805      	ldr	r5, [r0, #0]
 800f5d0:	600b      	str	r3, [r1, #0]
 800f5d2:	bf18      	it	ne
 800f5d4:	b22d      	sxthne	r5, r5
 800f5d6:	e7ef      	b.n	800f5b8 <_printf_i+0xbc>
 800f5d8:	680b      	ldr	r3, [r1, #0]
 800f5da:	6825      	ldr	r5, [r4, #0]
 800f5dc:	1d18      	adds	r0, r3, #4
 800f5de:	6008      	str	r0, [r1, #0]
 800f5e0:	0628      	lsls	r0, r5, #24
 800f5e2:	d501      	bpl.n	800f5e8 <_printf_i+0xec>
 800f5e4:	681d      	ldr	r5, [r3, #0]
 800f5e6:	e002      	b.n	800f5ee <_printf_i+0xf2>
 800f5e8:	0669      	lsls	r1, r5, #25
 800f5ea:	d5fb      	bpl.n	800f5e4 <_printf_i+0xe8>
 800f5ec:	881d      	ldrh	r5, [r3, #0]
 800f5ee:	4854      	ldr	r0, [pc, #336]	; (800f740 <_printf_i+0x244>)
 800f5f0:	2f6f      	cmp	r7, #111	; 0x6f
 800f5f2:	bf0c      	ite	eq
 800f5f4:	2308      	moveq	r3, #8
 800f5f6:	230a      	movne	r3, #10
 800f5f8:	2100      	movs	r1, #0
 800f5fa:	f884 1043 	strb.w	r1, [r4, #67]	; 0x43
 800f5fe:	6866      	ldr	r6, [r4, #4]
 800f600:	60a6      	str	r6, [r4, #8]
 800f602:	2e00      	cmp	r6, #0
 800f604:	bfa2      	ittt	ge
 800f606:	6821      	ldrge	r1, [r4, #0]
 800f608:	f021 0104 	bicge.w	r1, r1, #4
 800f60c:	6021      	strge	r1, [r4, #0]
 800f60e:	b90d      	cbnz	r5, 800f614 <_printf_i+0x118>
 800f610:	2e00      	cmp	r6, #0
 800f612:	d04d      	beq.n	800f6b0 <_printf_i+0x1b4>
 800f614:	4616      	mov	r6, r2
 800f616:	fbb5 f1f3 	udiv	r1, r5, r3
 800f61a:	fb03 5711 	mls	r7, r3, r1, r5
 800f61e:	5dc7      	ldrb	r7, [r0, r7]
 800f620:	f806 7d01 	strb.w	r7, [r6, #-1]!
 800f624:	462f      	mov	r7, r5
 800f626:	42bb      	cmp	r3, r7
 800f628:	460d      	mov	r5, r1
 800f62a:	d9f4      	bls.n	800f616 <_printf_i+0x11a>
 800f62c:	2b08      	cmp	r3, #8
 800f62e:	d10b      	bne.n	800f648 <_printf_i+0x14c>
 800f630:	6823      	ldr	r3, [r4, #0]
 800f632:	07df      	lsls	r7, r3, #31
 800f634:	d508      	bpl.n	800f648 <_printf_i+0x14c>
 800f636:	6923      	ldr	r3, [r4, #16]
 800f638:	6861      	ldr	r1, [r4, #4]
 800f63a:	4299      	cmp	r1, r3
 800f63c:	bfde      	ittt	le
 800f63e:	2330      	movle	r3, #48	; 0x30
 800f640:	f806 3c01 	strble.w	r3, [r6, #-1]
 800f644:	f106 36ff 	addle.w	r6, r6, #4294967295	; 0xffffffff
 800f648:	1b92      	subs	r2, r2, r6
 800f64a:	6122      	str	r2, [r4, #16]
 800f64c:	f8cd a000 	str.w	sl, [sp]
 800f650:	464b      	mov	r3, r9
 800f652:	aa03      	add	r2, sp, #12
 800f654:	4621      	mov	r1, r4
 800f656:	4640      	mov	r0, r8
 800f658:	f7ff fee2 	bl	800f420 <_printf_common>
 800f65c:	3001      	adds	r0, #1
 800f65e:	d14c      	bne.n	800f6fa <_printf_i+0x1fe>
 800f660:	f04f 30ff 	mov.w	r0, #4294967295	; 0xffffffff
 800f664:	b004      	add	sp, #16
 800f666:	e8bd 87f0 	ldmia.w	sp!, {r4, r5, r6, r7, r8, r9, sl, pc}
 800f66a:	4835      	ldr	r0, [pc, #212]	; (800f740 <_printf_i+0x244>)
 800f66c:	f884 7045 	strb.w	r7, [r4, #69]	; 0x45
 800f670:	6823      	ldr	r3, [r4, #0]
 800f672:	680e      	ldr	r6, [r1, #0]
 800f674:	061f      	lsls	r7, r3, #24
 800f676:	f856 5b04 	ldr.w	r5, [r6], #4
 800f67a:	600e      	str	r6, [r1, #0]
 800f67c:	d514      	bpl.n	800f6a8 <_printf_i+0x1ac>
 800f67e:	07d9      	lsls	r1, r3, #31
 800f680:	bf44      	itt	mi
 800f682:	f043 0320 	orrmi.w	r3, r3, #32
 800f686:	6023      	strmi	r3, [r4, #0]
 800f688:	b91d      	cbnz	r5, 800f692 <_printf_i+0x196>
 800f68a:	6823      	ldr	r3, [r4, #0]
 800f68c:	f023 0320 	bic.w	r3, r3, #32
 800f690:	6023      	str	r3, [r4, #0]
 800f692:	2310      	movs	r3, #16
 800f694:	e7b0      	b.n	800f5f8 <_printf_i+0xfc>
 800f696:	6823      	ldr	r3, [r4, #0]
 800f698:	f043 0320 	orr.w	r3, r3, #32
 800f69c:	6023      	str	r3, [r4, #0]
 800f69e:	2378      	movs	r3, #120	; 0x78
 800f6a0:	4828      	ldr	r0, [pc, #160]	; (800f744 <_printf_i+0x248>)
 800f6a2:	f884 3045 	strb.w	r3, [r4, #69]	; 0x45
 800f6a6:	e7e3      	b.n	800f670 <_printf_i+0x174>
 800f6a8:	065e      	lsls	r6, r3, #25
 800f6aa:	bf48      	it	mi
 800f6ac:	b2ad      	uxthmi	r5, r5
 800f6ae:	e7e6      	b.n	800f67e <_printf_i+0x182>
 800f6b0:	4616      	mov	r6, r2
 800f6b2:	e7bb      	b.n	800f62c <_printf_i+0x130>
 800f6b4:	680b      	ldr	r3, [r1, #0]
 800f6b6:	6826      	ldr	r6, [r4, #0]
 800f6b8:	6960      	ldr	r0, [r4, #20]
 800f6ba:	1d1d      	adds	r5, r3, #4
 800f6bc:	600d      	str	r5, [r1, #0]
 800f6be:	0635      	lsls	r5, r6, #24
 800f6c0:	681b      	ldr	r3, [r3, #0]
 800f6c2:	d501      	bpl.n	800f6c8 <_printf_i+0x1cc>
 800f6c4:	6018      	str	r0, [r3, #0]
 800f6c6:	e002      	b.n	800f6ce <_printf_i+0x1d2>
 800f6c8:	0671      	lsls	r1, r6, #25
 800f6ca:	d5fb      	bpl.n	800f6c4 <_printf_i+0x1c8>
 800f6cc:	8018      	strh	r0, [r3, #0]
 800f6ce:	2300      	movs	r3, #0
 800f6d0:	6123      	str	r3, [r4, #16]
 800f6d2:	4616      	mov	r6, r2
 800f6d4:	e7ba      	b.n	800f64c <_printf_i+0x150>
 800f6d6:	680b      	ldr	r3, [r1, #0]
 800f6d8:	1d1a      	adds	r2, r3, #4
 800f6da:	600a      	str	r2, [r1, #0]
 800f6dc:	681e      	ldr	r6, [r3, #0]
 800f6de:	6862      	ldr	r2, [r4, #4]
 800f6e0:	2100      	movs	r1, #0
 800f6e2:	4630      	mov	r0, r6
 800f6e4:	f7f8 fd84 	bl	80081f0 <memchr>
 800f6e8:	b108      	cbz	r0, 800f6ee <_printf_i+0x1f2>
 800f6ea:	1b80      	subs	r0, r0, r6
 800f6ec:	6060      	str	r0, [r4, #4]
 800f6ee:	6863      	ldr	r3, [r4, #4]
 800f6f0:	6123      	str	r3, [r4, #16]
 800f6f2:	2300      	movs	r3, #0
 800f6f4:	f884 3043 	strb.w	r3, [r4, #67]	; 0x43
 800f6f8:	e7a8      	b.n	800f64c <_printf_i+0x150>
 800f6fa:	6923      	ldr	r3, [r4, #16]
 800f6fc:	4632      	mov	r2, r6
 800f6fe:	4649      	mov	r1, r9
 800f700:	4640      	mov	r0, r8
 800f702:	47d0      	blx	sl
 800f704:	3001      	adds	r0, #1
 800f706:	d0ab      	beq.n	800f660 <_printf_i+0x164>
 800f708:	6823      	ldr	r3, [r4, #0]
 800f70a:	079b      	lsls	r3, r3, #30
 800f70c:	d413      	bmi.n	800f736 <_printf_i+0x23a>
 800f70e:	68e0      	ldr	r0, [r4, #12]
 800f710:	9b03      	ldr	r3, [sp, #12]
 800f712:	4298      	cmp	r0, r3
 800f714:	bfb8      	it	lt
 800f716:	4618      	movlt	r0, r3
 800f718:	e7a4      	b.n	800f664 <_printf_i+0x168>
 800f71a:	2301      	movs	r3, #1
 800f71c:	4632      	mov	r2, r6
 800f71e:	4649      	mov	r1, r9
 800f720:	4640      	mov	r0, r8
 800f722:	47d0      	blx	sl
 800f724:	3001      	adds	r0, #1
 800f726:	d09b      	beq.n	800f660 <_printf_i+0x164>
 800f728:	3501      	adds	r5, #1
 800f72a:	68e3      	ldr	r3, [r4, #12]
 800f72c:	9903      	ldr	r1, [sp, #12]
 800f72e:	1a5b      	subs	r3, r3, r1
 800f730:	42ab      	cmp	r3, r5
 800f732:	dcf2      	bgt.n	800f71a <_printf_i+0x21e>
 800f734:	e7eb      	b.n	800f70e <_printf_i+0x212>
 800f736:	2500      	movs	r5, #0
 800f738:	f104 0619 	add.w	r6, r4, #25
 800f73c:	e7f5      	b.n	800f72a <_printf_i+0x22e>
 800f73e:	bf00      	nop
 800f740:	08016c9e 	.word	0x08016c9e
 800f744:	08016caf 	.word	0x08016caf

0800f748 <siprintf>:
 800f748:	b40e      	push	{r1, r2, r3}
 800f74a:	b500      	push	{lr}
 800f74c:	b09c      	sub	sp, #112	; 0x70
 800f74e:	ab1d      	add	r3, sp, #116	; 0x74
 800f750:	9002      	str	r0, [sp, #8]
 800f752:	9006      	str	r0, [sp, #24]
 800f754:	f06f 4100 	mvn.w	r1, #2147483648	; 0x80000000
 800f758:	4809      	ldr	r0, [pc, #36]	; (800f780 <siprintf+0x38>)
 800f75a:	9107      	str	r1, [sp, #28]
 800f75c:	9104      	str	r1, [sp, #16]
 800f75e:	4909      	ldr	r1, [pc, #36]	; (800f784 <siprintf+0x3c>)
 800f760:	f853 2b04 	ldr.w	r2, [r3], #4
 800f764:	9105      	str	r1, [sp, #20]
 800f766:	6800      	ldr	r0, [r0, #0]
 800f768:	9301      	str	r3, [sp, #4]
 800f76a:	a902      	add	r1, sp, #8
 800f76c:	f001 fc3c 	bl	8010fe8 <_svfiprintf_r>
 800f770:	9b02      	ldr	r3, [sp, #8]
 800f772:	2200      	movs	r2, #0
 800f774:	701a      	strb	r2, [r3, #0]
 800f776:	b01c      	add	sp, #112	; 0x70
 800f778:	f85d eb04 	ldr.w	lr, [sp], #4
 800f77c:	b003      	add	sp, #12
 800f77e:	4770      	bx	lr
 800f780:	2000006c 	.word	0x2000006c
 800f784:	ffff0208 	.word	0xffff0208

0800f788 <strcat>:
 800f788:	b510      	push	{r4, lr}
 800f78a:	4602      	mov	r2, r0
 800f78c:	7814      	ldrb	r4, [r2, #0]
 800f78e:	4613      	mov	r3, r2
 800f790:	3201      	adds	r2, #1
 800f792:	2c00      	cmp	r4, #0
 800f794:	d1fa      	bne.n	800f78c <strcat+0x4>
 800f796:	3b01      	subs	r3, #1
 800f798:	f811 2b01 	ldrb.w	r2, [r1], #1
 800f79c:	f803 2f01 	strb.w	r2, [r3, #1]!
 800f7a0:	2a00      	cmp	r2, #0
 800f7a2:	d1f9      	bne.n	800f798 <strcat+0x10>
 800f7a4:	bd10      	pop	{r4, pc}

0800f7a6 <strchr>:
 800f7a6:	b2c9      	uxtb	r1, r1
 800f7a8:	4603      	mov	r3, r0
 800f7aa:	f810 2b01 	ldrb.w	r2, [r0], #1
 800f7ae:	b11a      	cbz	r2, 800f7b8 <strchr+0x12>
 800f7b0:	428a      	cmp	r2, r1
 800f7b2:	d1f9      	bne.n	800f7a8 <strchr+0x2>
 800f7b4:	4618      	mov	r0, r3
 800f7b6:	4770      	bx	lr
 800f7b8:	2900      	cmp	r1, #0
 800f7ba:	bf18      	it	ne
 800f7bc:	2300      	movne	r3, #0
 800f7be:	e7f9      	b.n	800f7b4 <strchr+0xe>

0800f7c0 <strcpy>:
 800f7c0:	4603      	mov	r3, r0
 800f7c2:	f811 2b01 	ldrb.w	r2, [r1], #1
 800f7c6:	f803 2b01 	strb.w	r2, [r3], #1
 800f7ca:	2a00      	cmp	r2, #0
 800f7cc:	d1f9      	bne.n	800f7c2 <strcpy+0x2>
 800f7ce:	4770      	bx	lr

0800f7d0 <strncmp>:
 800f7d0:	b510      	push	{r4, lr}
 800f7d2:	b16a      	cbz	r2, 800f7f0 <strncmp+0x20>
 800f7d4:	3901      	subs	r1, #1
 800f7d6:	1884      	adds	r4, r0, r2
 800f7d8:	f810 3b01 	ldrb.w	r3, [r0], #1
 800f7dc:	f811 2f01 	ldrb.w	r2, [r1, #1]!
 800f7e0:	4293      	cmp	r3, r2
 800f7e2:	d103      	bne.n	800f7ec <strncmp+0x1c>
 800f7e4:	42a0      	cmp	r0, r4
 800f7e6:	d001      	beq.n	800f7ec <strncmp+0x1c>
 800f7e8:	2b00      	cmp	r3, #0
 800f7ea:	d1f5      	bne.n	800f7d8 <strncmp+0x8>
 800f7ec:	1a98      	subs	r0, r3, r2
 800f7ee:	bd10      	pop	{r4, pc}
 800f7f0:	4610      	mov	r0, r2
 800f7f2:	e7fc      	b.n	800f7ee <strncmp+0x1e>

0800f7f4 <strstr>:
 800f7f4:	b5f0      	push	{r4, r5, r6, r7, lr}
 800f7f6:	780c      	ldrb	r4, [r1, #0]
 800f7f8:	b164      	cbz	r4, 800f814 <strstr+0x20>
 800f7fa:	4603      	mov	r3, r0
 800f7fc:	781a      	ldrb	r2, [r3, #0]
 800f7fe:	4618      	mov	r0, r3
 800f800:	1c5e      	adds	r6, r3, #1
 800f802:	b90a      	cbnz	r2, 800f808 <strstr+0x14>
 800f804:	4610      	mov	r0, r2
 800f806:	e005      	b.n	800f814 <strstr+0x20>
 800f808:	4294      	cmp	r4, r2
 800f80a:	d108      	bne.n	800f81e <strstr+0x2a>
 800f80c:	460d      	mov	r5, r1
 800f80e:	f815 2f01 	ldrb.w	r2, [r5, #1]!
 800f812:	b902      	cbnz	r2, 800f816 <strstr+0x22>
 800f814:	bdf0      	pop	{r4, r5, r6, r7, pc}
 800f816:	f813 7f01 	ldrb.w	r7, [r3, #1]!
 800f81a:	4297      	cmp	r7, r2
 800f81c:	d0f7      	beq.n	800f80e <strstr+0x1a>
 800f81e:	4633      	mov	r3, r6
 800f820:	e7ec      	b.n	800f7fc <strstr+0x8>
	...

0800f824 <_strtol_l.isra.0>:
 800f824:	2b01      	cmp	r3, #1
 800f826:	e92d 47f0 	stmdb	sp!, {r4, r5, r6, r7, r8, r9, sl, lr}
 800f82a:	d001      	beq.n	800f830 <_strtol_l.isra.0+0xc>
 800f82c:	2b24      	cmp	r3, #36	; 0x24
 800f82e:	d906      	bls.n	800f83e <_strtol_l.isra.0+0x1a>
 800f830:	f7ff fae0 	bl	800edf4 <__errno>
 800f834:	2316      	movs	r3, #22
 800f836:	6003      	str	r3, [r0, #0]
 800f838:	2000      	movs	r0, #0
 800f83a:	e8bd 87f0 	ldmia.w	sp!, {r4, r5, r6, r7, r8, r9, sl, pc}
 800f83e:	4f3a      	ldr	r7, [pc, #232]	; (800f928 <_strtol_l.isra.0+0x104>)
 800f840:	468e      	mov	lr, r1
 800f842:	4676      	mov	r6, lr
 800f844:	f81e 4b01 	ldrb.w	r4, [lr], #1
 800f848:	5de5      	ldrb	r5, [r4, r7]
 800f84a:	f015 0508 	ands.w	r5, r5, #8
 800f84e:	d1f8      	bne.n	800f842 <_strtol_l.isra.0+0x1e>
 800f850:	2c2d      	cmp	r4, #45	; 0x2d
 800f852:	d134      	bne.n	800f8be <_strtol_l.isra.0+0x9a>
 800f854:	f89e 4000 	ldrb.w	r4, [lr]
 800f858:	f04f 0801 	mov.w	r8, #1
 800f85c:	f106 0e02 	add.w	lr, r6, #2
 800f860:	2b00      	cmp	r3, #0
 800f862:	d05c      	beq.n	800f91e <_strtol_l.isra.0+0xfa>
 800f864:	2b10      	cmp	r3, #16
 800f866:	d10c      	bne.n	800f882 <_strtol_l.isra.0+0x5e>
 800f868:	2c30      	cmp	r4, #48	; 0x30
 800f86a:	d10a      	bne.n	800f882 <_strtol_l.isra.0+0x5e>
 800f86c:	f89e 4000 	ldrb.w	r4, [lr]
 800f870:	f004 04df 	and.w	r4, r4, #223	; 0xdf
 800f874:	2c58      	cmp	r4, #88	; 0x58
 800f876:	d14d      	bne.n	800f914 <_strtol_l.isra.0+0xf0>
 800f878:	f89e 4001 	ldrb.w	r4, [lr, #1]
 800f87c:	2310      	movs	r3, #16
 800f87e:	f10e 0e02 	add.w	lr, lr, #2
 800f882:	f108 4c00 	add.w	ip, r8, #2147483648	; 0x80000000
 800f886:	f10c 3cff 	add.w	ip, ip, #4294967295	; 0xffffffff
 800f88a:	2600      	movs	r6, #0
 800f88c:	fbbc f9f3 	udiv	r9, ip, r3
 800f890:	4635      	mov	r5, r6
 800f892:	fb03 ca19 	mls	sl, r3, r9, ip
 800f896:	f1a4 0730 	sub.w	r7, r4, #48	; 0x30
 800f89a:	2f09      	cmp	r7, #9
 800f89c:	d818      	bhi.n	800f8d0 <_strtol_l.isra.0+0xac>
 800f89e:	463c      	mov	r4, r7
 800f8a0:	42a3      	cmp	r3, r4
 800f8a2:	dd24      	ble.n	800f8ee <_strtol_l.isra.0+0xca>
 800f8a4:	2e00      	cmp	r6, #0
 800f8a6:	db1f      	blt.n	800f8e8 <_strtol_l.isra.0+0xc4>
 800f8a8:	45a9      	cmp	r9, r5
 800f8aa:	d31d      	bcc.n	800f8e8 <_strtol_l.isra.0+0xc4>
 800f8ac:	d101      	bne.n	800f8b2 <_strtol_l.isra.0+0x8e>
 800f8ae:	45a2      	cmp	sl, r4
 800f8b0:	db1a      	blt.n	800f8e8 <_strtol_l.isra.0+0xc4>
 800f8b2:	fb05 4503 	mla	r5, r5, r3, r4
 800f8b6:	2601      	movs	r6, #1
 800f8b8:	f81e 4b01 	ldrb.w	r4, [lr], #1
 800f8bc:	e7eb      	b.n	800f896 <_strtol_l.isra.0+0x72>
 800f8be:	2c2b      	cmp	r4, #43	; 0x2b
 800f8c0:	bf08      	it	eq
 800f8c2:	f89e 4000 	ldrbeq.w	r4, [lr]
 800f8c6:	46a8      	mov	r8, r5
 800f8c8:	bf08      	it	eq
 800f8ca:	f106 0e02 	addeq.w	lr, r6, #2
 800f8ce:	e7c7      	b.n	800f860 <_strtol_l.isra.0+0x3c>
 800f8d0:	f1a4 0741 	sub.w	r7, r4, #65	; 0x41
 800f8d4:	2f19      	cmp	r7, #25
 800f8d6:	d801      	bhi.n	800f8dc <_strtol_l.isra.0+0xb8>
 800f8d8:	3c37      	subs	r4, #55	; 0x37
 800f8da:	e7e1      	b.n	800f8a0 <_strtol_l.isra.0+0x7c>
 800f8dc:	f1a4 0761 	sub.w	r7, r4, #97	; 0x61
 800f8e0:	2f19      	cmp	r7, #25
 800f8e2:	d804      	bhi.n	800f8ee <_strtol_l.isra.0+0xca>
 800f8e4:	3c57      	subs	r4, #87	; 0x57
 800f8e6:	e7db      	b.n	800f8a0 <_strtol_l.isra.0+0x7c>
 800f8e8:	f04f 36ff 	mov.w	r6, #4294967295	; 0xffffffff
 800f8ec:	e7e4      	b.n	800f8b8 <_strtol_l.isra.0+0x94>
 800f8ee:	2e00      	cmp	r6, #0
 800f8f0:	da05      	bge.n	800f8fe <_strtol_l.isra.0+0xda>
 800f8f2:	2322      	movs	r3, #34	; 0x22
 800f8f4:	6003      	str	r3, [r0, #0]
 800f8f6:	4665      	mov	r5, ip
 800f8f8:	b942      	cbnz	r2, 800f90c <_strtol_l.isra.0+0xe8>
 800f8fa:	4628      	mov	r0, r5
 800f8fc:	e79d      	b.n	800f83a <_strtol_l.isra.0+0x16>
 800f8fe:	f1b8 0f00 	cmp.w	r8, #0
 800f902:	d000      	beq.n	800f906 <_strtol_l.isra.0+0xe2>
 800f904:	426d      	negs	r5, r5
 800f906:	2a00      	cmp	r2, #0
 800f908:	d0f7      	beq.n	800f8fa <_strtol_l.isra.0+0xd6>
 800f90a:	b10e      	cbz	r6, 800f910 <_strtol_l.isra.0+0xec>
 800f90c:	f10e 31ff 	add.w	r1, lr, #4294967295	; 0xffffffff
 800f910:	6011      	str	r1, [r2, #0]
 800f912:	e7f2      	b.n	800f8fa <_strtol_l.isra.0+0xd6>
 800f914:	2430      	movs	r4, #48	; 0x30
 800f916:	2b00      	cmp	r3, #0
 800f918:	d1b3      	bne.n	800f882 <_strtol_l.isra.0+0x5e>
 800f91a:	2308      	movs	r3, #8
 800f91c:	e7b1      	b.n	800f882 <_strtol_l.isra.0+0x5e>
 800f91e:	2c30      	cmp	r4, #48	; 0x30
 800f920:	d0a4      	beq.n	800f86c <_strtol_l.isra.0+0x48>
 800f922:	230a      	movs	r3, #10
 800f924:	e7ad      	b.n	800f882 <_strtol_l.isra.0+0x5e>
 800f926:	bf00      	nop
 800f928:	08016cc1 	.word	0x08016cc1

0800f92c <strtol>:
 800f92c:	4613      	mov	r3, r2
 800f92e:	460a      	mov	r2, r1
 800f930:	4601      	mov	r1, r0
 800f932:	4802      	ldr	r0, [pc, #8]	; (800f93c <strtol+0x10>)
 800f934:	6800      	ldr	r0, [r0, #0]
 800f936:	f7ff bf75 	b.w	800f824 <_strtol_l.isra.0>
 800f93a:	bf00      	nop
 800f93c:	2000006c 	.word	0x2000006c

0800f940 <_vsniprintf_r>:
 800f940:	b530      	push	{r4, r5, lr}
 800f942:	1e14      	subs	r4, r2, #0
 800f944:	4605      	mov	r5, r0
 800f946:	b09b      	sub	sp, #108	; 0x6c
 800f948:	4618      	mov	r0, r3
 800f94a:	da05      	bge.n	800f958 <_vsniprintf_r+0x18>
 800f94c:	238b      	movs	r3, #139	; 0x8b
 800f94e:	602b      	str	r3, [r5, #0]
 800f950:	f04f 30ff 	mov.w	r0, #4294967295	; 0xffffffff
 800f954:	b01b      	add	sp, #108	; 0x6c
 800f956:	bd30      	pop	{r4, r5, pc}
 800f958:	f44f 7302 	mov.w	r3, #520	; 0x208
 800f95c:	f8ad 300c 	strh.w	r3, [sp, #12]
 800f960:	bf14      	ite	ne
 800f962:	f104 33ff 	addne.w	r3, r4, #4294967295	; 0xffffffff
 800f966:	4623      	moveq	r3, r4
 800f968:	9302      	str	r3, [sp, #8]
 800f96a:	9305      	str	r3, [sp, #20]
 800f96c:	f64f 73ff 	movw	r3, #65535	; 0xffff
 800f970:	9100      	str	r1, [sp, #0]
 800f972:	9104      	str	r1, [sp, #16]
 800f974:	f8ad 300e 	strh.w	r3, [sp, #14]
 800f978:	4602      	mov	r2, r0
 800f97a:	9b1e      	ldr	r3, [sp, #120]	; 0x78
 800f97c:	4669      	mov	r1, sp
 800f97e:	4628      	mov	r0, r5
 800f980:	f001 fb32 	bl	8010fe8 <_svfiprintf_r>
 800f984:	1c43      	adds	r3, r0, #1
 800f986:	bfbc      	itt	lt
 800f988:	238b      	movlt	r3, #139	; 0x8b
 800f98a:	602b      	strlt	r3, [r5, #0]
 800f98c:	2c00      	cmp	r4, #0
 800f98e:	d0e1      	beq.n	800f954 <_vsniprintf_r+0x14>
 800f990:	9b00      	ldr	r3, [sp, #0]
 800f992:	2200      	movs	r2, #0
 800f994:	701a      	strb	r2, [r3, #0]
 800f996:	e7dd      	b.n	800f954 <_vsniprintf_r+0x14>

0800f998 <vsniprintf>:
 800f998:	b507      	push	{r0, r1, r2, lr}
 800f99a:	9300      	str	r3, [sp, #0]
 800f99c:	4613      	mov	r3, r2
 800f99e:	460a      	mov	r2, r1
 800f9a0:	4601      	mov	r1, r0
 800f9a2:	4803      	ldr	r0, [pc, #12]	; (800f9b0 <vsniprintf+0x18>)
 800f9a4:	6800      	ldr	r0, [r0, #0]
 800f9a6:	f7ff ffcb 	bl	800f940 <_vsniprintf_r>
 800f9aa:	b003      	add	sp, #12
 800f9ac:	f85d fb04 	ldr.w	pc, [sp], #4
 800f9b0:	2000006c 	.word	0x2000006c

0800f9b4 <quorem>:
 800f9b4:	e92d 4ff7 	stmdb	sp!, {r0, r1, r2, r4, r5, r6, r7, r8, r9, sl, fp, lr}
 800f9b8:	6903      	ldr	r3, [r0, #16]
 800f9ba:	690c      	ldr	r4, [r1, #16]
 800f9bc:	42a3      	cmp	r3, r4
 800f9be:	4607      	mov	r7, r0
 800f9c0:	f2c0 8081 	blt.w	800fac6 <quorem+0x112>
 800f9c4:	3c01      	subs	r4, #1
 800f9c6:	f101 0814 	add.w	r8, r1, #20
 800f9ca:	f100 0514 	add.w	r5, r0, #20
 800f9ce:	eb05 0384 	add.w	r3, r5, r4, lsl #2
 800f9d2:	9301      	str	r3, [sp, #4]
 800f9d4:	f858 3024 	ldr.w	r3, [r8, r4, lsl #2]
 800f9d8:	f855 2024 	ldr.w	r2, [r5, r4, lsl #2]
 800f9dc:	3301      	adds	r3, #1
 800f9de:	429a      	cmp	r2, r3
 800f9e0:	ea4f 0b84 	mov.w	fp, r4, lsl #2
 800f9e4:	eb08 0984 	add.w	r9, r8, r4, lsl #2
 800f9e8:	fbb2 f6f3 	udiv	r6, r2, r3
 800f9ec:	d331      	bcc.n	800fa52 <quorem+0x9e>
 800f9ee:	f04f 0e00 	mov.w	lr, #0
 800f9f2:	4640      	mov	r0, r8
 800f9f4:	46ac      	mov	ip, r5
 800f9f6:	46f2      	mov	sl, lr
 800f9f8:	f850 2b04 	ldr.w	r2, [r0], #4
 800f9fc:	b293      	uxth	r3, r2
 800f9fe:	fb06 e303 	mla	r3, r6, r3, lr
 800fa02:	ea4f 4e13 	mov.w	lr, r3, lsr #16
 800fa06:	b29b      	uxth	r3, r3
 800fa08:	ebaa 0303 	sub.w	r3, sl, r3
 800fa0c:	0c12      	lsrs	r2, r2, #16
 800fa0e:	f8dc a000 	ldr.w	sl, [ip]
 800fa12:	fb06 e202 	mla	r2, r6, r2, lr
 800fa16:	fa13 f38a 	uxtah	r3, r3, sl
 800fa1a:	ea4f 4e12 	mov.w	lr, r2, lsr #16
 800fa1e:	fa1f fa82 	uxth.w	sl, r2
 800fa22:	f8dc 2000 	ldr.w	r2, [ip]
 800fa26:	ebca 4212 	rsb	r2, sl, r2, lsr #16
 800fa2a:	eb02 4223 	add.w	r2, r2, r3, asr #16
 800fa2e:	b29b      	uxth	r3, r3
 800fa30:	ea43 4302 	orr.w	r3, r3, r2, lsl #16
 800fa34:	4581      	cmp	r9, r0
 800fa36:	f84c 3b04 	str.w	r3, [ip], #4
 800fa3a:	ea4f 4a22 	mov.w	sl, r2, asr #16
 800fa3e:	d2db      	bcs.n	800f9f8 <quorem+0x44>
 800fa40:	f855 300b 	ldr.w	r3, [r5, fp]
 800fa44:	b92b      	cbnz	r3, 800fa52 <quorem+0x9e>
 800fa46:	9b01      	ldr	r3, [sp, #4]
 800fa48:	3b04      	subs	r3, #4
 800fa4a:	429d      	cmp	r5, r3
 800fa4c:	461a      	mov	r2, r3
 800fa4e:	d32e      	bcc.n	800faae <quorem+0xfa>
 800fa50:	613c      	str	r4, [r7, #16]
 800fa52:	4638      	mov	r0, r7
 800fa54:	f001 f8b2 	bl	8010bbc <__mcmp>
 800fa58:	2800      	cmp	r0, #0
 800fa5a:	db24      	blt.n	800faa6 <quorem+0xf2>
 800fa5c:	3601      	adds	r6, #1
 800fa5e:	4628      	mov	r0, r5
 800fa60:	f04f 0c00 	mov.w	ip, #0
 800fa64:	f858 2b04 	ldr.w	r2, [r8], #4
 800fa68:	f8d0 e000 	ldr.w	lr, [r0]
 800fa6c:	b293      	uxth	r3, r2
 800fa6e:	ebac 0303 	sub.w	r3, ip, r3
 800fa72:	0c12      	lsrs	r2, r2, #16
 800fa74:	fa13 f38e 	uxtah	r3, r3, lr
 800fa78:	ebc2 421e 	rsb	r2, r2, lr, lsr #16
 800fa7c:	eb02 4223 	add.w	r2, r2, r3, asr #16
 800fa80:	b29b      	uxth	r3, r3
 800fa82:	ea43 4302 	orr.w	r3, r3, r2, lsl #16
 800fa86:	45c1      	cmp	r9, r8
 800fa88:	f840 3b04 	str.w	r3, [r0], #4
 800fa8c:	ea4f 4c22 	mov.w	ip, r2, asr #16
 800fa90:	d2e8      	bcs.n	800fa64 <quorem+0xb0>
 800fa92:	f855 2024 	ldr.w	r2, [r5, r4, lsl #2]
 800fa96:	eb05 0384 	add.w	r3, r5, r4, lsl #2
 800fa9a:	b922      	cbnz	r2, 800faa6 <quorem+0xf2>
 800fa9c:	3b04      	subs	r3, #4
 800fa9e:	429d      	cmp	r5, r3
 800faa0:	461a      	mov	r2, r3
 800faa2:	d30a      	bcc.n	800faba <quorem+0x106>
 800faa4:	613c      	str	r4, [r7, #16]
 800faa6:	4630      	mov	r0, r6
 800faa8:	b003      	add	sp, #12
 800faaa:	e8bd 8ff0 	ldmia.w	sp!, {r4, r5, r6, r7, r8, r9, sl, fp, pc}
 800faae:	6812      	ldr	r2, [r2, #0]
 800fab0:	3b04      	subs	r3, #4
 800fab2:	2a00      	cmp	r2, #0
 800fab4:	d1cc      	bne.n	800fa50 <quorem+0x9c>
 800fab6:	3c01      	subs	r4, #1
 800fab8:	e7c7      	b.n	800fa4a <quorem+0x96>
 800faba:	6812      	ldr	r2, [r2, #0]
 800fabc:	3b04      	subs	r3, #4
 800fabe:	2a00      	cmp	r2, #0
 800fac0:	d1f0      	bne.n	800faa4 <quorem+0xf0>
 800fac2:	3c01      	subs	r4, #1
 800fac4:	e7eb      	b.n	800fa9e <quorem+0xea>
 800fac6:	2000      	movs	r0, #0
 800fac8:	e7ee      	b.n	800faa8 <quorem+0xf4>
 800faca:	0000      	movs	r0, r0
 800facc:	0000      	movs	r0, r0
	...

0800fad0 <_dtoa_r>:
 800fad0:	e92d 4ff0 	stmdb	sp!, {r4, r5, r6, r7, r8, r9, sl, fp, lr}
 800fad4:	ed2d 8b02 	vpush	{d8}
 800fad8:	ec57 6b10 	vmov	r6, r7, d0
 800fadc:	b095      	sub	sp, #84	; 0x54
 800fade:	6a45      	ldr	r5, [r0, #36]	; 0x24
 800fae0:	f8dd 8080 	ldr.w	r8, [sp, #128]	; 0x80
 800fae4:	9105      	str	r1, [sp, #20]
 800fae6:	e9cd 6702 	strd	r6, r7, [sp, #8]
 800faea:	4604      	mov	r4, r0
 800faec:	9209      	str	r2, [sp, #36]	; 0x24
 800faee:	930f      	str	r3, [sp, #60]	; 0x3c
 800faf0:	b975      	cbnz	r5, 800fb10 <_dtoa_r+0x40>
 800faf2:	2010      	movs	r0, #16
 800faf4:	f000 fddc 	bl	80106b0 <malloc>
 800faf8:	4602      	mov	r2, r0
 800fafa:	6260      	str	r0, [r4, #36]	; 0x24
 800fafc:	b920      	cbnz	r0, 800fb08 <_dtoa_r+0x38>
 800fafe:	4bb2      	ldr	r3, [pc, #712]	; (800fdc8 <_dtoa_r+0x2f8>)
 800fb00:	21ea      	movs	r1, #234	; 0xea
 800fb02:	48b2      	ldr	r0, [pc, #712]	; (800fdcc <_dtoa_r+0x2fc>)
 800fb04:	f001 fb80 	bl	8011208 <__assert_func>
 800fb08:	e9c0 5501 	strd	r5, r5, [r0, #4]
 800fb0c:	6005      	str	r5, [r0, #0]
 800fb0e:	60c5      	str	r5, [r0, #12]
 800fb10:	6a63      	ldr	r3, [r4, #36]	; 0x24
 800fb12:	6819      	ldr	r1, [r3, #0]
 800fb14:	b151      	cbz	r1, 800fb2c <_dtoa_r+0x5c>
 800fb16:	685a      	ldr	r2, [r3, #4]
 800fb18:	604a      	str	r2, [r1, #4]
 800fb1a:	2301      	movs	r3, #1
 800fb1c:	4093      	lsls	r3, r2
 800fb1e:	608b      	str	r3, [r1, #8]
 800fb20:	4620      	mov	r0, r4
 800fb22:	f000 fe0d 	bl	8010740 <_Bfree>
 800fb26:	6a63      	ldr	r3, [r4, #36]	; 0x24
 800fb28:	2200      	movs	r2, #0
 800fb2a:	601a      	str	r2, [r3, #0]
 800fb2c:	1e3b      	subs	r3, r7, #0
 800fb2e:	bfb9      	ittee	lt
 800fb30:	f023 4300 	biclt.w	r3, r3, #2147483648	; 0x80000000
 800fb34:	9303      	strlt	r3, [sp, #12]
 800fb36:	2300      	movge	r3, #0
 800fb38:	f8c8 3000 	strge.w	r3, [r8]
 800fb3c:	f8dd 900c 	ldr.w	r9, [sp, #12]
 800fb40:	4ba3      	ldr	r3, [pc, #652]	; (800fdd0 <_dtoa_r+0x300>)
 800fb42:	bfbc      	itt	lt
 800fb44:	2201      	movlt	r2, #1
 800fb46:	f8c8 2000 	strlt.w	r2, [r8]
 800fb4a:	ea33 0309 	bics.w	r3, r3, r9
 800fb4e:	d11b      	bne.n	800fb88 <_dtoa_r+0xb8>
 800fb50:	9a0f      	ldr	r2, [sp, #60]	; 0x3c
 800fb52:	f242 730f 	movw	r3, #9999	; 0x270f
 800fb56:	6013      	str	r3, [r2, #0]
 800fb58:	f3c9 0313 	ubfx	r3, r9, #0, #20
 800fb5c:	4333      	orrs	r3, r6
 800fb5e:	f000 857a 	beq.w	8010656 <_dtoa_r+0xb86>
 800fb62:	9b21      	ldr	r3, [sp, #132]	; 0x84
 800fb64:	b963      	cbnz	r3, 800fb80 <_dtoa_r+0xb0>
 800fb66:	4b9b      	ldr	r3, [pc, #620]	; (800fdd4 <_dtoa_r+0x304>)
 800fb68:	e024      	b.n	800fbb4 <_dtoa_r+0xe4>
 800fb6a:	4b9b      	ldr	r3, [pc, #620]	; (800fdd8 <_dtoa_r+0x308>)
 800fb6c:	9300      	str	r3, [sp, #0]
 800fb6e:	3308      	adds	r3, #8
 800fb70:	9a21      	ldr	r2, [sp, #132]	; 0x84
 800fb72:	6013      	str	r3, [r2, #0]
 800fb74:	9800      	ldr	r0, [sp, #0]
 800fb76:	b015      	add	sp, #84	; 0x54
 800fb78:	ecbd 8b02 	vpop	{d8}
 800fb7c:	e8bd 8ff0 	ldmia.w	sp!, {r4, r5, r6, r7, r8, r9, sl, fp, pc}
 800fb80:	4b94      	ldr	r3, [pc, #592]	; (800fdd4 <_dtoa_r+0x304>)
 800fb82:	9300      	str	r3, [sp, #0]
 800fb84:	3303      	adds	r3, #3
 800fb86:	e7f3      	b.n	800fb70 <_dtoa_r+0xa0>
 800fb88:	ed9d 7b02 	vldr	d7, [sp, #8]
 800fb8c:	2200      	movs	r2, #0
 800fb8e:	ec51 0b17 	vmov	r0, r1, d7
 800fb92:	2300      	movs	r3, #0
 800fb94:	ed8d 7b0a 	vstr	d7, [sp, #40]	; 0x28
 800fb98:	f7f8 ff9e 	bl	8008ad8 <__aeabi_dcmpeq>
 800fb9c:	4680      	mov	r8, r0
 800fb9e:	b158      	cbz	r0, 800fbb8 <_dtoa_r+0xe8>
 800fba0:	9a0f      	ldr	r2, [sp, #60]	; 0x3c
 800fba2:	2301      	movs	r3, #1
 800fba4:	6013      	str	r3, [r2, #0]
 800fba6:	9b21      	ldr	r3, [sp, #132]	; 0x84
 800fba8:	2b00      	cmp	r3, #0
 800fbaa:	f000 8551 	beq.w	8010650 <_dtoa_r+0xb80>
 800fbae:	488b      	ldr	r0, [pc, #556]	; (800fddc <_dtoa_r+0x30c>)
 800fbb0:	6018      	str	r0, [r3, #0]
 800fbb2:	1e43      	subs	r3, r0, #1
 800fbb4:	9300      	str	r3, [sp, #0]
 800fbb6:	e7dd      	b.n	800fb74 <_dtoa_r+0xa4>
 800fbb8:	ed9d 0b0a 	vldr	d0, [sp, #40]	; 0x28
 800fbbc:	aa12      	add	r2, sp, #72	; 0x48
 800fbbe:	a913      	add	r1, sp, #76	; 0x4c
 800fbc0:	4620      	mov	r0, r4
 800fbc2:	f001 f89f 	bl	8010d04 <__d2b>
 800fbc6:	f3c9 550a 	ubfx	r5, r9, #20, #11
 800fbca:	4683      	mov	fp, r0
 800fbcc:	2d00      	cmp	r5, #0
 800fbce:	d07c      	beq.n	800fcca <_dtoa_r+0x1fa>
 800fbd0:	9b0b      	ldr	r3, [sp, #44]	; 0x2c
 800fbd2:	f8cd 8040 	str.w	r8, [sp, #64]	; 0x40
 800fbd6:	f3c3 0313 	ubfx	r3, r3, #0, #20
 800fbda:	e9dd 670a 	ldrd	r6, r7, [sp, #40]	; 0x28
 800fbde:	f043 577f 	orr.w	r7, r3, #1069547520	; 0x3fc00000
 800fbe2:	f447 1740 	orr.w	r7, r7, #3145728	; 0x300000
 800fbe6:	f2a5 35ff 	subw	r5, r5, #1023	; 0x3ff
 800fbea:	4b7d      	ldr	r3, [pc, #500]	; (800fde0 <_dtoa_r+0x310>)
 800fbec:	2200      	movs	r2, #0
 800fbee:	4630      	mov	r0, r6
 800fbf0:	4639      	mov	r1, r7
 800fbf2:	f7f8 fb51 	bl	8008298 <__aeabi_dsub>
 800fbf6:	a36e      	add	r3, pc, #440	; (adr r3, 800fdb0 <_dtoa_r+0x2e0>)
 800fbf8:	e9d3 2300 	ldrd	r2, r3, [r3]
 800fbfc:	f7f8 fd04 	bl	8008608 <__aeabi_dmul>
 800fc00:	a36d      	add	r3, pc, #436	; (adr r3, 800fdb8 <_dtoa_r+0x2e8>)
 800fc02:	e9d3 2300 	ldrd	r2, r3, [r3]
 800fc06:	f7f8 fb49 	bl	800829c <__adddf3>
 800fc0a:	4606      	mov	r6, r0
 800fc0c:	4628      	mov	r0, r5
 800fc0e:	460f      	mov	r7, r1
 800fc10:	f7f8 fc90 	bl	8008534 <__aeabi_i2d>
 800fc14:	a36a      	add	r3, pc, #424	; (adr r3, 800fdc0 <_dtoa_r+0x2f0>)
 800fc16:	e9d3 2300 	ldrd	r2, r3, [r3]
 800fc1a:	f7f8 fcf5 	bl	8008608 <__aeabi_dmul>
 800fc1e:	4602      	mov	r2, r0
 800fc20:	460b      	mov	r3, r1
 800fc22:	4630      	mov	r0, r6
 800fc24:	4639      	mov	r1, r7
 800fc26:	f7f8 fb39 	bl	800829c <__adddf3>
 800fc2a:	4606      	mov	r6, r0
 800fc2c:	460f      	mov	r7, r1
 800fc2e:	f7f8 ff9b 	bl	8008b68 <__aeabi_d2iz>
 800fc32:	2200      	movs	r2, #0
 800fc34:	4682      	mov	sl, r0
 800fc36:	2300      	movs	r3, #0
 800fc38:	4630      	mov	r0, r6
 800fc3a:	4639      	mov	r1, r7
 800fc3c:	f7f8 ff56 	bl	8008aec <__aeabi_dcmplt>
 800fc40:	b148      	cbz	r0, 800fc56 <_dtoa_r+0x186>
 800fc42:	4650      	mov	r0, sl
 800fc44:	f7f8 fc76 	bl	8008534 <__aeabi_i2d>
 800fc48:	4632      	mov	r2, r6
 800fc4a:	463b      	mov	r3, r7
 800fc4c:	f7f8 ff44 	bl	8008ad8 <__aeabi_dcmpeq>
 800fc50:	b908      	cbnz	r0, 800fc56 <_dtoa_r+0x186>
 800fc52:	f10a 3aff 	add.w	sl, sl, #4294967295	; 0xffffffff
 800fc56:	f1ba 0f16 	cmp.w	sl, #22
 800fc5a:	d854      	bhi.n	800fd06 <_dtoa_r+0x236>
 800fc5c:	4b61      	ldr	r3, [pc, #388]	; (800fde4 <_dtoa_r+0x314>)
 800fc5e:	eb03 03ca 	add.w	r3, r3, sl, lsl #3
 800fc62:	e9d3 2300 	ldrd	r2, r3, [r3]
 800fc66:	e9dd 010a 	ldrd	r0, r1, [sp, #40]	; 0x28
 800fc6a:	f7f8 ff3f 	bl	8008aec <__aeabi_dcmplt>
 800fc6e:	2800      	cmp	r0, #0
 800fc70:	d04b      	beq.n	800fd0a <_dtoa_r+0x23a>
 800fc72:	f10a 3aff 	add.w	sl, sl, #4294967295	; 0xffffffff
 800fc76:	2300      	movs	r3, #0
 800fc78:	930e      	str	r3, [sp, #56]	; 0x38
 800fc7a:	9b12      	ldr	r3, [sp, #72]	; 0x48
 800fc7c:	1b5d      	subs	r5, r3, r5
 800fc7e:	1e6b      	subs	r3, r5, #1
 800fc80:	9304      	str	r3, [sp, #16]
 800fc82:	bf43      	ittte	mi
 800fc84:	2300      	movmi	r3, #0
 800fc86:	f1c5 0801 	rsbmi	r8, r5, #1
 800fc8a:	9304      	strmi	r3, [sp, #16]
 800fc8c:	f04f 0800 	movpl.w	r8, #0
 800fc90:	f1ba 0f00 	cmp.w	sl, #0
 800fc94:	db3b      	blt.n	800fd0e <_dtoa_r+0x23e>
 800fc96:	9b04      	ldr	r3, [sp, #16]
 800fc98:	f8cd a034 	str.w	sl, [sp, #52]	; 0x34
 800fc9c:	4453      	add	r3, sl
 800fc9e:	9304      	str	r3, [sp, #16]
 800fca0:	2300      	movs	r3, #0
 800fca2:	9306      	str	r3, [sp, #24]
 800fca4:	9b05      	ldr	r3, [sp, #20]
 800fca6:	2b09      	cmp	r3, #9
 800fca8:	d869      	bhi.n	800fd7e <_dtoa_r+0x2ae>
 800fcaa:	2b05      	cmp	r3, #5
 800fcac:	bfc4      	itt	gt
 800fcae:	3b04      	subgt	r3, #4
 800fcb0:	9305      	strgt	r3, [sp, #20]
 800fcb2:	9b05      	ldr	r3, [sp, #20]
 800fcb4:	f1a3 0302 	sub.w	r3, r3, #2
 800fcb8:	bfcc      	ite	gt
 800fcba:	2500      	movgt	r5, #0
 800fcbc:	2501      	movle	r5, #1
 800fcbe:	2b03      	cmp	r3, #3
 800fcc0:	d869      	bhi.n	800fd96 <_dtoa_r+0x2c6>
 800fcc2:	e8df f003 	tbb	[pc, r3]
 800fcc6:	4e2c      	.short	0x4e2c
 800fcc8:	5a4c      	.short	0x5a4c
 800fcca:	e9dd 5312 	ldrd	r5, r3, [sp, #72]	; 0x48
 800fcce:	441d      	add	r5, r3
 800fcd0:	f205 4332 	addw	r3, r5, #1074	; 0x432
 800fcd4:	2b20      	cmp	r3, #32
 800fcd6:	bfc1      	itttt	gt
 800fcd8:	f1c3 0340 	rsbgt	r3, r3, #64	; 0x40
 800fcdc:	f205 4012 	addwgt	r0, r5, #1042	; 0x412
 800fce0:	fa09 f303 	lslgt.w	r3, r9, r3
 800fce4:	fa26 f000 	lsrgt.w	r0, r6, r0
 800fce8:	bfda      	itte	le
 800fcea:	f1c3 0320 	rsble	r3, r3, #32
 800fcee:	fa06 f003 	lslle.w	r0, r6, r3
 800fcf2:	4318      	orrgt	r0, r3
 800fcf4:	f7f8 fc0e 	bl	8008514 <__aeabi_ui2d>
 800fcf8:	2301      	movs	r3, #1
 800fcfa:	4606      	mov	r6, r0
 800fcfc:	f1a1 77f8 	sub.w	r7, r1, #32505856	; 0x1f00000
 800fd00:	3d01      	subs	r5, #1
 800fd02:	9310      	str	r3, [sp, #64]	; 0x40
 800fd04:	e771      	b.n	800fbea <_dtoa_r+0x11a>
 800fd06:	2301      	movs	r3, #1
 800fd08:	e7b6      	b.n	800fc78 <_dtoa_r+0x1a8>
 800fd0a:	900e      	str	r0, [sp, #56]	; 0x38
 800fd0c:	e7b5      	b.n	800fc7a <_dtoa_r+0x1aa>
 800fd0e:	f1ca 0300 	rsb	r3, sl, #0
 800fd12:	9306      	str	r3, [sp, #24]
 800fd14:	2300      	movs	r3, #0
 800fd16:	eba8 080a 	sub.w	r8, r8, sl
 800fd1a:	930d      	str	r3, [sp, #52]	; 0x34
 800fd1c:	e7c2      	b.n	800fca4 <_dtoa_r+0x1d4>
 800fd1e:	2300      	movs	r3, #0
 800fd20:	9308      	str	r3, [sp, #32]
 800fd22:	9b09      	ldr	r3, [sp, #36]	; 0x24
 800fd24:	2b00      	cmp	r3, #0
 800fd26:	dc39      	bgt.n	800fd9c <_dtoa_r+0x2cc>
 800fd28:	f04f 0901 	mov.w	r9, #1
 800fd2c:	f8cd 9004 	str.w	r9, [sp, #4]
 800fd30:	464b      	mov	r3, r9
 800fd32:	f8cd 9024 	str.w	r9, [sp, #36]	; 0x24
 800fd36:	6a60      	ldr	r0, [r4, #36]	; 0x24
 800fd38:	2200      	movs	r2, #0
 800fd3a:	6042      	str	r2, [r0, #4]
 800fd3c:	2204      	movs	r2, #4
 800fd3e:	f102 0614 	add.w	r6, r2, #20
 800fd42:	429e      	cmp	r6, r3
 800fd44:	6841      	ldr	r1, [r0, #4]
 800fd46:	d92f      	bls.n	800fda8 <_dtoa_r+0x2d8>
 800fd48:	4620      	mov	r0, r4
 800fd4a:	f000 fcb9 	bl	80106c0 <_Balloc>
 800fd4e:	9000      	str	r0, [sp, #0]
 800fd50:	2800      	cmp	r0, #0
 800fd52:	d14b      	bne.n	800fdec <_dtoa_r+0x31c>
 800fd54:	4b24      	ldr	r3, [pc, #144]	; (800fde8 <_dtoa_r+0x318>)
 800fd56:	4602      	mov	r2, r0
 800fd58:	f44f 71d5 	mov.w	r1, #426	; 0x1aa
 800fd5c:	e6d1      	b.n	800fb02 <_dtoa_r+0x32>
 800fd5e:	2301      	movs	r3, #1
 800fd60:	e7de      	b.n	800fd20 <_dtoa_r+0x250>
 800fd62:	2300      	movs	r3, #0
 800fd64:	9308      	str	r3, [sp, #32]
 800fd66:	9b09      	ldr	r3, [sp, #36]	; 0x24
 800fd68:	eb0a 0903 	add.w	r9, sl, r3
 800fd6c:	f109 0301 	add.w	r3, r9, #1
 800fd70:	2b01      	cmp	r3, #1
 800fd72:	9301      	str	r3, [sp, #4]
 800fd74:	bfb8      	it	lt
 800fd76:	2301      	movlt	r3, #1
 800fd78:	e7dd      	b.n	800fd36 <_dtoa_r+0x266>
 800fd7a:	2301      	movs	r3, #1
 800fd7c:	e7f2      	b.n	800fd64 <_dtoa_r+0x294>
 800fd7e:	2501      	movs	r5, #1
 800fd80:	2300      	movs	r3, #0
 800fd82:	9305      	str	r3, [sp, #20]
 800fd84:	9508      	str	r5, [sp, #32]
 800fd86:	f04f 39ff 	mov.w	r9, #4294967295	; 0xffffffff
 800fd8a:	2200      	movs	r2, #0
 800fd8c:	f8cd 9004 	str.w	r9, [sp, #4]
 800fd90:	2312      	movs	r3, #18
 800fd92:	9209      	str	r2, [sp, #36]	; 0x24
 800fd94:	e7cf      	b.n	800fd36 <_dtoa_r+0x266>
 800fd96:	2301      	movs	r3, #1
 800fd98:	9308      	str	r3, [sp, #32]
 800fd9a:	e7f4      	b.n	800fd86 <_dtoa_r+0x2b6>
 800fd9c:	f8dd 9024 	ldr.w	r9, [sp, #36]	; 0x24
 800fda0:	f8cd 9004 	str.w	r9, [sp, #4]
 800fda4:	464b      	mov	r3, r9
 800fda6:	e7c6      	b.n	800fd36 <_dtoa_r+0x266>
 800fda8:	3101      	adds	r1, #1
 800fdaa:	6041      	str	r1, [r0, #4]
 800fdac:	0052      	lsls	r2, r2, #1
 800fdae:	e7c6      	b.n	800fd3e <_dtoa_r+0x26e>
 800fdb0:	636f4361 	.word	0x636f4361
 800fdb4:	3fd287a7 	.word	0x3fd287a7
 800fdb8:	8b60c8b3 	.word	0x8b60c8b3
 800fdbc:	3fc68a28 	.word	0x3fc68a28
 800fdc0:	509f79fb 	.word	0x509f79fb
 800fdc4:	3fd34413 	.word	0x3fd34413
 800fdc8:	08016dce 	.word	0x08016dce
 800fdcc:	08016de5 	.word	0x08016de5
 800fdd0:	7ff00000 	.word	0x7ff00000
 800fdd4:	08016dca 	.word	0x08016dca
 800fdd8:	08016dc1 	.word	0x08016dc1
 800fddc:	08016c9d 	.word	0x08016c9d
 800fde0:	3ff80000 	.word	0x3ff80000
 800fde4:	08016ee0 	.word	0x08016ee0
 800fde8:	08016e44 	.word	0x08016e44
 800fdec:	6a63      	ldr	r3, [r4, #36]	; 0x24
 800fdee:	9a00      	ldr	r2, [sp, #0]
 800fdf0:	601a      	str	r2, [r3, #0]
 800fdf2:	9b01      	ldr	r3, [sp, #4]
 800fdf4:	2b0e      	cmp	r3, #14
 800fdf6:	f200 80ad 	bhi.w	800ff54 <_dtoa_r+0x484>
 800fdfa:	2d00      	cmp	r5, #0
 800fdfc:	f000 80aa 	beq.w	800ff54 <_dtoa_r+0x484>
 800fe00:	f1ba 0f00 	cmp.w	sl, #0
 800fe04:	dd36      	ble.n	800fe74 <_dtoa_r+0x3a4>
 800fe06:	4ac3      	ldr	r2, [pc, #780]	; (8010114 <_dtoa_r+0x644>)
 800fe08:	f00a 030f 	and.w	r3, sl, #15
 800fe0c:	eb02 03c3 	add.w	r3, r2, r3, lsl #3
 800fe10:	ed93 7b00 	vldr	d7, [r3]
 800fe14:	f41a 7f80 	tst.w	sl, #256	; 0x100
 800fe18:	ea4f 172a 	mov.w	r7, sl, asr #4
 800fe1c:	eeb0 8a47 	vmov.f32	s16, s14
 800fe20:	eef0 8a67 	vmov.f32	s17, s15
 800fe24:	d016      	beq.n	800fe54 <_dtoa_r+0x384>
 800fe26:	4bbc      	ldr	r3, [pc, #752]	; (8010118 <_dtoa_r+0x648>)
 800fe28:	e9dd 010a 	ldrd	r0, r1, [sp, #40]	; 0x28
 800fe2c:	e9d3 2308 	ldrd	r2, r3, [r3, #32]
 800fe30:	f7f8 fd14 	bl	800885c <__aeabi_ddiv>
 800fe34:	e9cd 0102 	strd	r0, r1, [sp, #8]
 800fe38:	f007 070f 	and.w	r7, r7, #15
 800fe3c:	2503      	movs	r5, #3
 800fe3e:	4eb6      	ldr	r6, [pc, #728]	; (8010118 <_dtoa_r+0x648>)
 800fe40:	b957      	cbnz	r7, 800fe58 <_dtoa_r+0x388>
 800fe42:	e9dd 0102 	ldrd	r0, r1, [sp, #8]
 800fe46:	ec53 2b18 	vmov	r2, r3, d8
 800fe4a:	f7f8 fd07 	bl	800885c <__aeabi_ddiv>
 800fe4e:	e9cd 0102 	strd	r0, r1, [sp, #8]
 800fe52:	e029      	b.n	800fea8 <_dtoa_r+0x3d8>
 800fe54:	2502      	movs	r5, #2
 800fe56:	e7f2      	b.n	800fe3e <_dtoa_r+0x36e>
 800fe58:	07f9      	lsls	r1, r7, #31
 800fe5a:	d508      	bpl.n	800fe6e <_dtoa_r+0x39e>
 800fe5c:	ec51 0b18 	vmov	r0, r1, d8
 800fe60:	e9d6 2300 	ldrd	r2, r3, [r6]
 800fe64:	f7f8 fbd0 	bl	8008608 <__aeabi_dmul>
 800fe68:	ec41 0b18 	vmov	d8, r0, r1
 800fe6c:	3501      	adds	r5, #1
 800fe6e:	107f      	asrs	r7, r7, #1
 800fe70:	3608      	adds	r6, #8
 800fe72:	e7e5      	b.n	800fe40 <_dtoa_r+0x370>
 800fe74:	f000 80a6 	beq.w	800ffc4 <_dtoa_r+0x4f4>
 800fe78:	f1ca 0600 	rsb	r6, sl, #0
 800fe7c:	4ba5      	ldr	r3, [pc, #660]	; (8010114 <_dtoa_r+0x644>)
 800fe7e:	4fa6      	ldr	r7, [pc, #664]	; (8010118 <_dtoa_r+0x648>)
 800fe80:	f006 020f 	and.w	r2, r6, #15
 800fe84:	eb03 03c2 	add.w	r3, r3, r2, lsl #3
 800fe88:	e9d3 2300 	ldrd	r2, r3, [r3]
 800fe8c:	e9dd 010a 	ldrd	r0, r1, [sp, #40]	; 0x28
 800fe90:	f7f8 fbba 	bl	8008608 <__aeabi_dmul>
 800fe94:	e9cd 0102 	strd	r0, r1, [sp, #8]
 800fe98:	1136      	asrs	r6, r6, #4
 800fe9a:	2300      	movs	r3, #0
 800fe9c:	2502      	movs	r5, #2
 800fe9e:	2e00      	cmp	r6, #0
 800fea0:	f040 8085 	bne.w	800ffae <_dtoa_r+0x4de>
 800fea4:	2b00      	cmp	r3, #0
 800fea6:	d1d2      	bne.n	800fe4e <_dtoa_r+0x37e>
 800fea8:	9b0e      	ldr	r3, [sp, #56]	; 0x38
 800feaa:	2b00      	cmp	r3, #0
 800feac:	f000 808c 	beq.w	800ffc8 <_dtoa_r+0x4f8>
 800feb0:	e9dd 6702 	ldrd	r6, r7, [sp, #8]
 800feb4:	4b99      	ldr	r3, [pc, #612]	; (801011c <_dtoa_r+0x64c>)
 800feb6:	2200      	movs	r2, #0
 800feb8:	4630      	mov	r0, r6
 800feba:	4639      	mov	r1, r7
 800febc:	f7f8 fe16 	bl	8008aec <__aeabi_dcmplt>
 800fec0:	2800      	cmp	r0, #0
 800fec2:	f000 8081 	beq.w	800ffc8 <_dtoa_r+0x4f8>
 800fec6:	9b01      	ldr	r3, [sp, #4]
 800fec8:	2b00      	cmp	r3, #0
 800feca:	d07d      	beq.n	800ffc8 <_dtoa_r+0x4f8>
 800fecc:	f1b9 0f00 	cmp.w	r9, #0
 800fed0:	dd3c      	ble.n	800ff4c <_dtoa_r+0x47c>
 800fed2:	f10a 33ff 	add.w	r3, sl, #4294967295	; 0xffffffff
 800fed6:	9307      	str	r3, [sp, #28]
 800fed8:	2200      	movs	r2, #0
 800feda:	4b91      	ldr	r3, [pc, #580]	; (8010120 <_dtoa_r+0x650>)
 800fedc:	4630      	mov	r0, r6
 800fede:	4639      	mov	r1, r7
 800fee0:	f7f8 fb92 	bl	8008608 <__aeabi_dmul>
 800fee4:	e9cd 0102 	strd	r0, r1, [sp, #8]
 800fee8:	3501      	adds	r5, #1
 800feea:	f8cd 9030 	str.w	r9, [sp, #48]	; 0x30
 800feee:	e9dd 6702 	ldrd	r6, r7, [sp, #8]
 800fef2:	4628      	mov	r0, r5
 800fef4:	f7f8 fb1e 	bl	8008534 <__aeabi_i2d>
 800fef8:	4632      	mov	r2, r6
 800fefa:	463b      	mov	r3, r7
 800fefc:	f7f8 fb84 	bl	8008608 <__aeabi_dmul>
 800ff00:	4b88      	ldr	r3, [pc, #544]	; (8010124 <_dtoa_r+0x654>)
 800ff02:	2200      	movs	r2, #0
 800ff04:	f7f8 f9ca 	bl	800829c <__adddf3>
 800ff08:	f1a1 7350 	sub.w	r3, r1, #54525952	; 0x3400000
 800ff0c:	e9cd 0102 	strd	r0, r1, [sp, #8]
 800ff10:	9303      	str	r3, [sp, #12]
 800ff12:	9b0c      	ldr	r3, [sp, #48]	; 0x30
 800ff14:	2b00      	cmp	r3, #0
 800ff16:	d15c      	bne.n	800ffd2 <_dtoa_r+0x502>
 800ff18:	4b83      	ldr	r3, [pc, #524]	; (8010128 <_dtoa_r+0x658>)
 800ff1a:	2200      	movs	r2, #0
 800ff1c:	4630      	mov	r0, r6
 800ff1e:	4639      	mov	r1, r7
 800ff20:	f7f8 f9ba 	bl	8008298 <__aeabi_dsub>
 800ff24:	e9dd 2302 	ldrd	r2, r3, [sp, #8]
 800ff28:	4606      	mov	r6, r0
 800ff2a:	460f      	mov	r7, r1
 800ff2c:	f7f8 fdfc 	bl	8008b28 <__aeabi_dcmpgt>
 800ff30:	2800      	cmp	r0, #0
 800ff32:	f040 8296 	bne.w	8010462 <_dtoa_r+0x992>
 800ff36:	e9dd 2102 	ldrd	r2, r1, [sp, #8]
 800ff3a:	4630      	mov	r0, r6
 800ff3c:	f101 4300 	add.w	r3, r1, #2147483648	; 0x80000000
 800ff40:	4639      	mov	r1, r7
 800ff42:	f7f8 fdd3 	bl	8008aec <__aeabi_dcmplt>
 800ff46:	2800      	cmp	r0, #0
 800ff48:	f040 8288 	bne.w	801045c <_dtoa_r+0x98c>
 800ff4c:	e9dd 230a 	ldrd	r2, r3, [sp, #40]	; 0x28
 800ff50:	e9cd 2302 	strd	r2, r3, [sp, #8]
 800ff54:	9b13      	ldr	r3, [sp, #76]	; 0x4c
 800ff56:	2b00      	cmp	r3, #0
 800ff58:	f2c0 8158 	blt.w	801020c <_dtoa_r+0x73c>
 800ff5c:	f1ba 0f0e 	cmp.w	sl, #14
 800ff60:	f300 8154 	bgt.w	801020c <_dtoa_r+0x73c>
 800ff64:	4b6b      	ldr	r3, [pc, #428]	; (8010114 <_dtoa_r+0x644>)
 800ff66:	eb03 03ca 	add.w	r3, r3, sl, lsl #3
 800ff6a:	e9d3 8900 	ldrd	r8, r9, [r3]
 800ff6e:	9b09      	ldr	r3, [sp, #36]	; 0x24
 800ff70:	2b00      	cmp	r3, #0
 800ff72:	f280 80e3 	bge.w	801013c <_dtoa_r+0x66c>
 800ff76:	9b01      	ldr	r3, [sp, #4]
 800ff78:	2b00      	cmp	r3, #0
 800ff7a:	f300 80df 	bgt.w	801013c <_dtoa_r+0x66c>
 800ff7e:	f040 826d 	bne.w	801045c <_dtoa_r+0x98c>
 800ff82:	4b69      	ldr	r3, [pc, #420]	; (8010128 <_dtoa_r+0x658>)
 800ff84:	2200      	movs	r2, #0
 800ff86:	4640      	mov	r0, r8
 800ff88:	4649      	mov	r1, r9
 800ff8a:	f7f8 fb3d 	bl	8008608 <__aeabi_dmul>
 800ff8e:	e9dd 2302 	ldrd	r2, r3, [sp, #8]
 800ff92:	f7f8 fdbf 	bl	8008b14 <__aeabi_dcmpge>
 800ff96:	9e01      	ldr	r6, [sp, #4]
 800ff98:	4637      	mov	r7, r6
 800ff9a:	2800      	cmp	r0, #0
 800ff9c:	f040 8243 	bne.w	8010426 <_dtoa_r+0x956>
 800ffa0:	9d00      	ldr	r5, [sp, #0]
 800ffa2:	2331      	movs	r3, #49	; 0x31
 800ffa4:	f805 3b01 	strb.w	r3, [r5], #1
 800ffa8:	f10a 0a01 	add.w	sl, sl, #1
 800ffac:	e23f      	b.n	801042e <_dtoa_r+0x95e>
 800ffae:	07f2      	lsls	r2, r6, #31
 800ffb0:	d505      	bpl.n	800ffbe <_dtoa_r+0x4ee>
 800ffb2:	e9d7 2300 	ldrd	r2, r3, [r7]
 800ffb6:	f7f8 fb27 	bl	8008608 <__aeabi_dmul>
 800ffba:	3501      	adds	r5, #1
 800ffbc:	2301      	movs	r3, #1
 800ffbe:	1076      	asrs	r6, r6, #1
 800ffc0:	3708      	adds	r7, #8
 800ffc2:	e76c      	b.n	800fe9e <_dtoa_r+0x3ce>
 800ffc4:	2502      	movs	r5, #2
 800ffc6:	e76f      	b.n	800fea8 <_dtoa_r+0x3d8>
 800ffc8:	9b01      	ldr	r3, [sp, #4]
 800ffca:	f8cd a01c 	str.w	sl, [sp, #28]
 800ffce:	930c      	str	r3, [sp, #48]	; 0x30
 800ffd0:	e78d      	b.n	800feee <_dtoa_r+0x41e>
 800ffd2:	9900      	ldr	r1, [sp, #0]
 800ffd4:	980c      	ldr	r0, [sp, #48]	; 0x30
 800ffd6:	9a0c      	ldr	r2, [sp, #48]	; 0x30
 800ffd8:	4b4e      	ldr	r3, [pc, #312]	; (8010114 <_dtoa_r+0x644>)
 800ffda:	ed9d 7b02 	vldr	d7, [sp, #8]
 800ffde:	4401      	add	r1, r0
 800ffe0:	9102      	str	r1, [sp, #8]
 800ffe2:	9908      	ldr	r1, [sp, #32]
 800ffe4:	eeb0 8a47 	vmov.f32	s16, s14
 800ffe8:	eef0 8a67 	vmov.f32	s17, s15
 800ffec:	eb03 03c2 	add.w	r3, r3, r2, lsl #3
 800fff0:	e953 2302 	ldrd	r2, r3, [r3, #-8]
 800fff4:	2900      	cmp	r1, #0
 800fff6:	d045      	beq.n	8010084 <_dtoa_r+0x5b4>
 800fff8:	494c      	ldr	r1, [pc, #304]	; (801012c <_dtoa_r+0x65c>)
 800fffa:	2000      	movs	r0, #0
 800fffc:	f7f8 fc2e 	bl	800885c <__aeabi_ddiv>
 8010000:	ec53 2b18 	vmov	r2, r3, d8
 8010004:	f7f8 f948 	bl	8008298 <__aeabi_dsub>
 8010008:	9d00      	ldr	r5, [sp, #0]
 801000a:	ec41 0b18 	vmov	d8, r0, r1
 801000e:	4639      	mov	r1, r7
 8010010:	4630      	mov	r0, r6
 8010012:	f7f8 fda9 	bl	8008b68 <__aeabi_d2iz>
 8010016:	900c      	str	r0, [sp, #48]	; 0x30
 8010018:	f7f8 fa8c 	bl	8008534 <__aeabi_i2d>
 801001c:	4602      	mov	r2, r0
 801001e:	460b      	mov	r3, r1
 8010020:	4630      	mov	r0, r6
 8010022:	4639      	mov	r1, r7
 8010024:	f7f8 f938 	bl	8008298 <__aeabi_dsub>
 8010028:	9b0c      	ldr	r3, [sp, #48]	; 0x30
 801002a:	3330      	adds	r3, #48	; 0x30
 801002c:	f805 3b01 	strb.w	r3, [r5], #1
 8010030:	ec53 2b18 	vmov	r2, r3, d8
 8010034:	4606      	mov	r6, r0
 8010036:	460f      	mov	r7, r1
 8010038:	f7f8 fd58 	bl	8008aec <__aeabi_dcmplt>
 801003c:	2800      	cmp	r0, #0
 801003e:	d165      	bne.n	801010c <_dtoa_r+0x63c>
 8010040:	4632      	mov	r2, r6
 8010042:	463b      	mov	r3, r7
 8010044:	4935      	ldr	r1, [pc, #212]	; (801011c <_dtoa_r+0x64c>)
 8010046:	2000      	movs	r0, #0
 8010048:	f7f8 f926 	bl	8008298 <__aeabi_dsub>
 801004c:	ec53 2b18 	vmov	r2, r3, d8
 8010050:	f7f8 fd4c 	bl	8008aec <__aeabi_dcmplt>
 8010054:	2800      	cmp	r0, #0
 8010056:	f040 80b9 	bne.w	80101cc <_dtoa_r+0x6fc>
 801005a:	9b02      	ldr	r3, [sp, #8]
 801005c:	429d      	cmp	r5, r3
 801005e:	f43f af75 	beq.w	800ff4c <_dtoa_r+0x47c>
 8010062:	4b2f      	ldr	r3, [pc, #188]	; (8010120 <_dtoa_r+0x650>)
 8010064:	ec51 0b18 	vmov	r0, r1, d8
 8010068:	2200      	movs	r2, #0
 801006a:	f7f8 facd 	bl	8008608 <__aeabi_dmul>
 801006e:	4b2c      	ldr	r3, [pc, #176]	; (8010120 <_dtoa_r+0x650>)
 8010070:	ec41 0b18 	vmov	d8, r0, r1
 8010074:	2200      	movs	r2, #0
 8010076:	4630      	mov	r0, r6
 8010078:	4639      	mov	r1, r7
 801007a:	f7f8 fac5 	bl	8008608 <__aeabi_dmul>
 801007e:	4606      	mov	r6, r0
 8010080:	460f      	mov	r7, r1
 8010082:	e7c4      	b.n	801000e <_dtoa_r+0x53e>
 8010084:	ec51 0b17 	vmov	r0, r1, d7
 8010088:	f7f8 fabe 	bl	8008608 <__aeabi_dmul>
 801008c:	9b02      	ldr	r3, [sp, #8]
 801008e:	9d00      	ldr	r5, [sp, #0]
 8010090:	930c      	str	r3, [sp, #48]	; 0x30
 8010092:	ec41 0b18 	vmov	d8, r0, r1
 8010096:	4639      	mov	r1, r7
 8010098:	4630      	mov	r0, r6
 801009a:	f7f8 fd65 	bl	8008b68 <__aeabi_d2iz>
 801009e:	9011      	str	r0, [sp, #68]	; 0x44
 80100a0:	f7f8 fa48 	bl	8008534 <__aeabi_i2d>
 80100a4:	4602      	mov	r2, r0
 80100a6:	460b      	mov	r3, r1
 80100a8:	4630      	mov	r0, r6
 80100aa:	4639      	mov	r1, r7
 80100ac:	f7f8 f8f4 	bl	8008298 <__aeabi_dsub>
 80100b0:	9b11      	ldr	r3, [sp, #68]	; 0x44
 80100b2:	3330      	adds	r3, #48	; 0x30
 80100b4:	f805 3b01 	strb.w	r3, [r5], #1
 80100b8:	9b02      	ldr	r3, [sp, #8]
 80100ba:	429d      	cmp	r5, r3
 80100bc:	4606      	mov	r6, r0
 80100be:	460f      	mov	r7, r1
 80100c0:	f04f 0200 	mov.w	r2, #0
 80100c4:	d134      	bne.n	8010130 <_dtoa_r+0x660>
 80100c6:	4b19      	ldr	r3, [pc, #100]	; (801012c <_dtoa_r+0x65c>)
 80100c8:	ec51 0b18 	vmov	r0, r1, d8
 80100cc:	f7f8 f8e6 	bl	800829c <__adddf3>
 80100d0:	4602      	mov	r2, r0
 80100d2:	460b      	mov	r3, r1
 80100d4:	4630      	mov	r0, r6
 80100d6:	4639      	mov	r1, r7
 80100d8:	f7f8 fd26 	bl	8008b28 <__aeabi_dcmpgt>
 80100dc:	2800      	cmp	r0, #0
 80100de:	d175      	bne.n	80101cc <_dtoa_r+0x6fc>
 80100e0:	ec53 2b18 	vmov	r2, r3, d8
 80100e4:	4911      	ldr	r1, [pc, #68]	; (801012c <_dtoa_r+0x65c>)
 80100e6:	2000      	movs	r0, #0
 80100e8:	f7f8 f8d6 	bl	8008298 <__aeabi_dsub>
 80100ec:	4602      	mov	r2, r0
 80100ee:	460b      	mov	r3, r1
 80100f0:	4630      	mov	r0, r6
 80100f2:	4639      	mov	r1, r7
 80100f4:	f7f8 fcfa 	bl	8008aec <__aeabi_dcmplt>
 80100f8:	2800      	cmp	r0, #0
 80100fa:	f43f af27 	beq.w	800ff4c <_dtoa_r+0x47c>
 80100fe:	9d0c      	ldr	r5, [sp, #48]	; 0x30
 8010100:	1e6b      	subs	r3, r5, #1
 8010102:	930c      	str	r3, [sp, #48]	; 0x30
 8010104:	f815 3c01 	ldrb.w	r3, [r5, #-1]
 8010108:	2b30      	cmp	r3, #48	; 0x30
 801010a:	d0f8      	beq.n	80100fe <_dtoa_r+0x62e>
 801010c:	f8dd a01c 	ldr.w	sl, [sp, #28]
 8010110:	e04a      	b.n	80101a8 <_dtoa_r+0x6d8>
 8010112:	bf00      	nop
 8010114:	08016ee0 	.word	0x08016ee0
 8010118:	08016eb8 	.word	0x08016eb8
 801011c:	3ff00000 	.word	0x3ff00000
 8010120:	40240000 	.word	0x40240000
 8010124:	401c0000 	.word	0x401c0000
 8010128:	40140000 	.word	0x40140000
 801012c:	3fe00000 	.word	0x3fe00000
 8010130:	4baf      	ldr	r3, [pc, #700]	; (80103f0 <_dtoa_r+0x920>)
 8010132:	f7f8 fa69 	bl	8008608 <__aeabi_dmul>
 8010136:	4606      	mov	r6, r0
 8010138:	460f      	mov	r7, r1
 801013a:	e7ac      	b.n	8010096 <_dtoa_r+0x5c6>
 801013c:	e9dd 6702 	ldrd	r6, r7, [sp, #8]
 8010140:	9d00      	ldr	r5, [sp, #0]
 8010142:	4642      	mov	r2, r8
 8010144:	464b      	mov	r3, r9
 8010146:	4630      	mov	r0, r6
 8010148:	4639      	mov	r1, r7
 801014a:	f7f8 fb87 	bl	800885c <__aeabi_ddiv>
 801014e:	f7f8 fd0b 	bl	8008b68 <__aeabi_d2iz>
 8010152:	9002      	str	r0, [sp, #8]
 8010154:	f7f8 f9ee 	bl	8008534 <__aeabi_i2d>
 8010158:	4642      	mov	r2, r8
 801015a:	464b      	mov	r3, r9
 801015c:	f7f8 fa54 	bl	8008608 <__aeabi_dmul>
 8010160:	4602      	mov	r2, r0
 8010162:	460b      	mov	r3, r1
 8010164:	4630      	mov	r0, r6
 8010166:	4639      	mov	r1, r7
 8010168:	f7f8 f896 	bl	8008298 <__aeabi_dsub>
 801016c:	9e02      	ldr	r6, [sp, #8]
 801016e:	9f01      	ldr	r7, [sp, #4]
 8010170:	3630      	adds	r6, #48	; 0x30
 8010172:	f805 6b01 	strb.w	r6, [r5], #1
 8010176:	9e00      	ldr	r6, [sp, #0]
 8010178:	1bae      	subs	r6, r5, r6
 801017a:	42b7      	cmp	r7, r6
 801017c:	4602      	mov	r2, r0
 801017e:	460b      	mov	r3, r1
 8010180:	d137      	bne.n	80101f2 <_dtoa_r+0x722>
 8010182:	f7f8 f88b 	bl	800829c <__adddf3>
 8010186:	4642      	mov	r2, r8
 8010188:	464b      	mov	r3, r9
 801018a:	4606      	mov	r6, r0
 801018c:	460f      	mov	r7, r1
 801018e:	f7f8 fccb 	bl	8008b28 <__aeabi_dcmpgt>
 8010192:	b9c8      	cbnz	r0, 80101c8 <_dtoa_r+0x6f8>
 8010194:	4642      	mov	r2, r8
 8010196:	464b      	mov	r3, r9
 8010198:	4630      	mov	r0, r6
 801019a:	4639      	mov	r1, r7
 801019c:	f7f8 fc9c 	bl	8008ad8 <__aeabi_dcmpeq>
 80101a0:	b110      	cbz	r0, 80101a8 <_dtoa_r+0x6d8>
 80101a2:	9b02      	ldr	r3, [sp, #8]
 80101a4:	07d9      	lsls	r1, r3, #31
 80101a6:	d40f      	bmi.n	80101c8 <_dtoa_r+0x6f8>
 80101a8:	4620      	mov	r0, r4
 80101aa:	4659      	mov	r1, fp
 80101ac:	f000 fac8 	bl	8010740 <_Bfree>
 80101b0:	2300      	movs	r3, #0
 80101b2:	702b      	strb	r3, [r5, #0]
 80101b4:	9b0f      	ldr	r3, [sp, #60]	; 0x3c
 80101b6:	f10a 0001 	add.w	r0, sl, #1
 80101ba:	6018      	str	r0, [r3, #0]
 80101bc:	9b21      	ldr	r3, [sp, #132]	; 0x84
 80101be:	2b00      	cmp	r3, #0
 80101c0:	f43f acd8 	beq.w	800fb74 <_dtoa_r+0xa4>
 80101c4:	601d      	str	r5, [r3, #0]
 80101c6:	e4d5      	b.n	800fb74 <_dtoa_r+0xa4>
 80101c8:	f8cd a01c 	str.w	sl, [sp, #28]
 80101cc:	462b      	mov	r3, r5
 80101ce:	461d      	mov	r5, r3
 80101d0:	f813 2d01 	ldrb.w	r2, [r3, #-1]!
 80101d4:	2a39      	cmp	r2, #57	; 0x39
 80101d6:	d108      	bne.n	80101ea <_dtoa_r+0x71a>
 80101d8:	9a00      	ldr	r2, [sp, #0]
 80101da:	429a      	cmp	r2, r3
 80101dc:	d1f7      	bne.n	80101ce <_dtoa_r+0x6fe>
 80101de:	9a07      	ldr	r2, [sp, #28]
 80101e0:	9900      	ldr	r1, [sp, #0]
 80101e2:	3201      	adds	r2, #1
 80101e4:	9207      	str	r2, [sp, #28]
 80101e6:	2230      	movs	r2, #48	; 0x30
 80101e8:	700a      	strb	r2, [r1, #0]
 80101ea:	781a      	ldrb	r2, [r3, #0]
 80101ec:	3201      	adds	r2, #1
 80101ee:	701a      	strb	r2, [r3, #0]
 80101f0:	e78c      	b.n	801010c <_dtoa_r+0x63c>
 80101f2:	4b7f      	ldr	r3, [pc, #508]	; (80103f0 <_dtoa_r+0x920>)
 80101f4:	2200      	movs	r2, #0
 80101f6:	f7f8 fa07 	bl	8008608 <__aeabi_dmul>
 80101fa:	2200      	movs	r2, #0
 80101fc:	2300      	movs	r3, #0
 80101fe:	4606      	mov	r6, r0
 8010200:	460f      	mov	r7, r1
 8010202:	f7f8 fc69 	bl	8008ad8 <__aeabi_dcmpeq>
 8010206:	2800      	cmp	r0, #0
 8010208:	d09b      	beq.n	8010142 <_dtoa_r+0x672>
 801020a:	e7cd      	b.n	80101a8 <_dtoa_r+0x6d8>
 801020c:	9a08      	ldr	r2, [sp, #32]
 801020e:	2a00      	cmp	r2, #0
 8010210:	f000 80c4 	beq.w	801039c <_dtoa_r+0x8cc>
 8010214:	9a05      	ldr	r2, [sp, #20]
 8010216:	2a01      	cmp	r2, #1
 8010218:	f300 80a8 	bgt.w	801036c <_dtoa_r+0x89c>
 801021c:	9a10      	ldr	r2, [sp, #64]	; 0x40
 801021e:	2a00      	cmp	r2, #0
 8010220:	f000 80a0 	beq.w	8010364 <_dtoa_r+0x894>
 8010224:	f203 4333 	addw	r3, r3, #1075	; 0x433
 8010228:	9e06      	ldr	r6, [sp, #24]
 801022a:	4645      	mov	r5, r8
 801022c:	9a04      	ldr	r2, [sp, #16]
 801022e:	2101      	movs	r1, #1
 8010230:	441a      	add	r2, r3
 8010232:	4620      	mov	r0, r4
 8010234:	4498      	add	r8, r3
 8010236:	9204      	str	r2, [sp, #16]
 8010238:	f000 fb3e 	bl	80108b8 <__i2b>
 801023c:	4607      	mov	r7, r0
 801023e:	2d00      	cmp	r5, #0
 8010240:	dd0b      	ble.n	801025a <_dtoa_r+0x78a>
 8010242:	9b04      	ldr	r3, [sp, #16]
 8010244:	2b00      	cmp	r3, #0
 8010246:	dd08      	ble.n	801025a <_dtoa_r+0x78a>
 8010248:	42ab      	cmp	r3, r5
 801024a:	9a04      	ldr	r2, [sp, #16]
 801024c:	bfa8      	it	ge
 801024e:	462b      	movge	r3, r5
 8010250:	eba8 0803 	sub.w	r8, r8, r3
 8010254:	1aed      	subs	r5, r5, r3
 8010256:	1ad3      	subs	r3, r2, r3
 8010258:	9304      	str	r3, [sp, #16]
 801025a:	9b06      	ldr	r3, [sp, #24]
 801025c:	b1fb      	cbz	r3, 801029e <_dtoa_r+0x7ce>
 801025e:	9b08      	ldr	r3, [sp, #32]
 8010260:	2b00      	cmp	r3, #0
 8010262:	f000 809f 	beq.w	80103a4 <_dtoa_r+0x8d4>
 8010266:	2e00      	cmp	r6, #0
 8010268:	dd11      	ble.n	801028e <_dtoa_r+0x7be>
 801026a:	4639      	mov	r1, r7
 801026c:	4632      	mov	r2, r6
 801026e:	4620      	mov	r0, r4
 8010270:	f000 fbde 	bl	8010a30 <__pow5mult>
 8010274:	465a      	mov	r2, fp
 8010276:	4601      	mov	r1, r0
 8010278:	4607      	mov	r7, r0
 801027a:	4620      	mov	r0, r4
 801027c:	f000 fb32 	bl	80108e4 <__multiply>
 8010280:	4659      	mov	r1, fp
 8010282:	9007      	str	r0, [sp, #28]
 8010284:	4620      	mov	r0, r4
 8010286:	f000 fa5b 	bl	8010740 <_Bfree>
 801028a:	9b07      	ldr	r3, [sp, #28]
 801028c:	469b      	mov	fp, r3
 801028e:	9b06      	ldr	r3, [sp, #24]
 8010290:	1b9a      	subs	r2, r3, r6
 8010292:	d004      	beq.n	801029e <_dtoa_r+0x7ce>
 8010294:	4659      	mov	r1, fp
 8010296:	4620      	mov	r0, r4
 8010298:	f000 fbca 	bl	8010a30 <__pow5mult>
 801029c:	4683      	mov	fp, r0
 801029e:	2101      	movs	r1, #1
 80102a0:	4620      	mov	r0, r4
 80102a2:	f000 fb09 	bl	80108b8 <__i2b>
 80102a6:	9b0d      	ldr	r3, [sp, #52]	; 0x34
 80102a8:	2b00      	cmp	r3, #0
 80102aa:	4606      	mov	r6, r0
 80102ac:	dd7c      	ble.n	80103a8 <_dtoa_r+0x8d8>
 80102ae:	461a      	mov	r2, r3
 80102b0:	4601      	mov	r1, r0
 80102b2:	4620      	mov	r0, r4
 80102b4:	f000 fbbc 	bl	8010a30 <__pow5mult>
 80102b8:	9b05      	ldr	r3, [sp, #20]
 80102ba:	2b01      	cmp	r3, #1
 80102bc:	4606      	mov	r6, r0
 80102be:	dd76      	ble.n	80103ae <_dtoa_r+0x8de>
 80102c0:	2300      	movs	r3, #0
 80102c2:	9306      	str	r3, [sp, #24]
 80102c4:	6933      	ldr	r3, [r6, #16]
 80102c6:	eb06 0383 	add.w	r3, r6, r3, lsl #2
 80102ca:	6918      	ldr	r0, [r3, #16]
 80102cc:	f000 faa4 	bl	8010818 <__hi0bits>
 80102d0:	f1c0 0020 	rsb	r0, r0, #32
 80102d4:	9b04      	ldr	r3, [sp, #16]
 80102d6:	4418      	add	r0, r3
 80102d8:	f010 001f 	ands.w	r0, r0, #31
 80102dc:	f000 8086 	beq.w	80103ec <_dtoa_r+0x91c>
 80102e0:	f1c0 0320 	rsb	r3, r0, #32
 80102e4:	2b04      	cmp	r3, #4
 80102e6:	dd7f      	ble.n	80103e8 <_dtoa_r+0x918>
 80102e8:	f1c0 001c 	rsb	r0, r0, #28
 80102ec:	9b04      	ldr	r3, [sp, #16]
 80102ee:	4403      	add	r3, r0
 80102f0:	4480      	add	r8, r0
 80102f2:	4405      	add	r5, r0
 80102f4:	9304      	str	r3, [sp, #16]
 80102f6:	f1b8 0f00 	cmp.w	r8, #0
 80102fa:	dd05      	ble.n	8010308 <_dtoa_r+0x838>
 80102fc:	4659      	mov	r1, fp
 80102fe:	4642      	mov	r2, r8
 8010300:	4620      	mov	r0, r4
 8010302:	f000 fbef 	bl	8010ae4 <__lshift>
 8010306:	4683      	mov	fp, r0
 8010308:	9b04      	ldr	r3, [sp, #16]
 801030a:	2b00      	cmp	r3, #0
 801030c:	dd05      	ble.n	801031a <_dtoa_r+0x84a>
 801030e:	4631      	mov	r1, r6
 8010310:	461a      	mov	r2, r3
 8010312:	4620      	mov	r0, r4
 8010314:	f000 fbe6 	bl	8010ae4 <__lshift>
 8010318:	4606      	mov	r6, r0
 801031a:	9b0e      	ldr	r3, [sp, #56]	; 0x38
 801031c:	2b00      	cmp	r3, #0
 801031e:	d069      	beq.n	80103f4 <_dtoa_r+0x924>
 8010320:	4631      	mov	r1, r6
 8010322:	4658      	mov	r0, fp
 8010324:	f000 fc4a 	bl	8010bbc <__mcmp>
 8010328:	2800      	cmp	r0, #0
 801032a:	da63      	bge.n	80103f4 <_dtoa_r+0x924>
 801032c:	2300      	movs	r3, #0
 801032e:	4659      	mov	r1, fp
 8010330:	220a      	movs	r2, #10
 8010332:	4620      	mov	r0, r4
 8010334:	f000 fa26 	bl	8010784 <__multadd>
 8010338:	9b08      	ldr	r3, [sp, #32]
 801033a:	f10a 3aff 	add.w	sl, sl, #4294967295	; 0xffffffff
 801033e:	4683      	mov	fp, r0
 8010340:	2b00      	cmp	r3, #0
 8010342:	f000 818f 	beq.w	8010664 <_dtoa_r+0xb94>
 8010346:	4639      	mov	r1, r7
 8010348:	2300      	movs	r3, #0
 801034a:	220a      	movs	r2, #10
 801034c:	4620      	mov	r0, r4
 801034e:	f000 fa19 	bl	8010784 <__multadd>
 8010352:	f1b9 0f00 	cmp.w	r9, #0
 8010356:	4607      	mov	r7, r0
 8010358:	f300 808e 	bgt.w	8010478 <_dtoa_r+0x9a8>
 801035c:	9b05      	ldr	r3, [sp, #20]
 801035e:	2b02      	cmp	r3, #2
 8010360:	dc50      	bgt.n	8010404 <_dtoa_r+0x934>
 8010362:	e089      	b.n	8010478 <_dtoa_r+0x9a8>
 8010364:	9b12      	ldr	r3, [sp, #72]	; 0x48
 8010366:	f1c3 0336 	rsb	r3, r3, #54	; 0x36
 801036a:	e75d      	b.n	8010228 <_dtoa_r+0x758>
 801036c:	9b01      	ldr	r3, [sp, #4]
 801036e:	1e5e      	subs	r6, r3, #1
 8010370:	9b06      	ldr	r3, [sp, #24]
 8010372:	42b3      	cmp	r3, r6
 8010374:	bfbf      	itttt	lt
 8010376:	9b06      	ldrlt	r3, [sp, #24]
 8010378:	9606      	strlt	r6, [sp, #24]
 801037a:	1af2      	sublt	r2, r6, r3
 801037c:	9b0d      	ldrlt	r3, [sp, #52]	; 0x34
 801037e:	bfb6      	itet	lt
 8010380:	189b      	addlt	r3, r3, r2
 8010382:	1b9e      	subge	r6, r3, r6
 8010384:	930d      	strlt	r3, [sp, #52]	; 0x34
 8010386:	9b01      	ldr	r3, [sp, #4]
 8010388:	bfb8      	it	lt
 801038a:	2600      	movlt	r6, #0
 801038c:	2b00      	cmp	r3, #0
 801038e:	bfb5      	itete	lt
 8010390:	eba8 0503 	sublt.w	r5, r8, r3
 8010394:	9b01      	ldrge	r3, [sp, #4]
 8010396:	2300      	movlt	r3, #0
 8010398:	4645      	movge	r5, r8
 801039a:	e747      	b.n	801022c <_dtoa_r+0x75c>
 801039c:	9e06      	ldr	r6, [sp, #24]
 801039e:	9f08      	ldr	r7, [sp, #32]
 80103a0:	4645      	mov	r5, r8
 80103a2:	e74c      	b.n	801023e <_dtoa_r+0x76e>
 80103a4:	9a06      	ldr	r2, [sp, #24]
 80103a6:	e775      	b.n	8010294 <_dtoa_r+0x7c4>
 80103a8:	9b05      	ldr	r3, [sp, #20]
 80103aa:	2b01      	cmp	r3, #1
 80103ac:	dc18      	bgt.n	80103e0 <_dtoa_r+0x910>
 80103ae:	9b02      	ldr	r3, [sp, #8]
 80103b0:	b9b3      	cbnz	r3, 80103e0 <_dtoa_r+0x910>
 80103b2:	9b03      	ldr	r3, [sp, #12]
 80103b4:	f3c3 0313 	ubfx	r3, r3, #0, #20
 80103b8:	b9a3      	cbnz	r3, 80103e4 <_dtoa_r+0x914>
 80103ba:	9b03      	ldr	r3, [sp, #12]
 80103bc:	f023 4300 	bic.w	r3, r3, #2147483648	; 0x80000000
 80103c0:	0d1b      	lsrs	r3, r3, #20
 80103c2:	051b      	lsls	r3, r3, #20
 80103c4:	b12b      	cbz	r3, 80103d2 <_dtoa_r+0x902>
 80103c6:	9b04      	ldr	r3, [sp, #16]
 80103c8:	3301      	adds	r3, #1
 80103ca:	9304      	str	r3, [sp, #16]
 80103cc:	f108 0801 	add.w	r8, r8, #1
 80103d0:	2301      	movs	r3, #1
 80103d2:	9306      	str	r3, [sp, #24]
 80103d4:	9b0d      	ldr	r3, [sp, #52]	; 0x34
 80103d6:	2b00      	cmp	r3, #0
 80103d8:	f47f af74 	bne.w	80102c4 <_dtoa_r+0x7f4>
 80103dc:	2001      	movs	r0, #1
 80103de:	e779      	b.n	80102d4 <_dtoa_r+0x804>
 80103e0:	2300      	movs	r3, #0
 80103e2:	e7f6      	b.n	80103d2 <_dtoa_r+0x902>
 80103e4:	9b02      	ldr	r3, [sp, #8]
 80103e6:	e7f4      	b.n	80103d2 <_dtoa_r+0x902>
 80103e8:	d085      	beq.n	80102f6 <_dtoa_r+0x826>
 80103ea:	4618      	mov	r0, r3
 80103ec:	301c      	adds	r0, #28
 80103ee:	e77d      	b.n	80102ec <_dtoa_r+0x81c>
 80103f0:	40240000 	.word	0x40240000
 80103f4:	9b01      	ldr	r3, [sp, #4]
 80103f6:	2b00      	cmp	r3, #0
 80103f8:	dc38      	bgt.n	801046c <_dtoa_r+0x99c>
 80103fa:	9b05      	ldr	r3, [sp, #20]
 80103fc:	2b02      	cmp	r3, #2
 80103fe:	dd35      	ble.n	801046c <_dtoa_r+0x99c>
 8010400:	f8dd 9004 	ldr.w	r9, [sp, #4]
 8010404:	f1b9 0f00 	cmp.w	r9, #0
 8010408:	d10d      	bne.n	8010426 <_dtoa_r+0x956>
 801040a:	4631      	mov	r1, r6
 801040c:	464b      	mov	r3, r9
 801040e:	2205      	movs	r2, #5
 8010410:	4620      	mov	r0, r4
 8010412:	f000 f9b7 	bl	8010784 <__multadd>
 8010416:	4601      	mov	r1, r0
 8010418:	4606      	mov	r6, r0
 801041a:	4658      	mov	r0, fp
 801041c:	f000 fbce 	bl	8010bbc <__mcmp>
 8010420:	2800      	cmp	r0, #0
 8010422:	f73f adbd 	bgt.w	800ffa0 <_dtoa_r+0x4d0>
 8010426:	9b09      	ldr	r3, [sp, #36]	; 0x24
 8010428:	9d00      	ldr	r5, [sp, #0]
 801042a:	ea6f 0a03 	mvn.w	sl, r3
 801042e:	f04f 0800 	mov.w	r8, #0
 8010432:	4631      	mov	r1, r6
 8010434:	4620      	mov	r0, r4
 8010436:	f000 f983 	bl	8010740 <_Bfree>
 801043a:	2f00      	cmp	r7, #0
 801043c:	f43f aeb4 	beq.w	80101a8 <_dtoa_r+0x6d8>
 8010440:	f1b8 0f00 	cmp.w	r8, #0
 8010444:	d005      	beq.n	8010452 <_dtoa_r+0x982>
 8010446:	45b8      	cmp	r8, r7
 8010448:	d003      	beq.n	8010452 <_dtoa_r+0x982>
 801044a:	4641      	mov	r1, r8
 801044c:	4620      	mov	r0, r4
 801044e:	f000 f977 	bl	8010740 <_Bfree>
 8010452:	4639      	mov	r1, r7
 8010454:	4620      	mov	r0, r4
 8010456:	f000 f973 	bl	8010740 <_Bfree>
 801045a:	e6a5      	b.n	80101a8 <_dtoa_r+0x6d8>
 801045c:	2600      	movs	r6, #0
 801045e:	4637      	mov	r7, r6
 8010460:	e7e1      	b.n	8010426 <_dtoa_r+0x956>
 8010462:	9e0c      	ldr	r6, [sp, #48]	; 0x30
 8010464:	f8dd a01c 	ldr.w	sl, [sp, #28]
 8010468:	4637      	mov	r7, r6
 801046a:	e599      	b.n	800ffa0 <_dtoa_r+0x4d0>
 801046c:	9b08      	ldr	r3, [sp, #32]
 801046e:	f8dd 9004 	ldr.w	r9, [sp, #4]
 8010472:	2b00      	cmp	r3, #0
 8010474:	f000 80fd 	beq.w	8010672 <_dtoa_r+0xba2>
 8010478:	2d00      	cmp	r5, #0
 801047a:	dd05      	ble.n	8010488 <_dtoa_r+0x9b8>
 801047c:	4639      	mov	r1, r7
 801047e:	462a      	mov	r2, r5
 8010480:	4620      	mov	r0, r4
 8010482:	f000 fb2f 	bl	8010ae4 <__lshift>
 8010486:	4607      	mov	r7, r0
 8010488:	9b06      	ldr	r3, [sp, #24]
 801048a:	2b00      	cmp	r3, #0
 801048c:	d05c      	beq.n	8010548 <_dtoa_r+0xa78>
 801048e:	6879      	ldr	r1, [r7, #4]
 8010490:	4620      	mov	r0, r4
 8010492:	f000 f915 	bl	80106c0 <_Balloc>
 8010496:	4605      	mov	r5, r0
 8010498:	b928      	cbnz	r0, 80104a6 <_dtoa_r+0x9d6>
 801049a:	4b80      	ldr	r3, [pc, #512]	; (801069c <_dtoa_r+0xbcc>)
 801049c:	4602      	mov	r2, r0
 801049e:	f240 21ea 	movw	r1, #746	; 0x2ea
 80104a2:	f7ff bb2e 	b.w	800fb02 <_dtoa_r+0x32>
 80104a6:	693a      	ldr	r2, [r7, #16]
 80104a8:	3202      	adds	r2, #2
 80104aa:	0092      	lsls	r2, r2, #2
 80104ac:	f107 010c 	add.w	r1, r7, #12
 80104b0:	300c      	adds	r0, #12
 80104b2:	f7fe fcc9 	bl	800ee48 <memcpy>
 80104b6:	2201      	movs	r2, #1
 80104b8:	4629      	mov	r1, r5
 80104ba:	4620      	mov	r0, r4
 80104bc:	f000 fb12 	bl	8010ae4 <__lshift>
 80104c0:	9b00      	ldr	r3, [sp, #0]
 80104c2:	3301      	adds	r3, #1
 80104c4:	9301      	str	r3, [sp, #4]
 80104c6:	9b00      	ldr	r3, [sp, #0]
 80104c8:	444b      	add	r3, r9
 80104ca:	9307      	str	r3, [sp, #28]
 80104cc:	9b02      	ldr	r3, [sp, #8]
 80104ce:	f003 0301 	and.w	r3, r3, #1
 80104d2:	46b8      	mov	r8, r7
 80104d4:	9306      	str	r3, [sp, #24]
 80104d6:	4607      	mov	r7, r0
 80104d8:	9b01      	ldr	r3, [sp, #4]
 80104da:	4631      	mov	r1, r6
 80104dc:	3b01      	subs	r3, #1
 80104de:	4658      	mov	r0, fp
 80104e0:	9302      	str	r3, [sp, #8]
 80104e2:	f7ff fa67 	bl	800f9b4 <quorem>
 80104e6:	4603      	mov	r3, r0
 80104e8:	3330      	adds	r3, #48	; 0x30
 80104ea:	9004      	str	r0, [sp, #16]
 80104ec:	4641      	mov	r1, r8
 80104ee:	4658      	mov	r0, fp
 80104f0:	9308      	str	r3, [sp, #32]
 80104f2:	f000 fb63 	bl	8010bbc <__mcmp>
 80104f6:	463a      	mov	r2, r7
 80104f8:	4681      	mov	r9, r0
 80104fa:	4631      	mov	r1, r6
 80104fc:	4620      	mov	r0, r4
 80104fe:	f000 fb79 	bl	8010bf4 <__mdiff>
 8010502:	68c2      	ldr	r2, [r0, #12]
 8010504:	9b08      	ldr	r3, [sp, #32]
 8010506:	4605      	mov	r5, r0
 8010508:	bb02      	cbnz	r2, 801054c <_dtoa_r+0xa7c>
 801050a:	4601      	mov	r1, r0
 801050c:	4658      	mov	r0, fp
 801050e:	f000 fb55 	bl	8010bbc <__mcmp>
 8010512:	9b08      	ldr	r3, [sp, #32]
 8010514:	4602      	mov	r2, r0
 8010516:	4629      	mov	r1, r5
 8010518:	4620      	mov	r0, r4
 801051a:	e9cd 3208 	strd	r3, r2, [sp, #32]
 801051e:	f000 f90f 	bl	8010740 <_Bfree>
 8010522:	9b05      	ldr	r3, [sp, #20]
 8010524:	9a09      	ldr	r2, [sp, #36]	; 0x24
 8010526:	9d01      	ldr	r5, [sp, #4]
 8010528:	ea43 0102 	orr.w	r1, r3, r2
 801052c:	9b06      	ldr	r3, [sp, #24]
 801052e:	430b      	orrs	r3, r1
 8010530:	9b08      	ldr	r3, [sp, #32]
 8010532:	d10d      	bne.n	8010550 <_dtoa_r+0xa80>
 8010534:	2b39      	cmp	r3, #57	; 0x39
 8010536:	d029      	beq.n	801058c <_dtoa_r+0xabc>
 8010538:	f1b9 0f00 	cmp.w	r9, #0
 801053c:	dd01      	ble.n	8010542 <_dtoa_r+0xa72>
 801053e:	9b04      	ldr	r3, [sp, #16]
 8010540:	3331      	adds	r3, #49	; 0x31
 8010542:	9a02      	ldr	r2, [sp, #8]
 8010544:	7013      	strb	r3, [r2, #0]
 8010546:	e774      	b.n	8010432 <_dtoa_r+0x962>
 8010548:	4638      	mov	r0, r7
 801054a:	e7b9      	b.n	80104c0 <_dtoa_r+0x9f0>
 801054c:	2201      	movs	r2, #1
 801054e:	e7e2      	b.n	8010516 <_dtoa_r+0xa46>
 8010550:	f1b9 0f00 	cmp.w	r9, #0
 8010554:	db06      	blt.n	8010564 <_dtoa_r+0xa94>
 8010556:	9905      	ldr	r1, [sp, #20]
 8010558:	ea41 0909 	orr.w	r9, r1, r9
 801055c:	9906      	ldr	r1, [sp, #24]
 801055e:	ea59 0101 	orrs.w	r1, r9, r1
 8010562:	d120      	bne.n	80105a6 <_dtoa_r+0xad6>
 8010564:	2a00      	cmp	r2, #0
 8010566:	ddec      	ble.n	8010542 <_dtoa_r+0xa72>
 8010568:	4659      	mov	r1, fp
 801056a:	2201      	movs	r2, #1
 801056c:	4620      	mov	r0, r4
 801056e:	9301      	str	r3, [sp, #4]
 8010570:	f000 fab8 	bl	8010ae4 <__lshift>
 8010574:	4631      	mov	r1, r6
 8010576:	4683      	mov	fp, r0
 8010578:	f000 fb20 	bl	8010bbc <__mcmp>
 801057c:	2800      	cmp	r0, #0
 801057e:	9b01      	ldr	r3, [sp, #4]
 8010580:	dc02      	bgt.n	8010588 <_dtoa_r+0xab8>
 8010582:	d1de      	bne.n	8010542 <_dtoa_r+0xa72>
 8010584:	07da      	lsls	r2, r3, #31
 8010586:	d5dc      	bpl.n	8010542 <_dtoa_r+0xa72>
 8010588:	2b39      	cmp	r3, #57	; 0x39
 801058a:	d1d8      	bne.n	801053e <_dtoa_r+0xa6e>
 801058c:	9a02      	ldr	r2, [sp, #8]
 801058e:	2339      	movs	r3, #57	; 0x39
 8010590:	7013      	strb	r3, [r2, #0]
 8010592:	462b      	mov	r3, r5
 8010594:	461d      	mov	r5, r3
 8010596:	3b01      	subs	r3, #1
 8010598:	f815 2c01 	ldrb.w	r2, [r5, #-1]
 801059c:	2a39      	cmp	r2, #57	; 0x39
 801059e:	d050      	beq.n	8010642 <_dtoa_r+0xb72>
 80105a0:	3201      	adds	r2, #1
 80105a2:	701a      	strb	r2, [r3, #0]
 80105a4:	e745      	b.n	8010432 <_dtoa_r+0x962>
 80105a6:	2a00      	cmp	r2, #0
 80105a8:	dd03      	ble.n	80105b2 <_dtoa_r+0xae2>
 80105aa:	2b39      	cmp	r3, #57	; 0x39
 80105ac:	d0ee      	beq.n	801058c <_dtoa_r+0xabc>
 80105ae:	3301      	adds	r3, #1
 80105b0:	e7c7      	b.n	8010542 <_dtoa_r+0xa72>
 80105b2:	9a01      	ldr	r2, [sp, #4]
 80105b4:	9907      	ldr	r1, [sp, #28]
 80105b6:	f802 3c01 	strb.w	r3, [r2, #-1]
 80105ba:	428a      	cmp	r2, r1
 80105bc:	d02a      	beq.n	8010614 <_dtoa_r+0xb44>
 80105be:	4659      	mov	r1, fp
 80105c0:	2300      	movs	r3, #0
 80105c2:	220a      	movs	r2, #10
 80105c4:	4620      	mov	r0, r4
 80105c6:	f000 f8dd 	bl	8010784 <__multadd>
 80105ca:	45b8      	cmp	r8, r7
 80105cc:	4683      	mov	fp, r0
 80105ce:	f04f 0300 	mov.w	r3, #0
 80105d2:	f04f 020a 	mov.w	r2, #10
 80105d6:	4641      	mov	r1, r8
 80105d8:	4620      	mov	r0, r4
 80105da:	d107      	bne.n	80105ec <_dtoa_r+0xb1c>
 80105dc:	f000 f8d2 	bl	8010784 <__multadd>
 80105e0:	4680      	mov	r8, r0
 80105e2:	4607      	mov	r7, r0
 80105e4:	9b01      	ldr	r3, [sp, #4]
 80105e6:	3301      	adds	r3, #1
 80105e8:	9301      	str	r3, [sp, #4]
 80105ea:	e775      	b.n	80104d8 <_dtoa_r+0xa08>
 80105ec:	f000 f8ca 	bl	8010784 <__multadd>
 80105f0:	4639      	mov	r1, r7
 80105f2:	4680      	mov	r8, r0
 80105f4:	2300      	movs	r3, #0
 80105f6:	220a      	movs	r2, #10
 80105f8:	4620      	mov	r0, r4
 80105fa:	f000 f8c3 	bl	8010784 <__multadd>
 80105fe:	4607      	mov	r7, r0
 8010600:	e7f0      	b.n	80105e4 <_dtoa_r+0xb14>
 8010602:	f1b9 0f00 	cmp.w	r9, #0
 8010606:	9a00      	ldr	r2, [sp, #0]
 8010608:	bfcc      	ite	gt
 801060a:	464d      	movgt	r5, r9
 801060c:	2501      	movle	r5, #1
 801060e:	4415      	add	r5, r2
 8010610:	f04f 0800 	mov.w	r8, #0
 8010614:	4659      	mov	r1, fp
 8010616:	2201      	movs	r2, #1
 8010618:	4620      	mov	r0, r4
 801061a:	9301      	str	r3, [sp, #4]
 801061c:	f000 fa62 	bl	8010ae4 <__lshift>
 8010620:	4631      	mov	r1, r6
 8010622:	4683      	mov	fp, r0
 8010624:	f000 faca 	bl	8010bbc <__mcmp>
 8010628:	2800      	cmp	r0, #0
 801062a:	dcb2      	bgt.n	8010592 <_dtoa_r+0xac2>
 801062c:	d102      	bne.n	8010634 <_dtoa_r+0xb64>
 801062e:	9b01      	ldr	r3, [sp, #4]
 8010630:	07db      	lsls	r3, r3, #31
 8010632:	d4ae      	bmi.n	8010592 <_dtoa_r+0xac2>
 8010634:	462b      	mov	r3, r5
 8010636:	461d      	mov	r5, r3
 8010638:	f813 2d01 	ldrb.w	r2, [r3, #-1]!
 801063c:	2a30      	cmp	r2, #48	; 0x30
 801063e:	d0fa      	beq.n	8010636 <_dtoa_r+0xb66>
 8010640:	e6f7      	b.n	8010432 <_dtoa_r+0x962>
 8010642:	9a00      	ldr	r2, [sp, #0]
 8010644:	429a      	cmp	r2, r3
 8010646:	d1a5      	bne.n	8010594 <_dtoa_r+0xac4>
 8010648:	f10a 0a01 	add.w	sl, sl, #1
 801064c:	2331      	movs	r3, #49	; 0x31
 801064e:	e779      	b.n	8010544 <_dtoa_r+0xa74>
 8010650:	4b13      	ldr	r3, [pc, #76]	; (80106a0 <_dtoa_r+0xbd0>)
 8010652:	f7ff baaf 	b.w	800fbb4 <_dtoa_r+0xe4>
 8010656:	9b21      	ldr	r3, [sp, #132]	; 0x84
 8010658:	2b00      	cmp	r3, #0
 801065a:	f47f aa86 	bne.w	800fb6a <_dtoa_r+0x9a>
 801065e:	4b11      	ldr	r3, [pc, #68]	; (80106a4 <_dtoa_r+0xbd4>)
 8010660:	f7ff baa8 	b.w	800fbb4 <_dtoa_r+0xe4>
 8010664:	f1b9 0f00 	cmp.w	r9, #0
 8010668:	dc03      	bgt.n	8010672 <_dtoa_r+0xba2>
 801066a:	9b05      	ldr	r3, [sp, #20]
 801066c:	2b02      	cmp	r3, #2
 801066e:	f73f aec9 	bgt.w	8010404 <_dtoa_r+0x934>
 8010672:	9d00      	ldr	r5, [sp, #0]
 8010674:	4631      	mov	r1, r6
 8010676:	4658      	mov	r0, fp
 8010678:	f7ff f99c 	bl	800f9b4 <quorem>
 801067c:	f100 0330 	add.w	r3, r0, #48	; 0x30
 8010680:	f805 3b01 	strb.w	r3, [r5], #1
 8010684:	9a00      	ldr	r2, [sp, #0]
 8010686:	1aaa      	subs	r2, r5, r2
 8010688:	4591      	cmp	r9, r2
 801068a:	ddba      	ble.n	8010602 <_dtoa_r+0xb32>
 801068c:	4659      	mov	r1, fp
 801068e:	2300      	movs	r3, #0
 8010690:	220a      	movs	r2, #10
 8010692:	4620      	mov	r0, r4
 8010694:	f000 f876 	bl	8010784 <__multadd>
 8010698:	4683      	mov	fp, r0
 801069a:	e7eb      	b.n	8010674 <_dtoa_r+0xba4>
 801069c:	08016e44 	.word	0x08016e44
 80106a0:	08016c9c 	.word	0x08016c9c
 80106a4:	08016dc1 	.word	0x08016dc1

080106a8 <_localeconv_r>:
 80106a8:	4800      	ldr	r0, [pc, #0]	; (80106ac <_localeconv_r+0x4>)
 80106aa:	4770      	bx	lr
 80106ac:	200001c0 	.word	0x200001c0

080106b0 <malloc>:
 80106b0:	4b02      	ldr	r3, [pc, #8]	; (80106bc <malloc+0xc>)
 80106b2:	4601      	mov	r1, r0
 80106b4:	6818      	ldr	r0, [r3, #0]
 80106b6:	f000 bbe1 	b.w	8010e7c <_malloc_r>
 80106ba:	bf00      	nop
 80106bc:	2000006c 	.word	0x2000006c

080106c0 <_Balloc>:
 80106c0:	b570      	push	{r4, r5, r6, lr}
 80106c2:	6a46      	ldr	r6, [r0, #36]	; 0x24
 80106c4:	4604      	mov	r4, r0
 80106c6:	460d      	mov	r5, r1
 80106c8:	b976      	cbnz	r6, 80106e8 <_Balloc+0x28>
 80106ca:	2010      	movs	r0, #16
 80106cc:	f7ff fff0 	bl	80106b0 <malloc>
 80106d0:	4602      	mov	r2, r0
 80106d2:	6260      	str	r0, [r4, #36]	; 0x24
 80106d4:	b920      	cbnz	r0, 80106e0 <_Balloc+0x20>
 80106d6:	4b18      	ldr	r3, [pc, #96]	; (8010738 <_Balloc+0x78>)
 80106d8:	4818      	ldr	r0, [pc, #96]	; (801073c <_Balloc+0x7c>)
 80106da:	2166      	movs	r1, #102	; 0x66
 80106dc:	f000 fd94 	bl	8011208 <__assert_func>
 80106e0:	e9c0 6601 	strd	r6, r6, [r0, #4]
 80106e4:	6006      	str	r6, [r0, #0]
 80106e6:	60c6      	str	r6, [r0, #12]
 80106e8:	6a66      	ldr	r6, [r4, #36]	; 0x24
 80106ea:	68f3      	ldr	r3, [r6, #12]
 80106ec:	b183      	cbz	r3, 8010710 <_Balloc+0x50>
 80106ee:	6a63      	ldr	r3, [r4, #36]	; 0x24
 80106f0:	68db      	ldr	r3, [r3, #12]
 80106f2:	f853 0025 	ldr.w	r0, [r3, r5, lsl #2]
 80106f6:	b9b8      	cbnz	r0, 8010728 <_Balloc+0x68>
 80106f8:	2101      	movs	r1, #1
 80106fa:	fa01 f605 	lsl.w	r6, r1, r5
 80106fe:	1d72      	adds	r2, r6, #5
 8010700:	0092      	lsls	r2, r2, #2
 8010702:	4620      	mov	r0, r4
 8010704:	f000 fb5a 	bl	8010dbc <_calloc_r>
 8010708:	b160      	cbz	r0, 8010724 <_Balloc+0x64>
 801070a:	e9c0 5601 	strd	r5, r6, [r0, #4]
 801070e:	e00e      	b.n	801072e <_Balloc+0x6e>
 8010710:	2221      	movs	r2, #33	; 0x21
 8010712:	2104      	movs	r1, #4
 8010714:	4620      	mov	r0, r4
 8010716:	f000 fb51 	bl	8010dbc <_calloc_r>
 801071a:	6a63      	ldr	r3, [r4, #36]	; 0x24
 801071c:	60f0      	str	r0, [r6, #12]
 801071e:	68db      	ldr	r3, [r3, #12]
 8010720:	2b00      	cmp	r3, #0
 8010722:	d1e4      	bne.n	80106ee <_Balloc+0x2e>
 8010724:	2000      	movs	r0, #0
 8010726:	bd70      	pop	{r4, r5, r6, pc}
 8010728:	6802      	ldr	r2, [r0, #0]
 801072a:	f843 2025 	str.w	r2, [r3, r5, lsl #2]
 801072e:	2300      	movs	r3, #0
 8010730:	e9c0 3303 	strd	r3, r3, [r0, #12]
 8010734:	e7f7      	b.n	8010726 <_Balloc+0x66>
 8010736:	bf00      	nop
 8010738:	08016dce 	.word	0x08016dce
 801073c:	08016e55 	.word	0x08016e55

08010740 <_Bfree>:
 8010740:	b570      	push	{r4, r5, r6, lr}
 8010742:	6a46      	ldr	r6, [r0, #36]	; 0x24
 8010744:	4605      	mov	r5, r0
 8010746:	460c      	mov	r4, r1
 8010748:	b976      	cbnz	r6, 8010768 <_Bfree+0x28>
 801074a:	2010      	movs	r0, #16
 801074c:	f7ff ffb0 	bl	80106b0 <malloc>
 8010750:	4602      	mov	r2, r0
 8010752:	6268      	str	r0, [r5, #36]	; 0x24
 8010754:	b920      	cbnz	r0, 8010760 <_Bfree+0x20>
 8010756:	4b09      	ldr	r3, [pc, #36]	; (801077c <_Bfree+0x3c>)
 8010758:	4809      	ldr	r0, [pc, #36]	; (8010780 <_Bfree+0x40>)
 801075a:	218a      	movs	r1, #138	; 0x8a
 801075c:	f000 fd54 	bl	8011208 <__assert_func>
 8010760:	e9c0 6601 	strd	r6, r6, [r0, #4]
 8010764:	6006      	str	r6, [r0, #0]
 8010766:	60c6      	str	r6, [r0, #12]
 8010768:	b13c      	cbz	r4, 801077a <_Bfree+0x3a>
 801076a:	6a6b      	ldr	r3, [r5, #36]	; 0x24
 801076c:	6862      	ldr	r2, [r4, #4]
 801076e:	68db      	ldr	r3, [r3, #12]
 8010770:	f853 1022 	ldr.w	r1, [r3, r2, lsl #2]
 8010774:	6021      	str	r1, [r4, #0]
 8010776:	f843 4022 	str.w	r4, [r3, r2, lsl #2]
 801077a:	bd70      	pop	{r4, r5, r6, pc}
 801077c:	08016dce 	.word	0x08016dce
 8010780:	08016e55 	.word	0x08016e55

08010784 <__multadd>:
 8010784:	e92d 41f0 	stmdb	sp!, {r4, r5, r6, r7, r8, lr}
 8010788:	690e      	ldr	r6, [r1, #16]
 801078a:	4607      	mov	r7, r0
 801078c:	4698      	mov	r8, r3
 801078e:	460c      	mov	r4, r1
 8010790:	f101 0014 	add.w	r0, r1, #20
 8010794:	2300      	movs	r3, #0
 8010796:	6805      	ldr	r5, [r0, #0]
 8010798:	b2a9      	uxth	r1, r5
 801079a:	fb02 8101 	mla	r1, r2, r1, r8
 801079e:	ea4f 4c11 	mov.w	ip, r1, lsr #16
 80107a2:	0c2d      	lsrs	r5, r5, #16
 80107a4:	fb02 c505 	mla	r5, r2, r5, ip
 80107a8:	b289      	uxth	r1, r1
 80107aa:	3301      	adds	r3, #1
 80107ac:	eb01 4105 	add.w	r1, r1, r5, lsl #16
 80107b0:	429e      	cmp	r6, r3
 80107b2:	f840 1b04 	str.w	r1, [r0], #4
 80107b6:	ea4f 4815 	mov.w	r8, r5, lsr #16
 80107ba:	dcec      	bgt.n	8010796 <__multadd+0x12>
 80107bc:	f1b8 0f00 	cmp.w	r8, #0
 80107c0:	d022      	beq.n	8010808 <__multadd+0x84>
 80107c2:	68a3      	ldr	r3, [r4, #8]
 80107c4:	42b3      	cmp	r3, r6
 80107c6:	dc19      	bgt.n	80107fc <__multadd+0x78>
 80107c8:	6861      	ldr	r1, [r4, #4]
 80107ca:	4638      	mov	r0, r7
 80107cc:	3101      	adds	r1, #1
 80107ce:	f7ff ff77 	bl	80106c0 <_Balloc>
 80107d2:	4605      	mov	r5, r0
 80107d4:	b928      	cbnz	r0, 80107e2 <__multadd+0x5e>
 80107d6:	4602      	mov	r2, r0
 80107d8:	4b0d      	ldr	r3, [pc, #52]	; (8010810 <__multadd+0x8c>)
 80107da:	480e      	ldr	r0, [pc, #56]	; (8010814 <__multadd+0x90>)
 80107dc:	21b5      	movs	r1, #181	; 0xb5
 80107de:	f000 fd13 	bl	8011208 <__assert_func>
 80107e2:	6922      	ldr	r2, [r4, #16]
 80107e4:	3202      	adds	r2, #2
 80107e6:	f104 010c 	add.w	r1, r4, #12
 80107ea:	0092      	lsls	r2, r2, #2
 80107ec:	300c      	adds	r0, #12
 80107ee:	f7fe fb2b 	bl	800ee48 <memcpy>
 80107f2:	4621      	mov	r1, r4
 80107f4:	4638      	mov	r0, r7
 80107f6:	f7ff ffa3 	bl	8010740 <_Bfree>
 80107fa:	462c      	mov	r4, r5
 80107fc:	eb04 0386 	add.w	r3, r4, r6, lsl #2
 8010800:	3601      	adds	r6, #1
 8010802:	f8c3 8014 	str.w	r8, [r3, #20]
 8010806:	6126      	str	r6, [r4, #16]
 8010808:	4620      	mov	r0, r4
 801080a:	e8bd 81f0 	ldmia.w	sp!, {r4, r5, r6, r7, r8, pc}
 801080e:	bf00      	nop
 8010810:	08016e44 	.word	0x08016e44
 8010814:	08016e55 	.word	0x08016e55

08010818 <__hi0bits>:
 8010818:	0c03      	lsrs	r3, r0, #16
 801081a:	041b      	lsls	r3, r3, #16
 801081c:	b9d3      	cbnz	r3, 8010854 <__hi0bits+0x3c>
 801081e:	0400      	lsls	r0, r0, #16
 8010820:	2310      	movs	r3, #16
 8010822:	f010 4f7f 	tst.w	r0, #4278190080	; 0xff000000
 8010826:	bf04      	itt	eq
 8010828:	0200      	lsleq	r0, r0, #8
 801082a:	3308      	addeq	r3, #8
 801082c:	f010 4f70 	tst.w	r0, #4026531840	; 0xf0000000
 8010830:	bf04      	itt	eq
 8010832:	0100      	lsleq	r0, r0, #4
 8010834:	3304      	addeq	r3, #4
 8010836:	f010 4f40 	tst.w	r0, #3221225472	; 0xc0000000
 801083a:	bf04      	itt	eq
 801083c:	0080      	lsleq	r0, r0, #2
 801083e:	3302      	addeq	r3, #2
 8010840:	2800      	cmp	r0, #0
 8010842:	db05      	blt.n	8010850 <__hi0bits+0x38>
 8010844:	f010 4f80 	tst.w	r0, #1073741824	; 0x40000000
 8010848:	f103 0301 	add.w	r3, r3, #1
 801084c:	bf08      	it	eq
 801084e:	2320      	moveq	r3, #32
 8010850:	4618      	mov	r0, r3
 8010852:	4770      	bx	lr
 8010854:	2300      	movs	r3, #0
 8010856:	e7e4      	b.n	8010822 <__hi0bits+0xa>

08010858 <__lo0bits>:
 8010858:	6803      	ldr	r3, [r0, #0]
 801085a:	f013 0207 	ands.w	r2, r3, #7
 801085e:	4601      	mov	r1, r0
 8010860:	d00b      	beq.n	801087a <__lo0bits+0x22>
 8010862:	07da      	lsls	r2, r3, #31
 8010864:	d424      	bmi.n	80108b0 <__lo0bits+0x58>
 8010866:	0798      	lsls	r0, r3, #30
 8010868:	bf49      	itett	mi
 801086a:	085b      	lsrmi	r3, r3, #1
 801086c:	089b      	lsrpl	r3, r3, #2
 801086e:	2001      	movmi	r0, #1
 8010870:	600b      	strmi	r3, [r1, #0]
 8010872:	bf5c      	itt	pl
 8010874:	600b      	strpl	r3, [r1, #0]
 8010876:	2002      	movpl	r0, #2
 8010878:	4770      	bx	lr
 801087a:	b298      	uxth	r0, r3
 801087c:	b9b0      	cbnz	r0, 80108ac <__lo0bits+0x54>
 801087e:	0c1b      	lsrs	r3, r3, #16
 8010880:	2010      	movs	r0, #16
 8010882:	f013 0fff 	tst.w	r3, #255	; 0xff
 8010886:	bf04      	itt	eq
 8010888:	0a1b      	lsreq	r3, r3, #8
 801088a:	3008      	addeq	r0, #8
 801088c:	071a      	lsls	r2, r3, #28
 801088e:	bf04      	itt	eq
 8010890:	091b      	lsreq	r3, r3, #4
 8010892:	3004      	addeq	r0, #4
 8010894:	079a      	lsls	r2, r3, #30
 8010896:	bf04      	itt	eq
 8010898:	089b      	lsreq	r3, r3, #2
 801089a:	3002      	addeq	r0, #2
 801089c:	07da      	lsls	r2, r3, #31
 801089e:	d403      	bmi.n	80108a8 <__lo0bits+0x50>
 80108a0:	085b      	lsrs	r3, r3, #1
 80108a2:	f100 0001 	add.w	r0, r0, #1
 80108a6:	d005      	beq.n	80108b4 <__lo0bits+0x5c>
 80108a8:	600b      	str	r3, [r1, #0]
 80108aa:	4770      	bx	lr
 80108ac:	4610      	mov	r0, r2
 80108ae:	e7e8      	b.n	8010882 <__lo0bits+0x2a>
 80108b0:	2000      	movs	r0, #0
 80108b2:	4770      	bx	lr
 80108b4:	2020      	movs	r0, #32
 80108b6:	4770      	bx	lr

080108b8 <__i2b>:
 80108b8:	b510      	push	{r4, lr}
 80108ba:	460c      	mov	r4, r1
 80108bc:	2101      	movs	r1, #1
 80108be:	f7ff feff 	bl	80106c0 <_Balloc>
 80108c2:	4602      	mov	r2, r0
 80108c4:	b928      	cbnz	r0, 80108d2 <__i2b+0x1a>
 80108c6:	4b05      	ldr	r3, [pc, #20]	; (80108dc <__i2b+0x24>)
 80108c8:	4805      	ldr	r0, [pc, #20]	; (80108e0 <__i2b+0x28>)
 80108ca:	f44f 71a0 	mov.w	r1, #320	; 0x140
 80108ce:	f000 fc9b 	bl	8011208 <__assert_func>
 80108d2:	2301      	movs	r3, #1
 80108d4:	6144      	str	r4, [r0, #20]
 80108d6:	6103      	str	r3, [r0, #16]
 80108d8:	bd10      	pop	{r4, pc}
 80108da:	bf00      	nop
 80108dc:	08016e44 	.word	0x08016e44
 80108e0:	08016e55 	.word	0x08016e55

080108e4 <__multiply>:
 80108e4:	e92d 4ff0 	stmdb	sp!, {r4, r5, r6, r7, r8, r9, sl, fp, lr}
 80108e8:	4614      	mov	r4, r2
 80108ea:	690a      	ldr	r2, [r1, #16]
 80108ec:	6923      	ldr	r3, [r4, #16]
 80108ee:	429a      	cmp	r2, r3
 80108f0:	bfb8      	it	lt
 80108f2:	460b      	movlt	r3, r1
 80108f4:	460d      	mov	r5, r1
 80108f6:	bfbc      	itt	lt
 80108f8:	4625      	movlt	r5, r4
 80108fa:	461c      	movlt	r4, r3
 80108fc:	f8d5 a010 	ldr.w	sl, [r5, #16]
 8010900:	f8d4 9010 	ldr.w	r9, [r4, #16]
 8010904:	68ab      	ldr	r3, [r5, #8]
 8010906:	6869      	ldr	r1, [r5, #4]
 8010908:	eb0a 0709 	add.w	r7, sl, r9
 801090c:	42bb      	cmp	r3, r7
 801090e:	b085      	sub	sp, #20
 8010910:	bfb8      	it	lt
 8010912:	3101      	addlt	r1, #1
 8010914:	f7ff fed4 	bl	80106c0 <_Balloc>
 8010918:	b930      	cbnz	r0, 8010928 <__multiply+0x44>
 801091a:	4602      	mov	r2, r0
 801091c:	4b42      	ldr	r3, [pc, #264]	; (8010a28 <__multiply+0x144>)
 801091e:	4843      	ldr	r0, [pc, #268]	; (8010a2c <__multiply+0x148>)
 8010920:	f240 115d 	movw	r1, #349	; 0x15d
 8010924:	f000 fc70 	bl	8011208 <__assert_func>
 8010928:	f100 0614 	add.w	r6, r0, #20
 801092c:	eb06 0887 	add.w	r8, r6, r7, lsl #2
 8010930:	4633      	mov	r3, r6
 8010932:	2200      	movs	r2, #0
 8010934:	4543      	cmp	r3, r8
 8010936:	d31e      	bcc.n	8010976 <__multiply+0x92>
 8010938:	f105 0c14 	add.w	ip, r5, #20
 801093c:	f104 0314 	add.w	r3, r4, #20
 8010940:	eb0c 0c8a 	add.w	ip, ip, sl, lsl #2
 8010944:	eb03 0289 	add.w	r2, r3, r9, lsl #2
 8010948:	9202      	str	r2, [sp, #8]
 801094a:	ebac 0205 	sub.w	r2, ip, r5
 801094e:	3a15      	subs	r2, #21
 8010950:	f022 0203 	bic.w	r2, r2, #3
 8010954:	3204      	adds	r2, #4
 8010956:	f105 0115 	add.w	r1, r5, #21
 801095a:	458c      	cmp	ip, r1
 801095c:	bf38      	it	cc
 801095e:	2204      	movcc	r2, #4
 8010960:	9201      	str	r2, [sp, #4]
 8010962:	9a02      	ldr	r2, [sp, #8]
 8010964:	9303      	str	r3, [sp, #12]
 8010966:	429a      	cmp	r2, r3
 8010968:	d808      	bhi.n	801097c <__multiply+0x98>
 801096a:	2f00      	cmp	r7, #0
 801096c:	dc55      	bgt.n	8010a1a <__multiply+0x136>
 801096e:	6107      	str	r7, [r0, #16]
 8010970:	b005      	add	sp, #20
 8010972:	e8bd 8ff0 	ldmia.w	sp!, {r4, r5, r6, r7, r8, r9, sl, fp, pc}
 8010976:	f843 2b04 	str.w	r2, [r3], #4
 801097a:	e7db      	b.n	8010934 <__multiply+0x50>
 801097c:	f8b3 a000 	ldrh.w	sl, [r3]
 8010980:	f1ba 0f00 	cmp.w	sl, #0
 8010984:	d020      	beq.n	80109c8 <__multiply+0xe4>
 8010986:	f105 0e14 	add.w	lr, r5, #20
 801098a:	46b1      	mov	r9, r6
 801098c:	2200      	movs	r2, #0
 801098e:	f85e 4b04 	ldr.w	r4, [lr], #4
 8010992:	f8d9 b000 	ldr.w	fp, [r9]
 8010996:	b2a1      	uxth	r1, r4
 8010998:	fa1f fb8b 	uxth.w	fp, fp
 801099c:	fb0a b101 	mla	r1, sl, r1, fp
 80109a0:	4411      	add	r1, r2
 80109a2:	f8d9 2000 	ldr.w	r2, [r9]
 80109a6:	0c24      	lsrs	r4, r4, #16
 80109a8:	0c12      	lsrs	r2, r2, #16
 80109aa:	fb0a 2404 	mla	r4, sl, r4, r2
 80109ae:	eb04 4411 	add.w	r4, r4, r1, lsr #16
 80109b2:	b289      	uxth	r1, r1
 80109b4:	ea41 4104 	orr.w	r1, r1, r4, lsl #16
 80109b8:	45f4      	cmp	ip, lr
 80109ba:	f849 1b04 	str.w	r1, [r9], #4
 80109be:	ea4f 4214 	mov.w	r2, r4, lsr #16
 80109c2:	d8e4      	bhi.n	801098e <__multiply+0xaa>
 80109c4:	9901      	ldr	r1, [sp, #4]
 80109c6:	5072      	str	r2, [r6, r1]
 80109c8:	9a03      	ldr	r2, [sp, #12]
 80109ca:	f8b2 9002 	ldrh.w	r9, [r2, #2]
 80109ce:	3304      	adds	r3, #4
 80109d0:	f1b9 0f00 	cmp.w	r9, #0
 80109d4:	d01f      	beq.n	8010a16 <__multiply+0x132>
 80109d6:	6834      	ldr	r4, [r6, #0]
 80109d8:	f105 0114 	add.w	r1, r5, #20
 80109dc:	46b6      	mov	lr, r6
 80109de:	f04f 0a00 	mov.w	sl, #0
 80109e2:	880a      	ldrh	r2, [r1, #0]
 80109e4:	f8be b002 	ldrh.w	fp, [lr, #2]
 80109e8:	fb09 b202 	mla	r2, r9, r2, fp
 80109ec:	4492      	add	sl, r2
 80109ee:	b2a4      	uxth	r4, r4
 80109f0:	ea44 440a 	orr.w	r4, r4, sl, lsl #16
 80109f4:	f84e 4b04 	str.w	r4, [lr], #4
 80109f8:	f851 4b04 	ldr.w	r4, [r1], #4
 80109fc:	f8be 2000 	ldrh.w	r2, [lr]
 8010a00:	0c24      	lsrs	r4, r4, #16
 8010a02:	fb09 2404 	mla	r4, r9, r4, r2
 8010a06:	eb04 441a 	add.w	r4, r4, sl, lsr #16
 8010a0a:	458c      	cmp	ip, r1
 8010a0c:	ea4f 4a14 	mov.w	sl, r4, lsr #16
 8010a10:	d8e7      	bhi.n	80109e2 <__multiply+0xfe>
 8010a12:	9a01      	ldr	r2, [sp, #4]
 8010a14:	50b4      	str	r4, [r6, r2]
 8010a16:	3604      	adds	r6, #4
 8010a18:	e7a3      	b.n	8010962 <__multiply+0x7e>
 8010a1a:	f858 3d04 	ldr.w	r3, [r8, #-4]!
 8010a1e:	2b00      	cmp	r3, #0
 8010a20:	d1a5      	bne.n	801096e <__multiply+0x8a>
 8010a22:	3f01      	subs	r7, #1
 8010a24:	e7a1      	b.n	801096a <__multiply+0x86>
 8010a26:	bf00      	nop
 8010a28:	08016e44 	.word	0x08016e44
 8010a2c:	08016e55 	.word	0x08016e55

08010a30 <__pow5mult>:
 8010a30:	e92d 43f8 	stmdb	sp!, {r3, r4, r5, r6, r7, r8, r9, lr}
 8010a34:	4615      	mov	r5, r2
 8010a36:	f012 0203 	ands.w	r2, r2, #3
 8010a3a:	4606      	mov	r6, r0
 8010a3c:	460f      	mov	r7, r1
 8010a3e:	d007      	beq.n	8010a50 <__pow5mult+0x20>
 8010a40:	4c25      	ldr	r4, [pc, #148]	; (8010ad8 <__pow5mult+0xa8>)
 8010a42:	3a01      	subs	r2, #1
 8010a44:	2300      	movs	r3, #0
 8010a46:	f854 2022 	ldr.w	r2, [r4, r2, lsl #2]
 8010a4a:	f7ff fe9b 	bl	8010784 <__multadd>
 8010a4e:	4607      	mov	r7, r0
 8010a50:	10ad      	asrs	r5, r5, #2
 8010a52:	d03d      	beq.n	8010ad0 <__pow5mult+0xa0>
 8010a54:	6a74      	ldr	r4, [r6, #36]	; 0x24
 8010a56:	b97c      	cbnz	r4, 8010a78 <__pow5mult+0x48>
 8010a58:	2010      	movs	r0, #16
 8010a5a:	f7ff fe29 	bl	80106b0 <malloc>
 8010a5e:	4602      	mov	r2, r0
 8010a60:	6270      	str	r0, [r6, #36]	; 0x24
 8010a62:	b928      	cbnz	r0, 8010a70 <__pow5mult+0x40>
 8010a64:	4b1d      	ldr	r3, [pc, #116]	; (8010adc <__pow5mult+0xac>)
 8010a66:	481e      	ldr	r0, [pc, #120]	; (8010ae0 <__pow5mult+0xb0>)
 8010a68:	f44f 71d7 	mov.w	r1, #430	; 0x1ae
 8010a6c:	f000 fbcc 	bl	8011208 <__assert_func>
 8010a70:	e9c0 4401 	strd	r4, r4, [r0, #4]
 8010a74:	6004      	str	r4, [r0, #0]
 8010a76:	60c4      	str	r4, [r0, #12]
 8010a78:	f8d6 8024 	ldr.w	r8, [r6, #36]	; 0x24
 8010a7c:	f8d8 4008 	ldr.w	r4, [r8, #8]
 8010a80:	b94c      	cbnz	r4, 8010a96 <__pow5mult+0x66>
 8010a82:	f240 2171 	movw	r1, #625	; 0x271
 8010a86:	4630      	mov	r0, r6
 8010a88:	f7ff ff16 	bl	80108b8 <__i2b>
 8010a8c:	2300      	movs	r3, #0
 8010a8e:	f8c8 0008 	str.w	r0, [r8, #8]
 8010a92:	4604      	mov	r4, r0
 8010a94:	6003      	str	r3, [r0, #0]
 8010a96:	f04f 0900 	mov.w	r9, #0
 8010a9a:	07eb      	lsls	r3, r5, #31
 8010a9c:	d50a      	bpl.n	8010ab4 <__pow5mult+0x84>
 8010a9e:	4639      	mov	r1, r7
 8010aa0:	4622      	mov	r2, r4
 8010aa2:	4630      	mov	r0, r6
 8010aa4:	f7ff ff1e 	bl	80108e4 <__multiply>
 8010aa8:	4639      	mov	r1, r7
 8010aaa:	4680      	mov	r8, r0
 8010aac:	4630      	mov	r0, r6
 8010aae:	f7ff fe47 	bl	8010740 <_Bfree>
 8010ab2:	4647      	mov	r7, r8
 8010ab4:	106d      	asrs	r5, r5, #1
 8010ab6:	d00b      	beq.n	8010ad0 <__pow5mult+0xa0>
 8010ab8:	6820      	ldr	r0, [r4, #0]
 8010aba:	b938      	cbnz	r0, 8010acc <__pow5mult+0x9c>
 8010abc:	4622      	mov	r2, r4
 8010abe:	4621      	mov	r1, r4
 8010ac0:	4630      	mov	r0, r6
 8010ac2:	f7ff ff0f 	bl	80108e4 <__multiply>
 8010ac6:	6020      	str	r0, [r4, #0]
 8010ac8:	f8c0 9000 	str.w	r9, [r0]
 8010acc:	4604      	mov	r4, r0
 8010ace:	e7e4      	b.n	8010a9a <__pow5mult+0x6a>
 8010ad0:	4638      	mov	r0, r7
 8010ad2:	e8bd 83f8 	ldmia.w	sp!, {r3, r4, r5, r6, r7, r8, r9, pc}
 8010ad6:	bf00      	nop
 8010ad8:	08016fa8 	.word	0x08016fa8
 8010adc:	08016dce 	.word	0x08016dce
 8010ae0:	08016e55 	.word	0x08016e55

08010ae4 <__lshift>:
 8010ae4:	e92d 47f0 	stmdb	sp!, {r4, r5, r6, r7, r8, r9, sl, lr}
 8010ae8:	460c      	mov	r4, r1
 8010aea:	6849      	ldr	r1, [r1, #4]
 8010aec:	6923      	ldr	r3, [r4, #16]
 8010aee:	eb03 1862 	add.w	r8, r3, r2, asr #5
 8010af2:	68a3      	ldr	r3, [r4, #8]
 8010af4:	4607      	mov	r7, r0
 8010af6:	4691      	mov	r9, r2
 8010af8:	ea4f 1a62 	mov.w	sl, r2, asr #5
 8010afc:	f108 0601 	add.w	r6, r8, #1
 8010b00:	42b3      	cmp	r3, r6
 8010b02:	db0b      	blt.n	8010b1c <__lshift+0x38>
 8010b04:	4638      	mov	r0, r7
 8010b06:	f7ff fddb 	bl	80106c0 <_Balloc>
 8010b0a:	4605      	mov	r5, r0
 8010b0c:	b948      	cbnz	r0, 8010b22 <__lshift+0x3e>
 8010b0e:	4602      	mov	r2, r0
 8010b10:	4b28      	ldr	r3, [pc, #160]	; (8010bb4 <__lshift+0xd0>)
 8010b12:	4829      	ldr	r0, [pc, #164]	; (8010bb8 <__lshift+0xd4>)
 8010b14:	f240 11d9 	movw	r1, #473	; 0x1d9
 8010b18:	f000 fb76 	bl	8011208 <__assert_func>
 8010b1c:	3101      	adds	r1, #1
 8010b1e:	005b      	lsls	r3, r3, #1
 8010b20:	e7ee      	b.n	8010b00 <__lshift+0x1c>
 8010b22:	2300      	movs	r3, #0
 8010b24:	f100 0114 	add.w	r1, r0, #20
 8010b28:	f100 0210 	add.w	r2, r0, #16
 8010b2c:	4618      	mov	r0, r3
 8010b2e:	4553      	cmp	r3, sl
 8010b30:	db33      	blt.n	8010b9a <__lshift+0xb6>
 8010b32:	6920      	ldr	r0, [r4, #16]
 8010b34:	ea2a 7aea 	bic.w	sl, sl, sl, asr #31
 8010b38:	f104 0314 	add.w	r3, r4, #20
 8010b3c:	f019 091f 	ands.w	r9, r9, #31
 8010b40:	eb01 018a 	add.w	r1, r1, sl, lsl #2
 8010b44:	eb03 0c80 	add.w	ip, r3, r0, lsl #2
 8010b48:	d02b      	beq.n	8010ba2 <__lshift+0xbe>
 8010b4a:	f1c9 0e20 	rsb	lr, r9, #32
 8010b4e:	468a      	mov	sl, r1
 8010b50:	2200      	movs	r2, #0
 8010b52:	6818      	ldr	r0, [r3, #0]
 8010b54:	fa00 f009 	lsl.w	r0, r0, r9
 8010b58:	4302      	orrs	r2, r0
 8010b5a:	f84a 2b04 	str.w	r2, [sl], #4
 8010b5e:	f853 2b04 	ldr.w	r2, [r3], #4
 8010b62:	459c      	cmp	ip, r3
 8010b64:	fa22 f20e 	lsr.w	r2, r2, lr
 8010b68:	d8f3      	bhi.n	8010b52 <__lshift+0x6e>
 8010b6a:	ebac 0304 	sub.w	r3, ip, r4
 8010b6e:	3b15      	subs	r3, #21
 8010b70:	f023 0303 	bic.w	r3, r3, #3
 8010b74:	3304      	adds	r3, #4
 8010b76:	f104 0015 	add.w	r0, r4, #21
 8010b7a:	4584      	cmp	ip, r0
 8010b7c:	bf38      	it	cc
 8010b7e:	2304      	movcc	r3, #4
 8010b80:	50ca      	str	r2, [r1, r3]
 8010b82:	b10a      	cbz	r2, 8010b88 <__lshift+0xa4>
 8010b84:	f108 0602 	add.w	r6, r8, #2
 8010b88:	3e01      	subs	r6, #1
 8010b8a:	4638      	mov	r0, r7
 8010b8c:	612e      	str	r6, [r5, #16]
 8010b8e:	4621      	mov	r1, r4
 8010b90:	f7ff fdd6 	bl	8010740 <_Bfree>
 8010b94:	4628      	mov	r0, r5
 8010b96:	e8bd 87f0 	ldmia.w	sp!, {r4, r5, r6, r7, r8, r9, sl, pc}
 8010b9a:	f842 0f04 	str.w	r0, [r2, #4]!
 8010b9e:	3301      	adds	r3, #1
 8010ba0:	e7c5      	b.n	8010b2e <__lshift+0x4a>
 8010ba2:	3904      	subs	r1, #4
 8010ba4:	f853 2b04 	ldr.w	r2, [r3], #4
 8010ba8:	f841 2f04 	str.w	r2, [r1, #4]!
 8010bac:	459c      	cmp	ip, r3
 8010bae:	d8f9      	bhi.n	8010ba4 <__lshift+0xc0>
 8010bb0:	e7ea      	b.n	8010b88 <__lshift+0xa4>
 8010bb2:	bf00      	nop
 8010bb4:	08016e44 	.word	0x08016e44
 8010bb8:	08016e55 	.word	0x08016e55

08010bbc <__mcmp>:
 8010bbc:	b530      	push	{r4, r5, lr}
 8010bbe:	6902      	ldr	r2, [r0, #16]
 8010bc0:	690c      	ldr	r4, [r1, #16]
 8010bc2:	1b12      	subs	r2, r2, r4
 8010bc4:	d10e      	bne.n	8010be4 <__mcmp+0x28>
 8010bc6:	f100 0314 	add.w	r3, r0, #20
 8010bca:	3114      	adds	r1, #20
 8010bcc:	eb03 0084 	add.w	r0, r3, r4, lsl #2
 8010bd0:	eb01 0184 	add.w	r1, r1, r4, lsl #2
 8010bd4:	f850 5d04 	ldr.w	r5, [r0, #-4]!
 8010bd8:	f851 4d04 	ldr.w	r4, [r1, #-4]!
 8010bdc:	42a5      	cmp	r5, r4
 8010bde:	d003      	beq.n	8010be8 <__mcmp+0x2c>
 8010be0:	d305      	bcc.n	8010bee <__mcmp+0x32>
 8010be2:	2201      	movs	r2, #1
 8010be4:	4610      	mov	r0, r2
 8010be6:	bd30      	pop	{r4, r5, pc}
 8010be8:	4283      	cmp	r3, r0
 8010bea:	d3f3      	bcc.n	8010bd4 <__mcmp+0x18>
 8010bec:	e7fa      	b.n	8010be4 <__mcmp+0x28>
 8010bee:	f04f 32ff 	mov.w	r2, #4294967295	; 0xffffffff
 8010bf2:	e7f7      	b.n	8010be4 <__mcmp+0x28>

08010bf4 <__mdiff>:
 8010bf4:	e92d 4ff8 	stmdb	sp!, {r3, r4, r5, r6, r7, r8, r9, sl, fp, lr}
 8010bf8:	460c      	mov	r4, r1
 8010bfa:	4606      	mov	r6, r0
 8010bfc:	4611      	mov	r1, r2
 8010bfe:	4620      	mov	r0, r4
 8010c00:	4617      	mov	r7, r2
 8010c02:	f7ff ffdb 	bl	8010bbc <__mcmp>
 8010c06:	1e05      	subs	r5, r0, #0
 8010c08:	d110      	bne.n	8010c2c <__mdiff+0x38>
 8010c0a:	4629      	mov	r1, r5
 8010c0c:	4630      	mov	r0, r6
 8010c0e:	f7ff fd57 	bl	80106c0 <_Balloc>
 8010c12:	b930      	cbnz	r0, 8010c22 <__mdiff+0x2e>
 8010c14:	4b39      	ldr	r3, [pc, #228]	; (8010cfc <__mdiff+0x108>)
 8010c16:	4602      	mov	r2, r0
 8010c18:	f240 2132 	movw	r1, #562	; 0x232
 8010c1c:	4838      	ldr	r0, [pc, #224]	; (8010d00 <__mdiff+0x10c>)
 8010c1e:	f000 faf3 	bl	8011208 <__assert_func>
 8010c22:	2301      	movs	r3, #1
 8010c24:	e9c0 3504 	strd	r3, r5, [r0, #16]
 8010c28:	e8bd 8ff8 	ldmia.w	sp!, {r3, r4, r5, r6, r7, r8, r9, sl, fp, pc}
 8010c2c:	bfa4      	itt	ge
 8010c2e:	463b      	movge	r3, r7
 8010c30:	4627      	movge	r7, r4
 8010c32:	4630      	mov	r0, r6
 8010c34:	6879      	ldr	r1, [r7, #4]
 8010c36:	bfa6      	itte	ge
 8010c38:	461c      	movge	r4, r3
 8010c3a:	2500      	movge	r5, #0
 8010c3c:	2501      	movlt	r5, #1
 8010c3e:	f7ff fd3f 	bl	80106c0 <_Balloc>
 8010c42:	b920      	cbnz	r0, 8010c4e <__mdiff+0x5a>
 8010c44:	4b2d      	ldr	r3, [pc, #180]	; (8010cfc <__mdiff+0x108>)
 8010c46:	4602      	mov	r2, r0
 8010c48:	f44f 7110 	mov.w	r1, #576	; 0x240
 8010c4c:	e7e6      	b.n	8010c1c <__mdiff+0x28>
 8010c4e:	693e      	ldr	r6, [r7, #16]
 8010c50:	60c5      	str	r5, [r0, #12]
 8010c52:	6925      	ldr	r5, [r4, #16]
 8010c54:	f107 0114 	add.w	r1, r7, #20
 8010c58:	f104 0914 	add.w	r9, r4, #20
 8010c5c:	f100 0e14 	add.w	lr, r0, #20
 8010c60:	f107 0210 	add.w	r2, r7, #16
 8010c64:	eb01 0c86 	add.w	ip, r1, r6, lsl #2
 8010c68:	eb09 0585 	add.w	r5, r9, r5, lsl #2
 8010c6c:	46f2      	mov	sl, lr
 8010c6e:	2700      	movs	r7, #0
 8010c70:	f859 3b04 	ldr.w	r3, [r9], #4
 8010c74:	f852 bf04 	ldr.w	fp, [r2, #4]!
 8010c78:	fa1f f883 	uxth.w	r8, r3
 8010c7c:	fa17 f78b 	uxtah	r7, r7, fp
 8010c80:	0c1b      	lsrs	r3, r3, #16
 8010c82:	eba7 0808 	sub.w	r8, r7, r8
 8010c86:	ebc3 431b 	rsb	r3, r3, fp, lsr #16
 8010c8a:	eb03 4328 	add.w	r3, r3, r8, asr #16
 8010c8e:	fa1f f888 	uxth.w	r8, r8
 8010c92:	141f      	asrs	r7, r3, #16
 8010c94:	454d      	cmp	r5, r9
 8010c96:	ea48 4303 	orr.w	r3, r8, r3, lsl #16
 8010c9a:	f84a 3b04 	str.w	r3, [sl], #4
 8010c9e:	d8e7      	bhi.n	8010c70 <__mdiff+0x7c>
 8010ca0:	1b2b      	subs	r3, r5, r4
 8010ca2:	3b15      	subs	r3, #21
 8010ca4:	f023 0303 	bic.w	r3, r3, #3
 8010ca8:	3304      	adds	r3, #4
 8010caa:	3415      	adds	r4, #21
 8010cac:	42a5      	cmp	r5, r4
 8010cae:	bf38      	it	cc
 8010cb0:	2304      	movcc	r3, #4
 8010cb2:	4419      	add	r1, r3
 8010cb4:	4473      	add	r3, lr
 8010cb6:	469e      	mov	lr, r3
 8010cb8:	460d      	mov	r5, r1
 8010cba:	4565      	cmp	r5, ip
 8010cbc:	d30e      	bcc.n	8010cdc <__mdiff+0xe8>
 8010cbe:	f10c 0203 	add.w	r2, ip, #3
 8010cc2:	1a52      	subs	r2, r2, r1
 8010cc4:	f022 0203 	bic.w	r2, r2, #3
 8010cc8:	3903      	subs	r1, #3
 8010cca:	458c      	cmp	ip, r1
 8010ccc:	bf38      	it	cc
 8010cce:	2200      	movcc	r2, #0
 8010cd0:	441a      	add	r2, r3
 8010cd2:	f852 3d04 	ldr.w	r3, [r2, #-4]!
 8010cd6:	b17b      	cbz	r3, 8010cf8 <__mdiff+0x104>
 8010cd8:	6106      	str	r6, [r0, #16]
 8010cda:	e7a5      	b.n	8010c28 <__mdiff+0x34>
 8010cdc:	f855 8b04 	ldr.w	r8, [r5], #4
 8010ce0:	fa17 f488 	uxtah	r4, r7, r8
 8010ce4:	1422      	asrs	r2, r4, #16
 8010ce6:	eb02 4218 	add.w	r2, r2, r8, lsr #16
 8010cea:	b2a4      	uxth	r4, r4
 8010cec:	ea44 4402 	orr.w	r4, r4, r2, lsl #16
 8010cf0:	f84e 4b04 	str.w	r4, [lr], #4
 8010cf4:	1417      	asrs	r7, r2, #16
 8010cf6:	e7e0      	b.n	8010cba <__mdiff+0xc6>
 8010cf8:	3e01      	subs	r6, #1
 8010cfa:	e7ea      	b.n	8010cd2 <__mdiff+0xde>
 8010cfc:	08016e44 	.word	0x08016e44
 8010d00:	08016e55 	.word	0x08016e55

08010d04 <__d2b>:
 8010d04:	e92d 43f7 	stmdb	sp!, {r0, r1, r2, r4, r5, r6, r7, r8, r9, lr}
 8010d08:	4689      	mov	r9, r1
 8010d0a:	2101      	movs	r1, #1
 8010d0c:	ec57 6b10 	vmov	r6, r7, d0
 8010d10:	4690      	mov	r8, r2
 8010d12:	f7ff fcd5 	bl	80106c0 <_Balloc>
 8010d16:	4604      	mov	r4, r0
 8010d18:	b930      	cbnz	r0, 8010d28 <__d2b+0x24>
 8010d1a:	4602      	mov	r2, r0
 8010d1c:	4b25      	ldr	r3, [pc, #148]	; (8010db4 <__d2b+0xb0>)
 8010d1e:	4826      	ldr	r0, [pc, #152]	; (8010db8 <__d2b+0xb4>)
 8010d20:	f240 310a 	movw	r1, #778	; 0x30a
 8010d24:	f000 fa70 	bl	8011208 <__assert_func>
 8010d28:	f3c7 550a 	ubfx	r5, r7, #20, #11
 8010d2c:	f3c7 0313 	ubfx	r3, r7, #0, #20
 8010d30:	bb35      	cbnz	r5, 8010d80 <__d2b+0x7c>
 8010d32:	2e00      	cmp	r6, #0
 8010d34:	9301      	str	r3, [sp, #4]
 8010d36:	d028      	beq.n	8010d8a <__d2b+0x86>
 8010d38:	4668      	mov	r0, sp
 8010d3a:	9600      	str	r6, [sp, #0]
 8010d3c:	f7ff fd8c 	bl	8010858 <__lo0bits>
 8010d40:	9900      	ldr	r1, [sp, #0]
 8010d42:	b300      	cbz	r0, 8010d86 <__d2b+0x82>
 8010d44:	9a01      	ldr	r2, [sp, #4]
 8010d46:	f1c0 0320 	rsb	r3, r0, #32
 8010d4a:	fa02 f303 	lsl.w	r3, r2, r3
 8010d4e:	430b      	orrs	r3, r1
 8010d50:	40c2      	lsrs	r2, r0
 8010d52:	6163      	str	r3, [r4, #20]
 8010d54:	9201      	str	r2, [sp, #4]
 8010d56:	9b01      	ldr	r3, [sp, #4]
 8010d58:	61a3      	str	r3, [r4, #24]
 8010d5a:	2b00      	cmp	r3, #0
 8010d5c:	bf14      	ite	ne
 8010d5e:	2202      	movne	r2, #2
 8010d60:	2201      	moveq	r2, #1
 8010d62:	6122      	str	r2, [r4, #16]
 8010d64:	b1d5      	cbz	r5, 8010d9c <__d2b+0x98>
 8010d66:	f2a5 4533 	subw	r5, r5, #1075	; 0x433
 8010d6a:	4405      	add	r5, r0
 8010d6c:	f8c9 5000 	str.w	r5, [r9]
 8010d70:	f1c0 0035 	rsb	r0, r0, #53	; 0x35
 8010d74:	f8c8 0000 	str.w	r0, [r8]
 8010d78:	4620      	mov	r0, r4
 8010d7a:	b003      	add	sp, #12
 8010d7c:	e8bd 83f0 	ldmia.w	sp!, {r4, r5, r6, r7, r8, r9, pc}
 8010d80:	f443 1380 	orr.w	r3, r3, #1048576	; 0x100000
 8010d84:	e7d5      	b.n	8010d32 <__d2b+0x2e>
 8010d86:	6161      	str	r1, [r4, #20]
 8010d88:	e7e5      	b.n	8010d56 <__d2b+0x52>
 8010d8a:	a801      	add	r0, sp, #4
 8010d8c:	f7ff fd64 	bl	8010858 <__lo0bits>
 8010d90:	9b01      	ldr	r3, [sp, #4]
 8010d92:	6163      	str	r3, [r4, #20]
 8010d94:	2201      	movs	r2, #1
 8010d96:	6122      	str	r2, [r4, #16]
 8010d98:	3020      	adds	r0, #32
 8010d9a:	e7e3      	b.n	8010d64 <__d2b+0x60>
 8010d9c:	eb04 0382 	add.w	r3, r4, r2, lsl #2
 8010da0:	f2a0 4032 	subw	r0, r0, #1074	; 0x432
 8010da4:	f8c9 0000 	str.w	r0, [r9]
 8010da8:	6918      	ldr	r0, [r3, #16]
 8010daa:	f7ff fd35 	bl	8010818 <__hi0bits>
 8010dae:	ebc0 1042 	rsb	r0, r0, r2, lsl #5
 8010db2:	e7df      	b.n	8010d74 <__d2b+0x70>
 8010db4:	08016e44 	.word	0x08016e44
 8010db8:	08016e55 	.word	0x08016e55

08010dbc <_calloc_r>:
 8010dbc:	b513      	push	{r0, r1, r4, lr}
 8010dbe:	434a      	muls	r2, r1
 8010dc0:	4611      	mov	r1, r2
 8010dc2:	9201      	str	r2, [sp, #4]
 8010dc4:	f000 f85a 	bl	8010e7c <_malloc_r>
 8010dc8:	4604      	mov	r4, r0
 8010dca:	b118      	cbz	r0, 8010dd4 <_calloc_r+0x18>
 8010dcc:	9a01      	ldr	r2, [sp, #4]
 8010dce:	2100      	movs	r1, #0
 8010dd0:	f7fe f848 	bl	800ee64 <memset>
 8010dd4:	4620      	mov	r0, r4
 8010dd6:	b002      	add	sp, #8
 8010dd8:	bd10      	pop	{r4, pc}
	...

08010ddc <_free_r>:
 8010ddc:	b537      	push	{r0, r1, r2, r4, r5, lr}
 8010dde:	2900      	cmp	r1, #0
 8010de0:	d048      	beq.n	8010e74 <_free_r+0x98>
 8010de2:	f851 3c04 	ldr.w	r3, [r1, #-4]
 8010de6:	9001      	str	r0, [sp, #4]
 8010de8:	2b00      	cmp	r3, #0
 8010dea:	f1a1 0404 	sub.w	r4, r1, #4
 8010dee:	bfb8      	it	lt
 8010df0:	18e4      	addlt	r4, r4, r3
 8010df2:	f000 fa65 	bl	80112c0 <__malloc_lock>
 8010df6:	4a20      	ldr	r2, [pc, #128]	; (8010e78 <_free_r+0x9c>)
 8010df8:	9801      	ldr	r0, [sp, #4]
 8010dfa:	6813      	ldr	r3, [r2, #0]
 8010dfc:	4615      	mov	r5, r2
 8010dfe:	b933      	cbnz	r3, 8010e0e <_free_r+0x32>
 8010e00:	6063      	str	r3, [r4, #4]
 8010e02:	6014      	str	r4, [r2, #0]
 8010e04:	b003      	add	sp, #12
 8010e06:	e8bd 4030 	ldmia.w	sp!, {r4, r5, lr}
 8010e0a:	f000 ba5f 	b.w	80112cc <__malloc_unlock>
 8010e0e:	42a3      	cmp	r3, r4
 8010e10:	d90b      	bls.n	8010e2a <_free_r+0x4e>
 8010e12:	6821      	ldr	r1, [r4, #0]
 8010e14:	1862      	adds	r2, r4, r1
 8010e16:	4293      	cmp	r3, r2
 8010e18:	bf04      	itt	eq
 8010e1a:	681a      	ldreq	r2, [r3, #0]
 8010e1c:	685b      	ldreq	r3, [r3, #4]
 8010e1e:	6063      	str	r3, [r4, #4]
 8010e20:	bf04      	itt	eq
 8010e22:	1852      	addeq	r2, r2, r1
 8010e24:	6022      	streq	r2, [r4, #0]
 8010e26:	602c      	str	r4, [r5, #0]
 8010e28:	e7ec      	b.n	8010e04 <_free_r+0x28>
 8010e2a:	461a      	mov	r2, r3
 8010e2c:	685b      	ldr	r3, [r3, #4]
 8010e2e:	b10b      	cbz	r3, 8010e34 <_free_r+0x58>
 8010e30:	42a3      	cmp	r3, r4
 8010e32:	d9fa      	bls.n	8010e2a <_free_r+0x4e>
 8010e34:	6811      	ldr	r1, [r2, #0]
 8010e36:	1855      	adds	r5, r2, r1
 8010e38:	42a5      	cmp	r5, r4
 8010e3a:	d10b      	bne.n	8010e54 <_free_r+0x78>
 8010e3c:	6824      	ldr	r4, [r4, #0]
 8010e3e:	4421      	add	r1, r4
 8010e40:	1854      	adds	r4, r2, r1
 8010e42:	42a3      	cmp	r3, r4
 8010e44:	6011      	str	r1, [r2, #0]
 8010e46:	d1dd      	bne.n	8010e04 <_free_r+0x28>
 8010e48:	681c      	ldr	r4, [r3, #0]
 8010e4a:	685b      	ldr	r3, [r3, #4]
 8010e4c:	6053      	str	r3, [r2, #4]
 8010e4e:	4421      	add	r1, r4
 8010e50:	6011      	str	r1, [r2, #0]
 8010e52:	e7d7      	b.n	8010e04 <_free_r+0x28>
 8010e54:	d902      	bls.n	8010e5c <_free_r+0x80>
 8010e56:	230c      	movs	r3, #12
 8010e58:	6003      	str	r3, [r0, #0]
 8010e5a:	e7d3      	b.n	8010e04 <_free_r+0x28>
 8010e5c:	6825      	ldr	r5, [r4, #0]
 8010e5e:	1961      	adds	r1, r4, r5
 8010e60:	428b      	cmp	r3, r1
 8010e62:	bf04      	itt	eq
 8010e64:	6819      	ldreq	r1, [r3, #0]
 8010e66:	685b      	ldreq	r3, [r3, #4]
 8010e68:	6063      	str	r3, [r4, #4]
 8010e6a:	bf04      	itt	eq
 8010e6c:	1949      	addeq	r1, r1, r5
 8010e6e:	6021      	streq	r1, [r4, #0]
 8010e70:	6054      	str	r4, [r2, #4]
 8010e72:	e7c7      	b.n	8010e04 <_free_r+0x28>
 8010e74:	b003      	add	sp, #12
 8010e76:	bd30      	pop	{r4, r5, pc}
 8010e78:	20000af4 	.word	0x20000af4

08010e7c <_malloc_r>:
 8010e7c:	b5f8      	push	{r3, r4, r5, r6, r7, lr}
 8010e7e:	1ccd      	adds	r5, r1, #3
 8010e80:	f025 0503 	bic.w	r5, r5, #3
 8010e84:	3508      	adds	r5, #8
 8010e86:	2d0c      	cmp	r5, #12
 8010e88:	bf38      	it	cc
 8010e8a:	250c      	movcc	r5, #12
 8010e8c:	2d00      	cmp	r5, #0
 8010e8e:	4606      	mov	r6, r0
 8010e90:	db01      	blt.n	8010e96 <_malloc_r+0x1a>
 8010e92:	42a9      	cmp	r1, r5
 8010e94:	d903      	bls.n	8010e9e <_malloc_r+0x22>
 8010e96:	230c      	movs	r3, #12
 8010e98:	6033      	str	r3, [r6, #0]
 8010e9a:	2000      	movs	r0, #0
 8010e9c:	bdf8      	pop	{r3, r4, r5, r6, r7, pc}
 8010e9e:	f000 fa0f 	bl	80112c0 <__malloc_lock>
 8010ea2:	4921      	ldr	r1, [pc, #132]	; (8010f28 <_malloc_r+0xac>)
 8010ea4:	680a      	ldr	r2, [r1, #0]
 8010ea6:	4614      	mov	r4, r2
 8010ea8:	b99c      	cbnz	r4, 8010ed2 <_malloc_r+0x56>
 8010eaa:	4f20      	ldr	r7, [pc, #128]	; (8010f2c <_malloc_r+0xb0>)
 8010eac:	683b      	ldr	r3, [r7, #0]
 8010eae:	b923      	cbnz	r3, 8010eba <_malloc_r+0x3e>
 8010eb0:	4621      	mov	r1, r4
 8010eb2:	4630      	mov	r0, r6
 8010eb4:	f000 f998 	bl	80111e8 <_sbrk_r>
 8010eb8:	6038      	str	r0, [r7, #0]
 8010eba:	4629      	mov	r1, r5
 8010ebc:	4630      	mov	r0, r6
 8010ebe:	f000 f993 	bl	80111e8 <_sbrk_r>
 8010ec2:	1c43      	adds	r3, r0, #1
 8010ec4:	d123      	bne.n	8010f0e <_malloc_r+0x92>
 8010ec6:	230c      	movs	r3, #12
 8010ec8:	6033      	str	r3, [r6, #0]
 8010eca:	4630      	mov	r0, r6
 8010ecc:	f000 f9fe 	bl	80112cc <__malloc_unlock>
 8010ed0:	e7e3      	b.n	8010e9a <_malloc_r+0x1e>
 8010ed2:	6823      	ldr	r3, [r4, #0]
 8010ed4:	1b5b      	subs	r3, r3, r5
 8010ed6:	d417      	bmi.n	8010f08 <_malloc_r+0x8c>
 8010ed8:	2b0b      	cmp	r3, #11
 8010eda:	d903      	bls.n	8010ee4 <_malloc_r+0x68>
 8010edc:	6023      	str	r3, [r4, #0]
 8010ede:	441c      	add	r4, r3
 8010ee0:	6025      	str	r5, [r4, #0]
 8010ee2:	e004      	b.n	8010eee <_malloc_r+0x72>
 8010ee4:	6863      	ldr	r3, [r4, #4]
 8010ee6:	42a2      	cmp	r2, r4
 8010ee8:	bf0c      	ite	eq
 8010eea:	600b      	streq	r3, [r1, #0]
 8010eec:	6053      	strne	r3, [r2, #4]
 8010eee:	4630      	mov	r0, r6
 8010ef0:	f000 f9ec 	bl	80112cc <__malloc_unlock>
 8010ef4:	f104 000b 	add.w	r0, r4, #11
 8010ef8:	1d23      	adds	r3, r4, #4
 8010efa:	f020 0007 	bic.w	r0, r0, #7
 8010efe:	1ac2      	subs	r2, r0, r3
 8010f00:	d0cc      	beq.n	8010e9c <_malloc_r+0x20>
 8010f02:	1a1b      	subs	r3, r3, r0
 8010f04:	50a3      	str	r3, [r4, r2]
 8010f06:	e7c9      	b.n	8010e9c <_malloc_r+0x20>
 8010f08:	4622      	mov	r2, r4
 8010f0a:	6864      	ldr	r4, [r4, #4]
 8010f0c:	e7cc      	b.n	8010ea8 <_malloc_r+0x2c>
 8010f0e:	1cc4      	adds	r4, r0, #3
 8010f10:	f024 0403 	bic.w	r4, r4, #3
 8010f14:	42a0      	cmp	r0, r4
 8010f16:	d0e3      	beq.n	8010ee0 <_malloc_r+0x64>
 8010f18:	1a21      	subs	r1, r4, r0
 8010f1a:	4630      	mov	r0, r6
 8010f1c:	f000 f964 	bl	80111e8 <_sbrk_r>
 8010f20:	3001      	adds	r0, #1
 8010f22:	d1dd      	bne.n	8010ee0 <_malloc_r+0x64>
 8010f24:	e7cf      	b.n	8010ec6 <_malloc_r+0x4a>
 8010f26:	bf00      	nop
 8010f28:	20000af4 	.word	0x20000af4
 8010f2c:	20000af8 	.word	0x20000af8

08010f30 <__ssputs_r>:
 8010f30:	e92d 47f0 	stmdb	sp!, {r4, r5, r6, r7, r8, r9, sl, lr}
 8010f34:	688e      	ldr	r6, [r1, #8]
 8010f36:	429e      	cmp	r6, r3
 8010f38:	4682      	mov	sl, r0
 8010f3a:	460c      	mov	r4, r1
 8010f3c:	4690      	mov	r8, r2
 8010f3e:	461f      	mov	r7, r3
 8010f40:	d838      	bhi.n	8010fb4 <__ssputs_r+0x84>
 8010f42:	898a      	ldrh	r2, [r1, #12]
 8010f44:	f412 6f90 	tst.w	r2, #1152	; 0x480
 8010f48:	d032      	beq.n	8010fb0 <__ssputs_r+0x80>
 8010f4a:	6825      	ldr	r5, [r4, #0]
 8010f4c:	6909      	ldr	r1, [r1, #16]
 8010f4e:	eba5 0901 	sub.w	r9, r5, r1
 8010f52:	6965      	ldr	r5, [r4, #20]
 8010f54:	eb05 0545 	add.w	r5, r5, r5, lsl #1
 8010f58:	eb05 75d5 	add.w	r5, r5, r5, lsr #31
 8010f5c:	3301      	adds	r3, #1
 8010f5e:	444b      	add	r3, r9
 8010f60:	106d      	asrs	r5, r5, #1
 8010f62:	429d      	cmp	r5, r3
 8010f64:	bf38      	it	cc
 8010f66:	461d      	movcc	r5, r3
 8010f68:	0553      	lsls	r3, r2, #21
 8010f6a:	d531      	bpl.n	8010fd0 <__ssputs_r+0xa0>
 8010f6c:	4629      	mov	r1, r5
 8010f6e:	f7ff ff85 	bl	8010e7c <_malloc_r>
 8010f72:	4606      	mov	r6, r0
 8010f74:	b950      	cbnz	r0, 8010f8c <__ssputs_r+0x5c>
 8010f76:	230c      	movs	r3, #12
 8010f78:	f8ca 3000 	str.w	r3, [sl]
 8010f7c:	89a3      	ldrh	r3, [r4, #12]
 8010f7e:	f043 0340 	orr.w	r3, r3, #64	; 0x40
 8010f82:	81a3      	strh	r3, [r4, #12]
 8010f84:	f04f 30ff 	mov.w	r0, #4294967295	; 0xffffffff
 8010f88:	e8bd 87f0 	ldmia.w	sp!, {r4, r5, r6, r7, r8, r9, sl, pc}
 8010f8c:	6921      	ldr	r1, [r4, #16]
 8010f8e:	464a      	mov	r2, r9
 8010f90:	f7fd ff5a 	bl	800ee48 <memcpy>
 8010f94:	89a3      	ldrh	r3, [r4, #12]
 8010f96:	f423 6390 	bic.w	r3, r3, #1152	; 0x480
 8010f9a:	f043 0380 	orr.w	r3, r3, #128	; 0x80
 8010f9e:	81a3      	strh	r3, [r4, #12]
 8010fa0:	6126      	str	r6, [r4, #16]
 8010fa2:	6165      	str	r5, [r4, #20]
 8010fa4:	444e      	add	r6, r9
 8010fa6:	eba5 0509 	sub.w	r5, r5, r9
 8010faa:	6026      	str	r6, [r4, #0]
 8010fac:	60a5      	str	r5, [r4, #8]
 8010fae:	463e      	mov	r6, r7
 8010fb0:	42be      	cmp	r6, r7
 8010fb2:	d900      	bls.n	8010fb6 <__ssputs_r+0x86>
 8010fb4:	463e      	mov	r6, r7
 8010fb6:	4632      	mov	r2, r6
 8010fb8:	6820      	ldr	r0, [r4, #0]
 8010fba:	4641      	mov	r1, r8
 8010fbc:	f000 f966 	bl	801128c <memmove>
 8010fc0:	68a3      	ldr	r3, [r4, #8]
 8010fc2:	6822      	ldr	r2, [r4, #0]
 8010fc4:	1b9b      	subs	r3, r3, r6
 8010fc6:	4432      	add	r2, r6
 8010fc8:	60a3      	str	r3, [r4, #8]
 8010fca:	6022      	str	r2, [r4, #0]
 8010fcc:	2000      	movs	r0, #0
 8010fce:	e7db      	b.n	8010f88 <__ssputs_r+0x58>
 8010fd0:	462a      	mov	r2, r5
 8010fd2:	f000 f981 	bl	80112d8 <_realloc_r>
 8010fd6:	4606      	mov	r6, r0
 8010fd8:	2800      	cmp	r0, #0
 8010fda:	d1e1      	bne.n	8010fa0 <__ssputs_r+0x70>
 8010fdc:	6921      	ldr	r1, [r4, #16]
 8010fde:	4650      	mov	r0, sl
 8010fe0:	f7ff fefc 	bl	8010ddc <_free_r>
 8010fe4:	e7c7      	b.n	8010f76 <__ssputs_r+0x46>
	...

08010fe8 <_svfiprintf_r>:
 8010fe8:	e92d 4ff0 	stmdb	sp!, {r4, r5, r6, r7, r8, r9, sl, fp, lr}
 8010fec:	4698      	mov	r8, r3
 8010fee:	898b      	ldrh	r3, [r1, #12]
 8010ff0:	061b      	lsls	r3, r3, #24
 8010ff2:	b09d      	sub	sp, #116	; 0x74
 8010ff4:	4607      	mov	r7, r0
 8010ff6:	460d      	mov	r5, r1
 8010ff8:	4614      	mov	r4, r2
 8010ffa:	d50e      	bpl.n	801101a <_svfiprintf_r+0x32>
 8010ffc:	690b      	ldr	r3, [r1, #16]
 8010ffe:	b963      	cbnz	r3, 801101a <_svfiprintf_r+0x32>
 8011000:	2140      	movs	r1, #64	; 0x40
 8011002:	f7ff ff3b 	bl	8010e7c <_malloc_r>
 8011006:	6028      	str	r0, [r5, #0]
 8011008:	6128      	str	r0, [r5, #16]
 801100a:	b920      	cbnz	r0, 8011016 <_svfiprintf_r+0x2e>
 801100c:	230c      	movs	r3, #12
 801100e:	603b      	str	r3, [r7, #0]
 8011010:	f04f 30ff 	mov.w	r0, #4294967295	; 0xffffffff
 8011014:	e0d1      	b.n	80111ba <_svfiprintf_r+0x1d2>
 8011016:	2340      	movs	r3, #64	; 0x40
 8011018:	616b      	str	r3, [r5, #20]
 801101a:	2300      	movs	r3, #0
 801101c:	9309      	str	r3, [sp, #36]	; 0x24
 801101e:	2320      	movs	r3, #32
 8011020:	f88d 3029 	strb.w	r3, [sp, #41]	; 0x29
 8011024:	f8cd 800c 	str.w	r8, [sp, #12]
 8011028:	2330      	movs	r3, #48	; 0x30
 801102a:	f8df 81a8 	ldr.w	r8, [pc, #424]	; 80111d4 <_svfiprintf_r+0x1ec>
 801102e:	f88d 302a 	strb.w	r3, [sp, #42]	; 0x2a
 8011032:	f04f 0901 	mov.w	r9, #1
 8011036:	4623      	mov	r3, r4
 8011038:	469a      	mov	sl, r3
 801103a:	f813 2b01 	ldrb.w	r2, [r3], #1
 801103e:	b10a      	cbz	r2, 8011044 <_svfiprintf_r+0x5c>
 8011040:	2a25      	cmp	r2, #37	; 0x25
 8011042:	d1f9      	bne.n	8011038 <_svfiprintf_r+0x50>
 8011044:	ebba 0b04 	subs.w	fp, sl, r4
 8011048:	d00b      	beq.n	8011062 <_svfiprintf_r+0x7a>
 801104a:	465b      	mov	r3, fp
 801104c:	4622      	mov	r2, r4
 801104e:	4629      	mov	r1, r5
 8011050:	4638      	mov	r0, r7
 8011052:	f7ff ff6d 	bl	8010f30 <__ssputs_r>
 8011056:	3001      	adds	r0, #1
 8011058:	f000 80aa 	beq.w	80111b0 <_svfiprintf_r+0x1c8>
 801105c:	9a09      	ldr	r2, [sp, #36]	; 0x24
 801105e:	445a      	add	r2, fp
 8011060:	9209      	str	r2, [sp, #36]	; 0x24
 8011062:	f89a 3000 	ldrb.w	r3, [sl]
 8011066:	2b00      	cmp	r3, #0
 8011068:	f000 80a2 	beq.w	80111b0 <_svfiprintf_r+0x1c8>
 801106c:	2300      	movs	r3, #0
 801106e:	f04f 32ff 	mov.w	r2, #4294967295	; 0xffffffff
 8011072:	e9cd 2305 	strd	r2, r3, [sp, #20]
 8011076:	f10a 0a01 	add.w	sl, sl, #1
 801107a:	9304      	str	r3, [sp, #16]
 801107c:	9307      	str	r3, [sp, #28]
 801107e:	f88d 3053 	strb.w	r3, [sp, #83]	; 0x53
 8011082:	931a      	str	r3, [sp, #104]	; 0x68
 8011084:	4654      	mov	r4, sl
 8011086:	2205      	movs	r2, #5
 8011088:	f814 1b01 	ldrb.w	r1, [r4], #1
 801108c:	4851      	ldr	r0, [pc, #324]	; (80111d4 <_svfiprintf_r+0x1ec>)
 801108e:	f7f7 f8af 	bl	80081f0 <memchr>
 8011092:	9a04      	ldr	r2, [sp, #16]
 8011094:	b9d8      	cbnz	r0, 80110ce <_svfiprintf_r+0xe6>
 8011096:	06d0      	lsls	r0, r2, #27
 8011098:	bf44      	itt	mi
 801109a:	2320      	movmi	r3, #32
 801109c:	f88d 3053 	strbmi.w	r3, [sp, #83]	; 0x53
 80110a0:	0711      	lsls	r1, r2, #28
 80110a2:	bf44      	itt	mi
 80110a4:	232b      	movmi	r3, #43	; 0x2b
 80110a6:	f88d 3053 	strbmi.w	r3, [sp, #83]	; 0x53
 80110aa:	f89a 3000 	ldrb.w	r3, [sl]
 80110ae:	2b2a      	cmp	r3, #42	; 0x2a
 80110b0:	d015      	beq.n	80110de <_svfiprintf_r+0xf6>
 80110b2:	9a07      	ldr	r2, [sp, #28]
 80110b4:	4654      	mov	r4, sl
 80110b6:	2000      	movs	r0, #0
 80110b8:	f04f 0c0a 	mov.w	ip, #10
 80110bc:	4621      	mov	r1, r4
 80110be:	f811 3b01 	ldrb.w	r3, [r1], #1
 80110c2:	3b30      	subs	r3, #48	; 0x30
 80110c4:	2b09      	cmp	r3, #9
 80110c6:	d94e      	bls.n	8011166 <_svfiprintf_r+0x17e>
 80110c8:	b1b0      	cbz	r0, 80110f8 <_svfiprintf_r+0x110>
 80110ca:	9207      	str	r2, [sp, #28]
 80110cc:	e014      	b.n	80110f8 <_svfiprintf_r+0x110>
 80110ce:	eba0 0308 	sub.w	r3, r0, r8
 80110d2:	fa09 f303 	lsl.w	r3, r9, r3
 80110d6:	4313      	orrs	r3, r2
 80110d8:	9304      	str	r3, [sp, #16]
 80110da:	46a2      	mov	sl, r4
 80110dc:	e7d2      	b.n	8011084 <_svfiprintf_r+0x9c>
 80110de:	9b03      	ldr	r3, [sp, #12]
 80110e0:	1d19      	adds	r1, r3, #4
 80110e2:	681b      	ldr	r3, [r3, #0]
 80110e4:	9103      	str	r1, [sp, #12]
 80110e6:	2b00      	cmp	r3, #0
 80110e8:	bfbb      	ittet	lt
 80110ea:	425b      	neglt	r3, r3
 80110ec:	f042 0202 	orrlt.w	r2, r2, #2
 80110f0:	9307      	strge	r3, [sp, #28]
 80110f2:	9307      	strlt	r3, [sp, #28]
 80110f4:	bfb8      	it	lt
 80110f6:	9204      	strlt	r2, [sp, #16]
 80110f8:	7823      	ldrb	r3, [r4, #0]
 80110fa:	2b2e      	cmp	r3, #46	; 0x2e
 80110fc:	d10c      	bne.n	8011118 <_svfiprintf_r+0x130>
 80110fe:	7863      	ldrb	r3, [r4, #1]
 8011100:	2b2a      	cmp	r3, #42	; 0x2a
 8011102:	d135      	bne.n	8011170 <_svfiprintf_r+0x188>
 8011104:	9b03      	ldr	r3, [sp, #12]
 8011106:	1d1a      	adds	r2, r3, #4
 8011108:	681b      	ldr	r3, [r3, #0]
 801110a:	9203      	str	r2, [sp, #12]
 801110c:	2b00      	cmp	r3, #0
 801110e:	bfb8      	it	lt
 8011110:	f04f 33ff 	movlt.w	r3, #4294967295	; 0xffffffff
 8011114:	3402      	adds	r4, #2
 8011116:	9305      	str	r3, [sp, #20]
 8011118:	f8df a0c8 	ldr.w	sl, [pc, #200]	; 80111e4 <_svfiprintf_r+0x1fc>
 801111c:	7821      	ldrb	r1, [r4, #0]
 801111e:	2203      	movs	r2, #3
 8011120:	4650      	mov	r0, sl
 8011122:	f7f7 f865 	bl	80081f0 <memchr>
 8011126:	b140      	cbz	r0, 801113a <_svfiprintf_r+0x152>
 8011128:	2340      	movs	r3, #64	; 0x40
 801112a:	eba0 000a 	sub.w	r0, r0, sl
 801112e:	fa03 f000 	lsl.w	r0, r3, r0
 8011132:	9b04      	ldr	r3, [sp, #16]
 8011134:	4303      	orrs	r3, r0
 8011136:	3401      	adds	r4, #1
 8011138:	9304      	str	r3, [sp, #16]
 801113a:	f814 1b01 	ldrb.w	r1, [r4], #1
 801113e:	4826      	ldr	r0, [pc, #152]	; (80111d8 <_svfiprintf_r+0x1f0>)
 8011140:	f88d 1028 	strb.w	r1, [sp, #40]	; 0x28
 8011144:	2206      	movs	r2, #6
 8011146:	f7f7 f853 	bl	80081f0 <memchr>
 801114a:	2800      	cmp	r0, #0
 801114c:	d038      	beq.n	80111c0 <_svfiprintf_r+0x1d8>
 801114e:	4b23      	ldr	r3, [pc, #140]	; (80111dc <_svfiprintf_r+0x1f4>)
 8011150:	bb1b      	cbnz	r3, 801119a <_svfiprintf_r+0x1b2>
 8011152:	9b03      	ldr	r3, [sp, #12]
 8011154:	3307      	adds	r3, #7
 8011156:	f023 0307 	bic.w	r3, r3, #7
 801115a:	3308      	adds	r3, #8
 801115c:	9303      	str	r3, [sp, #12]
 801115e:	9b09      	ldr	r3, [sp, #36]	; 0x24
 8011160:	4433      	add	r3, r6
 8011162:	9309      	str	r3, [sp, #36]	; 0x24
 8011164:	e767      	b.n	8011036 <_svfiprintf_r+0x4e>
 8011166:	fb0c 3202 	mla	r2, ip, r2, r3
 801116a:	460c      	mov	r4, r1
 801116c:	2001      	movs	r0, #1
 801116e:	e7a5      	b.n	80110bc <_svfiprintf_r+0xd4>
 8011170:	2300      	movs	r3, #0
 8011172:	3401      	adds	r4, #1
 8011174:	9305      	str	r3, [sp, #20]
 8011176:	4619      	mov	r1, r3
 8011178:	f04f 0c0a 	mov.w	ip, #10
 801117c:	4620      	mov	r0, r4
 801117e:	f810 2b01 	ldrb.w	r2, [r0], #1
 8011182:	3a30      	subs	r2, #48	; 0x30
 8011184:	2a09      	cmp	r2, #9
 8011186:	d903      	bls.n	8011190 <_svfiprintf_r+0x1a8>
 8011188:	2b00      	cmp	r3, #0
 801118a:	d0c5      	beq.n	8011118 <_svfiprintf_r+0x130>
 801118c:	9105      	str	r1, [sp, #20]
 801118e:	e7c3      	b.n	8011118 <_svfiprintf_r+0x130>
 8011190:	fb0c 2101 	mla	r1, ip, r1, r2
 8011194:	4604      	mov	r4, r0
 8011196:	2301      	movs	r3, #1
 8011198:	e7f0      	b.n	801117c <_svfiprintf_r+0x194>
 801119a:	ab03      	add	r3, sp, #12
 801119c:	9300      	str	r3, [sp, #0]
 801119e:	462a      	mov	r2, r5
 80111a0:	4b0f      	ldr	r3, [pc, #60]	; (80111e0 <_svfiprintf_r+0x1f8>)
 80111a2:	a904      	add	r1, sp, #16
 80111a4:	4638      	mov	r0, r7
 80111a6:	f7fd ff05 	bl	800efb4 <_printf_float>
 80111aa:	1c42      	adds	r2, r0, #1
 80111ac:	4606      	mov	r6, r0
 80111ae:	d1d6      	bne.n	801115e <_svfiprintf_r+0x176>
 80111b0:	89ab      	ldrh	r3, [r5, #12]
 80111b2:	065b      	lsls	r3, r3, #25
 80111b4:	f53f af2c 	bmi.w	8011010 <_svfiprintf_r+0x28>
 80111b8:	9809      	ldr	r0, [sp, #36]	; 0x24
 80111ba:	b01d      	add	sp, #116	; 0x74
 80111bc:	e8bd 8ff0 	ldmia.w	sp!, {r4, r5, r6, r7, r8, r9, sl, fp, pc}
 80111c0:	ab03      	add	r3, sp, #12
 80111c2:	9300      	str	r3, [sp, #0]
 80111c4:	462a      	mov	r2, r5
 80111c6:	4b06      	ldr	r3, [pc, #24]	; (80111e0 <_svfiprintf_r+0x1f8>)
 80111c8:	a904      	add	r1, sp, #16
 80111ca:	4638      	mov	r0, r7
 80111cc:	f7fe f996 	bl	800f4fc <_printf_i>
 80111d0:	e7eb      	b.n	80111aa <_svfiprintf_r+0x1c2>
 80111d2:	bf00      	nop
 80111d4:	08016fb4 	.word	0x08016fb4
 80111d8:	08016fbe 	.word	0x08016fbe
 80111dc:	0800efb5 	.word	0x0800efb5
 80111e0:	08010f31 	.word	0x08010f31
 80111e4:	08016fba 	.word	0x08016fba

080111e8 <_sbrk_r>:
 80111e8:	b538      	push	{r3, r4, r5, lr}
 80111ea:	4d06      	ldr	r5, [pc, #24]	; (8011204 <_sbrk_r+0x1c>)
 80111ec:	2300      	movs	r3, #0
 80111ee:	4604      	mov	r4, r0
 80111f0:	4608      	mov	r0, r1
 80111f2:	602b      	str	r3, [r5, #0]
 80111f4:	f7fa faa2 	bl	800b73c <_sbrk>
 80111f8:	1c43      	adds	r3, r0, #1
 80111fa:	d102      	bne.n	8011202 <_sbrk_r+0x1a>
 80111fc:	682b      	ldr	r3, [r5, #0]
 80111fe:	b103      	cbz	r3, 8011202 <_sbrk_r+0x1a>
 8011200:	6023      	str	r3, [r4, #0]
 8011202:	bd38      	pop	{r3, r4, r5, pc}
 8011204:	20001498 	.word	0x20001498

08011208 <__assert_func>:
 8011208:	b51f      	push	{r0, r1, r2, r3, r4, lr}
 801120a:	4614      	mov	r4, r2
 801120c:	461a      	mov	r2, r3
 801120e:	4b09      	ldr	r3, [pc, #36]	; (8011234 <__assert_func+0x2c>)
 8011210:	681b      	ldr	r3, [r3, #0]
 8011212:	4605      	mov	r5, r0
 8011214:	68d8      	ldr	r0, [r3, #12]
 8011216:	b14c      	cbz	r4, 801122c <__assert_func+0x24>
 8011218:	4b07      	ldr	r3, [pc, #28]	; (8011238 <__assert_func+0x30>)
 801121a:	9100      	str	r1, [sp, #0]
 801121c:	e9cd 3401 	strd	r3, r4, [sp, #4]
 8011220:	4906      	ldr	r1, [pc, #24]	; (801123c <__assert_func+0x34>)
 8011222:	462b      	mov	r3, r5
 8011224:	f000 f80e 	bl	8011244 <fiprintf>
 8011228:	f000 faa4 	bl	8011774 <abort>
 801122c:	4b04      	ldr	r3, [pc, #16]	; (8011240 <__assert_func+0x38>)
 801122e:	461c      	mov	r4, r3
 8011230:	e7f3      	b.n	801121a <__assert_func+0x12>
 8011232:	bf00      	nop
 8011234:	2000006c 	.word	0x2000006c
 8011238:	08016fc5 	.word	0x08016fc5
 801123c:	08016fd2 	.word	0x08016fd2
 8011240:	08016c04 	.word	0x08016c04

08011244 <fiprintf>:
 8011244:	b40e      	push	{r1, r2, r3}
 8011246:	b503      	push	{r0, r1, lr}
 8011248:	4601      	mov	r1, r0
 801124a:	ab03      	add	r3, sp, #12
 801124c:	4805      	ldr	r0, [pc, #20]	; (8011264 <fiprintf+0x20>)
 801124e:	f853 2b04 	ldr.w	r2, [r3], #4
 8011252:	6800      	ldr	r0, [r0, #0]
 8011254:	9301      	str	r3, [sp, #4]
 8011256:	f000 f88f 	bl	8011378 <_vfiprintf_r>
 801125a:	b002      	add	sp, #8
 801125c:	f85d eb04 	ldr.w	lr, [sp], #4
 8011260:	b003      	add	sp, #12
 8011262:	4770      	bx	lr
 8011264:	2000006c 	.word	0x2000006c

08011268 <__ascii_mbtowc>:
 8011268:	b082      	sub	sp, #8
 801126a:	b901      	cbnz	r1, 801126e <__ascii_mbtowc+0x6>
 801126c:	a901      	add	r1, sp, #4
 801126e:	b142      	cbz	r2, 8011282 <__ascii_mbtowc+0x1a>
 8011270:	b14b      	cbz	r3, 8011286 <__ascii_mbtowc+0x1e>
 8011272:	7813      	ldrb	r3, [r2, #0]
 8011274:	600b      	str	r3, [r1, #0]
 8011276:	7812      	ldrb	r2, [r2, #0]
 8011278:	1e10      	subs	r0, r2, #0
 801127a:	bf18      	it	ne
 801127c:	2001      	movne	r0, #1
 801127e:	b002      	add	sp, #8
 8011280:	4770      	bx	lr
 8011282:	4610      	mov	r0, r2
 8011284:	e7fb      	b.n	801127e <__ascii_mbtowc+0x16>
 8011286:	f06f 0001 	mvn.w	r0, #1
 801128a:	e7f8      	b.n	801127e <__ascii_mbtowc+0x16>

0801128c <memmove>:
 801128c:	4288      	cmp	r0, r1
 801128e:	b510      	push	{r4, lr}
 8011290:	eb01 0402 	add.w	r4, r1, r2
 8011294:	d902      	bls.n	801129c <memmove+0x10>
 8011296:	4284      	cmp	r4, r0
 8011298:	4623      	mov	r3, r4
 801129a:	d807      	bhi.n	80112ac <memmove+0x20>
 801129c:	1e43      	subs	r3, r0, #1
 801129e:	42a1      	cmp	r1, r4
 80112a0:	d008      	beq.n	80112b4 <memmove+0x28>
 80112a2:	f811 2b01 	ldrb.w	r2, [r1], #1
 80112a6:	f803 2f01 	strb.w	r2, [r3, #1]!
 80112aa:	e7f8      	b.n	801129e <memmove+0x12>
 80112ac:	4402      	add	r2, r0
 80112ae:	4601      	mov	r1, r0
 80112b0:	428a      	cmp	r2, r1
 80112b2:	d100      	bne.n	80112b6 <memmove+0x2a>
 80112b4:	bd10      	pop	{r4, pc}
 80112b6:	f813 4d01 	ldrb.w	r4, [r3, #-1]!
 80112ba:	f802 4d01 	strb.w	r4, [r2, #-1]!
 80112be:	e7f7      	b.n	80112b0 <memmove+0x24>

080112c0 <__malloc_lock>:
 80112c0:	4801      	ldr	r0, [pc, #4]	; (80112c8 <__malloc_lock+0x8>)
 80112c2:	f000 bc17 	b.w	8011af4 <__retarget_lock_acquire_recursive>
 80112c6:	bf00      	nop
 80112c8:	200014a0 	.word	0x200014a0

080112cc <__malloc_unlock>:
 80112cc:	4801      	ldr	r0, [pc, #4]	; (80112d4 <__malloc_unlock+0x8>)
 80112ce:	f000 bc12 	b.w	8011af6 <__retarget_lock_release_recursive>
 80112d2:	bf00      	nop
 80112d4:	200014a0 	.word	0x200014a0

080112d8 <_realloc_r>:
 80112d8:	b5f8      	push	{r3, r4, r5, r6, r7, lr}
 80112da:	4607      	mov	r7, r0
 80112dc:	4614      	mov	r4, r2
 80112de:	460e      	mov	r6, r1
 80112e0:	b921      	cbnz	r1, 80112ec <_realloc_r+0x14>
 80112e2:	e8bd 40f8 	ldmia.w	sp!, {r3, r4, r5, r6, r7, lr}
 80112e6:	4611      	mov	r1, r2
 80112e8:	f7ff bdc8 	b.w	8010e7c <_malloc_r>
 80112ec:	b922      	cbnz	r2, 80112f8 <_realloc_r+0x20>
 80112ee:	f7ff fd75 	bl	8010ddc <_free_r>
 80112f2:	4625      	mov	r5, r4
 80112f4:	4628      	mov	r0, r5
 80112f6:	bdf8      	pop	{r3, r4, r5, r6, r7, pc}
 80112f8:	f000 fc62 	bl	8011bc0 <_malloc_usable_size_r>
 80112fc:	42a0      	cmp	r0, r4
 80112fe:	d20f      	bcs.n	8011320 <_realloc_r+0x48>
 8011300:	4621      	mov	r1, r4
 8011302:	4638      	mov	r0, r7
 8011304:	f7ff fdba 	bl	8010e7c <_malloc_r>
 8011308:	4605      	mov	r5, r0
 801130a:	2800      	cmp	r0, #0
 801130c:	d0f2      	beq.n	80112f4 <_realloc_r+0x1c>
 801130e:	4631      	mov	r1, r6
 8011310:	4622      	mov	r2, r4
 8011312:	f7fd fd99 	bl	800ee48 <memcpy>
 8011316:	4631      	mov	r1, r6
 8011318:	4638      	mov	r0, r7
 801131a:	f7ff fd5f 	bl	8010ddc <_free_r>
 801131e:	e7e9      	b.n	80112f4 <_realloc_r+0x1c>
 8011320:	4635      	mov	r5, r6
 8011322:	e7e7      	b.n	80112f4 <_realloc_r+0x1c>

08011324 <__sfputc_r>:
 8011324:	6893      	ldr	r3, [r2, #8]
 8011326:	3b01      	subs	r3, #1
 8011328:	2b00      	cmp	r3, #0
 801132a:	b410      	push	{r4}
 801132c:	6093      	str	r3, [r2, #8]
 801132e:	da08      	bge.n	8011342 <__sfputc_r+0x1e>
 8011330:	6994      	ldr	r4, [r2, #24]
 8011332:	42a3      	cmp	r3, r4
 8011334:	db01      	blt.n	801133a <__sfputc_r+0x16>
 8011336:	290a      	cmp	r1, #10
 8011338:	d103      	bne.n	8011342 <__sfputc_r+0x1e>
 801133a:	f85d 4b04 	ldr.w	r4, [sp], #4
 801133e:	f000 b94b 	b.w	80115d8 <__swbuf_r>
 8011342:	6813      	ldr	r3, [r2, #0]
 8011344:	1c58      	adds	r0, r3, #1
 8011346:	6010      	str	r0, [r2, #0]
 8011348:	7019      	strb	r1, [r3, #0]
 801134a:	4608      	mov	r0, r1
 801134c:	f85d 4b04 	ldr.w	r4, [sp], #4
 8011350:	4770      	bx	lr

08011352 <__sfputs_r>:
 8011352:	b5f8      	push	{r3, r4, r5, r6, r7, lr}
 8011354:	4606      	mov	r6, r0
 8011356:	460f      	mov	r7, r1
 8011358:	4614      	mov	r4, r2
 801135a:	18d5      	adds	r5, r2, r3
 801135c:	42ac      	cmp	r4, r5
 801135e:	d101      	bne.n	8011364 <__sfputs_r+0x12>
 8011360:	2000      	movs	r0, #0
 8011362:	e007      	b.n	8011374 <__sfputs_r+0x22>
 8011364:	f814 1b01 	ldrb.w	r1, [r4], #1
 8011368:	463a      	mov	r2, r7
 801136a:	4630      	mov	r0, r6
 801136c:	f7ff ffda 	bl	8011324 <__sfputc_r>
 8011370:	1c43      	adds	r3, r0, #1
 8011372:	d1f3      	bne.n	801135c <__sfputs_r+0xa>
 8011374:	bdf8      	pop	{r3, r4, r5, r6, r7, pc}
	...

08011378 <_vfiprintf_r>:
 8011378:	e92d 4ff0 	stmdb	sp!, {r4, r5, r6, r7, r8, r9, sl, fp, lr}
 801137c:	460d      	mov	r5, r1
 801137e:	b09d      	sub	sp, #116	; 0x74
 8011380:	4614      	mov	r4, r2
 8011382:	4698      	mov	r8, r3
 8011384:	4606      	mov	r6, r0
 8011386:	b118      	cbz	r0, 8011390 <_vfiprintf_r+0x18>
 8011388:	6983      	ldr	r3, [r0, #24]
 801138a:	b90b      	cbnz	r3, 8011390 <_vfiprintf_r+0x18>
 801138c:	f000 fb14 	bl	80119b8 <__sinit>
 8011390:	4b89      	ldr	r3, [pc, #548]	; (80115b8 <_vfiprintf_r+0x240>)
 8011392:	429d      	cmp	r5, r3
 8011394:	d11b      	bne.n	80113ce <_vfiprintf_r+0x56>
 8011396:	6875      	ldr	r5, [r6, #4]
 8011398:	6e6b      	ldr	r3, [r5, #100]	; 0x64
 801139a:	07d9      	lsls	r1, r3, #31
 801139c:	d405      	bmi.n	80113aa <_vfiprintf_r+0x32>
 801139e:	89ab      	ldrh	r3, [r5, #12]
 80113a0:	059a      	lsls	r2, r3, #22
 80113a2:	d402      	bmi.n	80113aa <_vfiprintf_r+0x32>
 80113a4:	6da8      	ldr	r0, [r5, #88]	; 0x58
 80113a6:	f000 fba5 	bl	8011af4 <__retarget_lock_acquire_recursive>
 80113aa:	89ab      	ldrh	r3, [r5, #12]
 80113ac:	071b      	lsls	r3, r3, #28
 80113ae:	d501      	bpl.n	80113b4 <_vfiprintf_r+0x3c>
 80113b0:	692b      	ldr	r3, [r5, #16]
 80113b2:	b9eb      	cbnz	r3, 80113f0 <_vfiprintf_r+0x78>
 80113b4:	4629      	mov	r1, r5
 80113b6:	4630      	mov	r0, r6
 80113b8:	f000 f96e 	bl	8011698 <__swsetup_r>
 80113bc:	b1c0      	cbz	r0, 80113f0 <_vfiprintf_r+0x78>
 80113be:	6e6b      	ldr	r3, [r5, #100]	; 0x64
 80113c0:	07dc      	lsls	r4, r3, #31
 80113c2:	d50e      	bpl.n	80113e2 <_vfiprintf_r+0x6a>
 80113c4:	f04f 30ff 	mov.w	r0, #4294967295	; 0xffffffff
 80113c8:	b01d      	add	sp, #116	; 0x74
 80113ca:	e8bd 8ff0 	ldmia.w	sp!, {r4, r5, r6, r7, r8, r9, sl, fp, pc}
 80113ce:	4b7b      	ldr	r3, [pc, #492]	; (80115bc <_vfiprintf_r+0x244>)
 80113d0:	429d      	cmp	r5, r3
 80113d2:	d101      	bne.n	80113d8 <_vfiprintf_r+0x60>
 80113d4:	68b5      	ldr	r5, [r6, #8]
 80113d6:	e7df      	b.n	8011398 <_vfiprintf_r+0x20>
 80113d8:	4b79      	ldr	r3, [pc, #484]	; (80115c0 <_vfiprintf_r+0x248>)
 80113da:	429d      	cmp	r5, r3
 80113dc:	bf08      	it	eq
 80113de:	68f5      	ldreq	r5, [r6, #12]
 80113e0:	e7da      	b.n	8011398 <_vfiprintf_r+0x20>
 80113e2:	89ab      	ldrh	r3, [r5, #12]
 80113e4:	0598      	lsls	r0, r3, #22
 80113e6:	d4ed      	bmi.n	80113c4 <_vfiprintf_r+0x4c>
 80113e8:	6da8      	ldr	r0, [r5, #88]	; 0x58
 80113ea:	f000 fb84 	bl	8011af6 <__retarget_lock_release_recursive>
 80113ee:	e7e9      	b.n	80113c4 <_vfiprintf_r+0x4c>
 80113f0:	2300      	movs	r3, #0
 80113f2:	9309      	str	r3, [sp, #36]	; 0x24
 80113f4:	2320      	movs	r3, #32
 80113f6:	f88d 3029 	strb.w	r3, [sp, #41]	; 0x29
 80113fa:	f8cd 800c 	str.w	r8, [sp, #12]
 80113fe:	2330      	movs	r3, #48	; 0x30
 8011400:	f8df 81c0 	ldr.w	r8, [pc, #448]	; 80115c4 <_vfiprintf_r+0x24c>
 8011404:	f88d 302a 	strb.w	r3, [sp, #42]	; 0x2a
 8011408:	f04f 0901 	mov.w	r9, #1
 801140c:	4623      	mov	r3, r4
 801140e:	469a      	mov	sl, r3
 8011410:	f813 2b01 	ldrb.w	r2, [r3], #1
 8011414:	b10a      	cbz	r2, 801141a <_vfiprintf_r+0xa2>
 8011416:	2a25      	cmp	r2, #37	; 0x25
 8011418:	d1f9      	bne.n	801140e <_vfiprintf_r+0x96>
 801141a:	ebba 0b04 	subs.w	fp, sl, r4
 801141e:	d00b      	beq.n	8011438 <_vfiprintf_r+0xc0>
 8011420:	465b      	mov	r3, fp
 8011422:	4622      	mov	r2, r4
 8011424:	4629      	mov	r1, r5
 8011426:	4630      	mov	r0, r6
 8011428:	f7ff ff93 	bl	8011352 <__sfputs_r>
 801142c:	3001      	adds	r0, #1
 801142e:	f000 80aa 	beq.w	8011586 <_vfiprintf_r+0x20e>
 8011432:	9a09      	ldr	r2, [sp, #36]	; 0x24
 8011434:	445a      	add	r2, fp
 8011436:	9209      	str	r2, [sp, #36]	; 0x24
 8011438:	f89a 3000 	ldrb.w	r3, [sl]
 801143c:	2b00      	cmp	r3, #0
 801143e:	f000 80a2 	beq.w	8011586 <_vfiprintf_r+0x20e>
 8011442:	2300      	movs	r3, #0
 8011444:	f04f 32ff 	mov.w	r2, #4294967295	; 0xffffffff
 8011448:	e9cd 2305 	strd	r2, r3, [sp, #20]
 801144c:	f10a 0a01 	add.w	sl, sl, #1
 8011450:	9304      	str	r3, [sp, #16]
 8011452:	9307      	str	r3, [sp, #28]
 8011454:	f88d 3053 	strb.w	r3, [sp, #83]	; 0x53
 8011458:	931a      	str	r3, [sp, #104]	; 0x68
 801145a:	4654      	mov	r4, sl
 801145c:	2205      	movs	r2, #5
 801145e:	f814 1b01 	ldrb.w	r1, [r4], #1
 8011462:	4858      	ldr	r0, [pc, #352]	; (80115c4 <_vfiprintf_r+0x24c>)
 8011464:	f7f6 fec4 	bl	80081f0 <memchr>
 8011468:	9a04      	ldr	r2, [sp, #16]
 801146a:	b9d8      	cbnz	r0, 80114a4 <_vfiprintf_r+0x12c>
 801146c:	06d1      	lsls	r1, r2, #27
 801146e:	bf44      	itt	mi
 8011470:	2320      	movmi	r3, #32
 8011472:	f88d 3053 	strbmi.w	r3, [sp, #83]	; 0x53
 8011476:	0713      	lsls	r3, r2, #28
 8011478:	bf44      	itt	mi
 801147a:	232b      	movmi	r3, #43	; 0x2b
 801147c:	f88d 3053 	strbmi.w	r3, [sp, #83]	; 0x53
 8011480:	f89a 3000 	ldrb.w	r3, [sl]
 8011484:	2b2a      	cmp	r3, #42	; 0x2a
 8011486:	d015      	beq.n	80114b4 <_vfiprintf_r+0x13c>
 8011488:	9a07      	ldr	r2, [sp, #28]
 801148a:	4654      	mov	r4, sl
 801148c:	2000      	movs	r0, #0
 801148e:	f04f 0c0a 	mov.w	ip, #10
 8011492:	4621      	mov	r1, r4
 8011494:	f811 3b01 	ldrb.w	r3, [r1], #1
 8011498:	3b30      	subs	r3, #48	; 0x30
 801149a:	2b09      	cmp	r3, #9
 801149c:	d94e      	bls.n	801153c <_vfiprintf_r+0x1c4>
 801149e:	b1b0      	cbz	r0, 80114ce <_vfiprintf_r+0x156>
 80114a0:	9207      	str	r2, [sp, #28]
 80114a2:	e014      	b.n	80114ce <_vfiprintf_r+0x156>
 80114a4:	eba0 0308 	sub.w	r3, r0, r8
 80114a8:	fa09 f303 	lsl.w	r3, r9, r3
 80114ac:	4313      	orrs	r3, r2
 80114ae:	9304      	str	r3, [sp, #16]
 80114b0:	46a2      	mov	sl, r4
 80114b2:	e7d2      	b.n	801145a <_vfiprintf_r+0xe2>
 80114b4:	9b03      	ldr	r3, [sp, #12]
 80114b6:	1d19      	adds	r1, r3, #4
 80114b8:	681b      	ldr	r3, [r3, #0]
 80114ba:	9103      	str	r1, [sp, #12]
 80114bc:	2b00      	cmp	r3, #0
 80114be:	bfbb      	ittet	lt
 80114c0:	425b      	neglt	r3, r3
 80114c2:	f042 0202 	orrlt.w	r2, r2, #2
 80114c6:	9307      	strge	r3, [sp, #28]
 80114c8:	9307      	strlt	r3, [sp, #28]
 80114ca:	bfb8      	it	lt
 80114cc:	9204      	strlt	r2, [sp, #16]
 80114ce:	7823      	ldrb	r3, [r4, #0]
 80114d0:	2b2e      	cmp	r3, #46	; 0x2e
 80114d2:	d10c      	bne.n	80114ee <_vfiprintf_r+0x176>
 80114d4:	7863      	ldrb	r3, [r4, #1]
 80114d6:	2b2a      	cmp	r3, #42	; 0x2a
 80114d8:	d135      	bne.n	8011546 <_vfiprintf_r+0x1ce>
 80114da:	9b03      	ldr	r3, [sp, #12]
 80114dc:	1d1a      	adds	r2, r3, #4
 80114de:	681b      	ldr	r3, [r3, #0]
 80114e0:	9203      	str	r2, [sp, #12]
 80114e2:	2b00      	cmp	r3, #0
 80114e4:	bfb8      	it	lt
 80114e6:	f04f 33ff 	movlt.w	r3, #4294967295	; 0xffffffff
 80114ea:	3402      	adds	r4, #2
 80114ec:	9305      	str	r3, [sp, #20]
 80114ee:	f8df a0e4 	ldr.w	sl, [pc, #228]	; 80115d4 <_vfiprintf_r+0x25c>
 80114f2:	7821      	ldrb	r1, [r4, #0]
 80114f4:	2203      	movs	r2, #3
 80114f6:	4650      	mov	r0, sl
 80114f8:	f7f6 fe7a 	bl	80081f0 <memchr>
 80114fc:	b140      	cbz	r0, 8011510 <_vfiprintf_r+0x198>
 80114fe:	2340      	movs	r3, #64	; 0x40
 8011500:	eba0 000a 	sub.w	r0, r0, sl
 8011504:	fa03 f000 	lsl.w	r0, r3, r0
 8011508:	9b04      	ldr	r3, [sp, #16]
 801150a:	4303      	orrs	r3, r0
 801150c:	3401      	adds	r4, #1
 801150e:	9304      	str	r3, [sp, #16]
 8011510:	f814 1b01 	ldrb.w	r1, [r4], #1
 8011514:	482c      	ldr	r0, [pc, #176]	; (80115c8 <_vfiprintf_r+0x250>)
 8011516:	f88d 1028 	strb.w	r1, [sp, #40]	; 0x28
 801151a:	2206      	movs	r2, #6
 801151c:	f7f6 fe68 	bl	80081f0 <memchr>
 8011520:	2800      	cmp	r0, #0
 8011522:	d03f      	beq.n	80115a4 <_vfiprintf_r+0x22c>
 8011524:	4b29      	ldr	r3, [pc, #164]	; (80115cc <_vfiprintf_r+0x254>)
 8011526:	bb1b      	cbnz	r3, 8011570 <_vfiprintf_r+0x1f8>
 8011528:	9b03      	ldr	r3, [sp, #12]
 801152a:	3307      	adds	r3, #7
 801152c:	f023 0307 	bic.w	r3, r3, #7
 8011530:	3308      	adds	r3, #8
 8011532:	9303      	str	r3, [sp, #12]
 8011534:	9b09      	ldr	r3, [sp, #36]	; 0x24
 8011536:	443b      	add	r3, r7
 8011538:	9309      	str	r3, [sp, #36]	; 0x24
 801153a:	e767      	b.n	801140c <_vfiprintf_r+0x94>
 801153c:	fb0c 3202 	mla	r2, ip, r2, r3
 8011540:	460c      	mov	r4, r1
 8011542:	2001      	movs	r0, #1
 8011544:	e7a5      	b.n	8011492 <_vfiprintf_r+0x11a>
 8011546:	2300      	movs	r3, #0
 8011548:	3401      	adds	r4, #1
 801154a:	9305      	str	r3, [sp, #20]
 801154c:	4619      	mov	r1, r3
 801154e:	f04f 0c0a 	mov.w	ip, #10
 8011552:	4620      	mov	r0, r4
 8011554:	f810 2b01 	ldrb.w	r2, [r0], #1
 8011558:	3a30      	subs	r2, #48	; 0x30
 801155a:	2a09      	cmp	r2, #9
 801155c:	d903      	bls.n	8011566 <_vfiprintf_r+0x1ee>
 801155e:	2b00      	cmp	r3, #0
 8011560:	d0c5      	beq.n	80114ee <_vfiprintf_r+0x176>
 8011562:	9105      	str	r1, [sp, #20]
 8011564:	e7c3      	b.n	80114ee <_vfiprintf_r+0x176>
 8011566:	fb0c 2101 	mla	r1, ip, r1, r2
 801156a:	4604      	mov	r4, r0
 801156c:	2301      	movs	r3, #1
 801156e:	e7f0      	b.n	8011552 <_vfiprintf_r+0x1da>
 8011570:	ab03      	add	r3, sp, #12
 8011572:	9300      	str	r3, [sp, #0]
 8011574:	462a      	mov	r2, r5
 8011576:	4b16      	ldr	r3, [pc, #88]	; (80115d0 <_vfiprintf_r+0x258>)
 8011578:	a904      	add	r1, sp, #16
 801157a:	4630      	mov	r0, r6
 801157c:	f7fd fd1a 	bl	800efb4 <_printf_float>
 8011580:	4607      	mov	r7, r0
 8011582:	1c78      	adds	r0, r7, #1
 8011584:	d1d6      	bne.n	8011534 <_vfiprintf_r+0x1bc>
 8011586:	6e6b      	ldr	r3, [r5, #100]	; 0x64
 8011588:	07d9      	lsls	r1, r3, #31
 801158a:	d405      	bmi.n	8011598 <_vfiprintf_r+0x220>
 801158c:	89ab      	ldrh	r3, [r5, #12]
 801158e:	059a      	lsls	r2, r3, #22
 8011590:	d402      	bmi.n	8011598 <_vfiprintf_r+0x220>
 8011592:	6da8      	ldr	r0, [r5, #88]	; 0x58
 8011594:	f000 faaf 	bl	8011af6 <__retarget_lock_release_recursive>
 8011598:	89ab      	ldrh	r3, [r5, #12]
 801159a:	065b      	lsls	r3, r3, #25
 801159c:	f53f af12 	bmi.w	80113c4 <_vfiprintf_r+0x4c>
 80115a0:	9809      	ldr	r0, [sp, #36]	; 0x24
 80115a2:	e711      	b.n	80113c8 <_vfiprintf_r+0x50>
 80115a4:	ab03      	add	r3, sp, #12
 80115a6:	9300      	str	r3, [sp, #0]
 80115a8:	462a      	mov	r2, r5
 80115aa:	4b09      	ldr	r3, [pc, #36]	; (80115d0 <_vfiprintf_r+0x258>)
 80115ac:	a904      	add	r1, sp, #16
 80115ae:	4630      	mov	r0, r6
 80115b0:	f7fd ffa4 	bl	800f4fc <_printf_i>
 80115b4:	e7e4      	b.n	8011580 <_vfiprintf_r+0x208>
 80115b6:	bf00      	nop
 80115b8:	0801702c 	.word	0x0801702c
 80115bc:	0801704c 	.word	0x0801704c
 80115c0:	0801700c 	.word	0x0801700c
 80115c4:	08016fb4 	.word	0x08016fb4
 80115c8:	08016fbe 	.word	0x08016fbe
 80115cc:	0800efb5 	.word	0x0800efb5
 80115d0:	08011353 	.word	0x08011353
 80115d4:	08016fba 	.word	0x08016fba

080115d8 <__swbuf_r>:
 80115d8:	b5f8      	push	{r3, r4, r5, r6, r7, lr}
 80115da:	460e      	mov	r6, r1
 80115dc:	4614      	mov	r4, r2
 80115de:	4605      	mov	r5, r0
 80115e0:	b118      	cbz	r0, 80115ea <__swbuf_r+0x12>
 80115e2:	6983      	ldr	r3, [r0, #24]
 80115e4:	b90b      	cbnz	r3, 80115ea <__swbuf_r+0x12>
 80115e6:	f000 f9e7 	bl	80119b8 <__sinit>
 80115ea:	4b21      	ldr	r3, [pc, #132]	; (8011670 <__swbuf_r+0x98>)
 80115ec:	429c      	cmp	r4, r3
 80115ee:	d12b      	bne.n	8011648 <__swbuf_r+0x70>
 80115f0:	686c      	ldr	r4, [r5, #4]
 80115f2:	69a3      	ldr	r3, [r4, #24]
 80115f4:	60a3      	str	r3, [r4, #8]
 80115f6:	89a3      	ldrh	r3, [r4, #12]
 80115f8:	071a      	lsls	r2, r3, #28
 80115fa:	d52f      	bpl.n	801165c <__swbuf_r+0x84>
 80115fc:	6923      	ldr	r3, [r4, #16]
 80115fe:	b36b      	cbz	r3, 801165c <__swbuf_r+0x84>
 8011600:	6923      	ldr	r3, [r4, #16]
 8011602:	6820      	ldr	r0, [r4, #0]
 8011604:	1ac0      	subs	r0, r0, r3
 8011606:	6963      	ldr	r3, [r4, #20]
 8011608:	b2f6      	uxtb	r6, r6
 801160a:	4283      	cmp	r3, r0
 801160c:	4637      	mov	r7, r6
 801160e:	dc04      	bgt.n	801161a <__swbuf_r+0x42>
 8011610:	4621      	mov	r1, r4
 8011612:	4628      	mov	r0, r5
 8011614:	f000 f93c 	bl	8011890 <_fflush_r>
 8011618:	bb30      	cbnz	r0, 8011668 <__swbuf_r+0x90>
 801161a:	68a3      	ldr	r3, [r4, #8]
 801161c:	3b01      	subs	r3, #1
 801161e:	60a3      	str	r3, [r4, #8]
 8011620:	6823      	ldr	r3, [r4, #0]
 8011622:	1c5a      	adds	r2, r3, #1
 8011624:	6022      	str	r2, [r4, #0]
 8011626:	701e      	strb	r6, [r3, #0]
 8011628:	6963      	ldr	r3, [r4, #20]
 801162a:	3001      	adds	r0, #1
 801162c:	4283      	cmp	r3, r0
 801162e:	d004      	beq.n	801163a <__swbuf_r+0x62>
 8011630:	89a3      	ldrh	r3, [r4, #12]
 8011632:	07db      	lsls	r3, r3, #31
 8011634:	d506      	bpl.n	8011644 <__swbuf_r+0x6c>
 8011636:	2e0a      	cmp	r6, #10
 8011638:	d104      	bne.n	8011644 <__swbuf_r+0x6c>
 801163a:	4621      	mov	r1, r4
 801163c:	4628      	mov	r0, r5
 801163e:	f000 f927 	bl	8011890 <_fflush_r>
 8011642:	b988      	cbnz	r0, 8011668 <__swbuf_r+0x90>
 8011644:	4638      	mov	r0, r7
 8011646:	bdf8      	pop	{r3, r4, r5, r6, r7, pc}
 8011648:	4b0a      	ldr	r3, [pc, #40]	; (8011674 <__swbuf_r+0x9c>)
 801164a:	429c      	cmp	r4, r3
 801164c:	d101      	bne.n	8011652 <__swbuf_r+0x7a>
 801164e:	68ac      	ldr	r4, [r5, #8]
 8011650:	e7cf      	b.n	80115f2 <__swbuf_r+0x1a>
 8011652:	4b09      	ldr	r3, [pc, #36]	; (8011678 <__swbuf_r+0xa0>)
 8011654:	429c      	cmp	r4, r3
 8011656:	bf08      	it	eq
 8011658:	68ec      	ldreq	r4, [r5, #12]
 801165a:	e7ca      	b.n	80115f2 <__swbuf_r+0x1a>
 801165c:	4621      	mov	r1, r4
 801165e:	4628      	mov	r0, r5
 8011660:	f000 f81a 	bl	8011698 <__swsetup_r>
 8011664:	2800      	cmp	r0, #0
 8011666:	d0cb      	beq.n	8011600 <__swbuf_r+0x28>
 8011668:	f04f 37ff 	mov.w	r7, #4294967295	; 0xffffffff
 801166c:	e7ea      	b.n	8011644 <__swbuf_r+0x6c>
 801166e:	bf00      	nop
 8011670:	0801702c 	.word	0x0801702c
 8011674:	0801704c 	.word	0x0801704c
 8011678:	0801700c 	.word	0x0801700c

0801167c <__ascii_wctomb>:
 801167c:	b149      	cbz	r1, 8011692 <__ascii_wctomb+0x16>
 801167e:	2aff      	cmp	r2, #255	; 0xff
 8011680:	bf85      	ittet	hi
 8011682:	238a      	movhi	r3, #138	; 0x8a
 8011684:	6003      	strhi	r3, [r0, #0]
 8011686:	700a      	strbls	r2, [r1, #0]
 8011688:	f04f 30ff 	movhi.w	r0, #4294967295	; 0xffffffff
 801168c:	bf98      	it	ls
 801168e:	2001      	movls	r0, #1
 8011690:	4770      	bx	lr
 8011692:	4608      	mov	r0, r1
 8011694:	4770      	bx	lr
	...

08011698 <__swsetup_r>:
 8011698:	4b32      	ldr	r3, [pc, #200]	; (8011764 <__swsetup_r+0xcc>)
 801169a:	b570      	push	{r4, r5, r6, lr}
 801169c:	681d      	ldr	r5, [r3, #0]
 801169e:	4606      	mov	r6, r0
 80116a0:	460c      	mov	r4, r1
 80116a2:	b125      	cbz	r5, 80116ae <__swsetup_r+0x16>
 80116a4:	69ab      	ldr	r3, [r5, #24]
 80116a6:	b913      	cbnz	r3, 80116ae <__swsetup_r+0x16>
 80116a8:	4628      	mov	r0, r5
 80116aa:	f000 f985 	bl	80119b8 <__sinit>
 80116ae:	4b2e      	ldr	r3, [pc, #184]	; (8011768 <__swsetup_r+0xd0>)
 80116b0:	429c      	cmp	r4, r3
 80116b2:	d10f      	bne.n	80116d4 <__swsetup_r+0x3c>
 80116b4:	686c      	ldr	r4, [r5, #4]
 80116b6:	89a3      	ldrh	r3, [r4, #12]
 80116b8:	f9b4 200c 	ldrsh.w	r2, [r4, #12]
 80116bc:	0719      	lsls	r1, r3, #28
 80116be:	d42c      	bmi.n	801171a <__swsetup_r+0x82>
 80116c0:	06dd      	lsls	r5, r3, #27
 80116c2:	d411      	bmi.n	80116e8 <__swsetup_r+0x50>
 80116c4:	2309      	movs	r3, #9
 80116c6:	6033      	str	r3, [r6, #0]
 80116c8:	f042 0340 	orr.w	r3, r2, #64	; 0x40
 80116cc:	81a3      	strh	r3, [r4, #12]
 80116ce:	f04f 30ff 	mov.w	r0, #4294967295	; 0xffffffff
 80116d2:	e03e      	b.n	8011752 <__swsetup_r+0xba>
 80116d4:	4b25      	ldr	r3, [pc, #148]	; (801176c <__swsetup_r+0xd4>)
 80116d6:	429c      	cmp	r4, r3
 80116d8:	d101      	bne.n	80116de <__swsetup_r+0x46>
 80116da:	68ac      	ldr	r4, [r5, #8]
 80116dc:	e7eb      	b.n	80116b6 <__swsetup_r+0x1e>
 80116de:	4b24      	ldr	r3, [pc, #144]	; (8011770 <__swsetup_r+0xd8>)
 80116e0:	429c      	cmp	r4, r3
 80116e2:	bf08      	it	eq
 80116e4:	68ec      	ldreq	r4, [r5, #12]
 80116e6:	e7e6      	b.n	80116b6 <__swsetup_r+0x1e>
 80116e8:	0758      	lsls	r0, r3, #29
 80116ea:	d512      	bpl.n	8011712 <__swsetup_r+0x7a>
 80116ec:	6b61      	ldr	r1, [r4, #52]	; 0x34
 80116ee:	b141      	cbz	r1, 8011702 <__swsetup_r+0x6a>
 80116f0:	f104 0344 	add.w	r3, r4, #68	; 0x44
 80116f4:	4299      	cmp	r1, r3
 80116f6:	d002      	beq.n	80116fe <__swsetup_r+0x66>
 80116f8:	4630      	mov	r0, r6
 80116fa:	f7ff fb6f 	bl	8010ddc <_free_r>
 80116fe:	2300      	movs	r3, #0
 8011700:	6363      	str	r3, [r4, #52]	; 0x34
 8011702:	89a3      	ldrh	r3, [r4, #12]
 8011704:	f023 0324 	bic.w	r3, r3, #36	; 0x24
 8011708:	81a3      	strh	r3, [r4, #12]
 801170a:	2300      	movs	r3, #0
 801170c:	6063      	str	r3, [r4, #4]
 801170e:	6923      	ldr	r3, [r4, #16]
 8011710:	6023      	str	r3, [r4, #0]
 8011712:	89a3      	ldrh	r3, [r4, #12]
 8011714:	f043 0308 	orr.w	r3, r3, #8
 8011718:	81a3      	strh	r3, [r4, #12]
 801171a:	6923      	ldr	r3, [r4, #16]
 801171c:	b94b      	cbnz	r3, 8011732 <__swsetup_r+0x9a>
 801171e:	89a3      	ldrh	r3, [r4, #12]
 8011720:	f403 7320 	and.w	r3, r3, #640	; 0x280
 8011724:	f5b3 7f00 	cmp.w	r3, #512	; 0x200
 8011728:	d003      	beq.n	8011732 <__swsetup_r+0x9a>
 801172a:	4621      	mov	r1, r4
 801172c:	4630      	mov	r0, r6
 801172e:	f000 fa07 	bl	8011b40 <__smakebuf_r>
 8011732:	89a0      	ldrh	r0, [r4, #12]
 8011734:	f9b4 200c 	ldrsh.w	r2, [r4, #12]
 8011738:	f010 0301 	ands.w	r3, r0, #1
 801173c:	d00a      	beq.n	8011754 <__swsetup_r+0xbc>
 801173e:	2300      	movs	r3, #0
 8011740:	60a3      	str	r3, [r4, #8]
 8011742:	6963      	ldr	r3, [r4, #20]
 8011744:	425b      	negs	r3, r3
 8011746:	61a3      	str	r3, [r4, #24]
 8011748:	6923      	ldr	r3, [r4, #16]
 801174a:	b943      	cbnz	r3, 801175e <__swsetup_r+0xc6>
 801174c:	f010 0080 	ands.w	r0, r0, #128	; 0x80
 8011750:	d1ba      	bne.n	80116c8 <__swsetup_r+0x30>
 8011752:	bd70      	pop	{r4, r5, r6, pc}
 8011754:	0781      	lsls	r1, r0, #30
 8011756:	bf58      	it	pl
 8011758:	6963      	ldrpl	r3, [r4, #20]
 801175a:	60a3      	str	r3, [r4, #8]
 801175c:	e7f4      	b.n	8011748 <__swsetup_r+0xb0>
 801175e:	2000      	movs	r0, #0
 8011760:	e7f7      	b.n	8011752 <__swsetup_r+0xba>
 8011762:	bf00      	nop
 8011764:	2000006c 	.word	0x2000006c
 8011768:	0801702c 	.word	0x0801702c
 801176c:	0801704c 	.word	0x0801704c
 8011770:	0801700c 	.word	0x0801700c

08011774 <abort>:
 8011774:	b508      	push	{r3, lr}
 8011776:	2006      	movs	r0, #6
 8011778:	f000 fa52 	bl	8011c20 <raise>
 801177c:	2001      	movs	r0, #1
 801177e:	f7f9 ffb1 	bl	800b6e4 <_exit>
	...

08011784 <__sflush_r>:
 8011784:	898a      	ldrh	r2, [r1, #12]
 8011786:	e92d 41f0 	stmdb	sp!, {r4, r5, r6, r7, r8, lr}
 801178a:	4605      	mov	r5, r0
 801178c:	0710      	lsls	r0, r2, #28
 801178e:	460c      	mov	r4, r1
 8011790:	d458      	bmi.n	8011844 <__sflush_r+0xc0>
 8011792:	684b      	ldr	r3, [r1, #4]
 8011794:	2b00      	cmp	r3, #0
 8011796:	dc05      	bgt.n	80117a4 <__sflush_r+0x20>
 8011798:	6c0b      	ldr	r3, [r1, #64]	; 0x40
 801179a:	2b00      	cmp	r3, #0
 801179c:	dc02      	bgt.n	80117a4 <__sflush_r+0x20>
 801179e:	2000      	movs	r0, #0
 80117a0:	e8bd 81f0 	ldmia.w	sp!, {r4, r5, r6, r7, r8, pc}
 80117a4:	6ae6      	ldr	r6, [r4, #44]	; 0x2c
 80117a6:	2e00      	cmp	r6, #0
 80117a8:	d0f9      	beq.n	801179e <__sflush_r+0x1a>
 80117aa:	2300      	movs	r3, #0
 80117ac:	f412 5280 	ands.w	r2, r2, #4096	; 0x1000
 80117b0:	682f      	ldr	r7, [r5, #0]
 80117b2:	602b      	str	r3, [r5, #0]
 80117b4:	d032      	beq.n	801181c <__sflush_r+0x98>
 80117b6:	6d60      	ldr	r0, [r4, #84]	; 0x54
 80117b8:	89a3      	ldrh	r3, [r4, #12]
 80117ba:	075a      	lsls	r2, r3, #29
 80117bc:	d505      	bpl.n	80117ca <__sflush_r+0x46>
 80117be:	6863      	ldr	r3, [r4, #4]
 80117c0:	1ac0      	subs	r0, r0, r3
 80117c2:	6b63      	ldr	r3, [r4, #52]	; 0x34
 80117c4:	b10b      	cbz	r3, 80117ca <__sflush_r+0x46>
 80117c6:	6c23      	ldr	r3, [r4, #64]	; 0x40
 80117c8:	1ac0      	subs	r0, r0, r3
 80117ca:	2300      	movs	r3, #0
 80117cc:	4602      	mov	r2, r0
 80117ce:	6ae6      	ldr	r6, [r4, #44]	; 0x2c
 80117d0:	6a21      	ldr	r1, [r4, #32]
 80117d2:	4628      	mov	r0, r5
 80117d4:	47b0      	blx	r6
 80117d6:	1c43      	adds	r3, r0, #1
 80117d8:	89a3      	ldrh	r3, [r4, #12]
 80117da:	d106      	bne.n	80117ea <__sflush_r+0x66>
 80117dc:	6829      	ldr	r1, [r5, #0]
 80117de:	291d      	cmp	r1, #29
 80117e0:	d82c      	bhi.n	801183c <__sflush_r+0xb8>
 80117e2:	4a2a      	ldr	r2, [pc, #168]	; (801188c <__sflush_r+0x108>)
 80117e4:	40ca      	lsrs	r2, r1
 80117e6:	07d6      	lsls	r6, r2, #31
 80117e8:	d528      	bpl.n	801183c <__sflush_r+0xb8>
 80117ea:	2200      	movs	r2, #0
 80117ec:	6062      	str	r2, [r4, #4]
 80117ee:	04d9      	lsls	r1, r3, #19
 80117f0:	6922      	ldr	r2, [r4, #16]
 80117f2:	6022      	str	r2, [r4, #0]
 80117f4:	d504      	bpl.n	8011800 <__sflush_r+0x7c>
 80117f6:	1c42      	adds	r2, r0, #1
 80117f8:	d101      	bne.n	80117fe <__sflush_r+0x7a>
 80117fa:	682b      	ldr	r3, [r5, #0]
 80117fc:	b903      	cbnz	r3, 8011800 <__sflush_r+0x7c>
 80117fe:	6560      	str	r0, [r4, #84]	; 0x54
 8011800:	6b61      	ldr	r1, [r4, #52]	; 0x34
 8011802:	602f      	str	r7, [r5, #0]
 8011804:	2900      	cmp	r1, #0
 8011806:	d0ca      	beq.n	801179e <__sflush_r+0x1a>
 8011808:	f104 0344 	add.w	r3, r4, #68	; 0x44
 801180c:	4299      	cmp	r1, r3
 801180e:	d002      	beq.n	8011816 <__sflush_r+0x92>
 8011810:	4628      	mov	r0, r5
 8011812:	f7ff fae3 	bl	8010ddc <_free_r>
 8011816:	2000      	movs	r0, #0
 8011818:	6360      	str	r0, [r4, #52]	; 0x34
 801181a:	e7c1      	b.n	80117a0 <__sflush_r+0x1c>
 801181c:	6a21      	ldr	r1, [r4, #32]
 801181e:	2301      	movs	r3, #1
 8011820:	4628      	mov	r0, r5
 8011822:	47b0      	blx	r6
 8011824:	1c41      	adds	r1, r0, #1
 8011826:	d1c7      	bne.n	80117b8 <__sflush_r+0x34>
 8011828:	682b      	ldr	r3, [r5, #0]
 801182a:	2b00      	cmp	r3, #0
 801182c:	d0c4      	beq.n	80117b8 <__sflush_r+0x34>
 801182e:	2b1d      	cmp	r3, #29
 8011830:	d001      	beq.n	8011836 <__sflush_r+0xb2>
 8011832:	2b16      	cmp	r3, #22
 8011834:	d101      	bne.n	801183a <__sflush_r+0xb6>
 8011836:	602f      	str	r7, [r5, #0]
 8011838:	e7b1      	b.n	801179e <__sflush_r+0x1a>
 801183a:	89a3      	ldrh	r3, [r4, #12]
 801183c:	f043 0340 	orr.w	r3, r3, #64	; 0x40
 8011840:	81a3      	strh	r3, [r4, #12]
 8011842:	e7ad      	b.n	80117a0 <__sflush_r+0x1c>
 8011844:	690f      	ldr	r7, [r1, #16]
 8011846:	2f00      	cmp	r7, #0
 8011848:	d0a9      	beq.n	801179e <__sflush_r+0x1a>
 801184a:	0793      	lsls	r3, r2, #30
 801184c:	680e      	ldr	r6, [r1, #0]
 801184e:	bf08      	it	eq
 8011850:	694b      	ldreq	r3, [r1, #20]
 8011852:	600f      	str	r7, [r1, #0]
 8011854:	bf18      	it	ne
 8011856:	2300      	movne	r3, #0
 8011858:	eba6 0807 	sub.w	r8, r6, r7
 801185c:	608b      	str	r3, [r1, #8]
 801185e:	f1b8 0f00 	cmp.w	r8, #0
 8011862:	dd9c      	ble.n	801179e <__sflush_r+0x1a>
 8011864:	6a21      	ldr	r1, [r4, #32]
 8011866:	6aa6      	ldr	r6, [r4, #40]	; 0x28
 8011868:	4643      	mov	r3, r8
 801186a:	463a      	mov	r2, r7
 801186c:	4628      	mov	r0, r5
 801186e:	47b0      	blx	r6
 8011870:	2800      	cmp	r0, #0
 8011872:	dc06      	bgt.n	8011882 <__sflush_r+0xfe>
 8011874:	89a3      	ldrh	r3, [r4, #12]
 8011876:	f043 0340 	orr.w	r3, r3, #64	; 0x40
 801187a:	81a3      	strh	r3, [r4, #12]
 801187c:	f04f 30ff 	mov.w	r0, #4294967295	; 0xffffffff
 8011880:	e78e      	b.n	80117a0 <__sflush_r+0x1c>
 8011882:	4407      	add	r7, r0
 8011884:	eba8 0800 	sub.w	r8, r8, r0
 8011888:	e7e9      	b.n	801185e <__sflush_r+0xda>
 801188a:	bf00      	nop
 801188c:	20400001 	.word	0x20400001

08011890 <_fflush_r>:
 8011890:	b538      	push	{r3, r4, r5, lr}
 8011892:	690b      	ldr	r3, [r1, #16]
 8011894:	4605      	mov	r5, r0
 8011896:	460c      	mov	r4, r1
 8011898:	b913      	cbnz	r3, 80118a0 <_fflush_r+0x10>
 801189a:	2500      	movs	r5, #0
 801189c:	4628      	mov	r0, r5
 801189e:	bd38      	pop	{r3, r4, r5, pc}
 80118a0:	b118      	cbz	r0, 80118aa <_fflush_r+0x1a>
 80118a2:	6983      	ldr	r3, [r0, #24]
 80118a4:	b90b      	cbnz	r3, 80118aa <_fflush_r+0x1a>
 80118a6:	f000 f887 	bl	80119b8 <__sinit>
 80118aa:	4b14      	ldr	r3, [pc, #80]	; (80118fc <_fflush_r+0x6c>)
 80118ac:	429c      	cmp	r4, r3
 80118ae:	d11b      	bne.n	80118e8 <_fflush_r+0x58>
 80118b0:	686c      	ldr	r4, [r5, #4]
 80118b2:	f9b4 300c 	ldrsh.w	r3, [r4, #12]
 80118b6:	2b00      	cmp	r3, #0
 80118b8:	d0ef      	beq.n	801189a <_fflush_r+0xa>
 80118ba:	6e62      	ldr	r2, [r4, #100]	; 0x64
 80118bc:	07d0      	lsls	r0, r2, #31
 80118be:	d404      	bmi.n	80118ca <_fflush_r+0x3a>
 80118c0:	0599      	lsls	r1, r3, #22
 80118c2:	d402      	bmi.n	80118ca <_fflush_r+0x3a>
 80118c4:	6da0      	ldr	r0, [r4, #88]	; 0x58
 80118c6:	f000 f915 	bl	8011af4 <__retarget_lock_acquire_recursive>
 80118ca:	4628      	mov	r0, r5
 80118cc:	4621      	mov	r1, r4
 80118ce:	f7ff ff59 	bl	8011784 <__sflush_r>
 80118d2:	6e63      	ldr	r3, [r4, #100]	; 0x64
 80118d4:	07da      	lsls	r2, r3, #31
 80118d6:	4605      	mov	r5, r0
 80118d8:	d4e0      	bmi.n	801189c <_fflush_r+0xc>
 80118da:	89a3      	ldrh	r3, [r4, #12]
 80118dc:	059b      	lsls	r3, r3, #22
 80118de:	d4dd      	bmi.n	801189c <_fflush_r+0xc>
 80118e0:	6da0      	ldr	r0, [r4, #88]	; 0x58
 80118e2:	f000 f908 	bl	8011af6 <__retarget_lock_release_recursive>
 80118e6:	e7d9      	b.n	801189c <_fflush_r+0xc>
 80118e8:	4b05      	ldr	r3, [pc, #20]	; (8011900 <_fflush_r+0x70>)
 80118ea:	429c      	cmp	r4, r3
 80118ec:	d101      	bne.n	80118f2 <_fflush_r+0x62>
 80118ee:	68ac      	ldr	r4, [r5, #8]
 80118f0:	e7df      	b.n	80118b2 <_fflush_r+0x22>
 80118f2:	4b04      	ldr	r3, [pc, #16]	; (8011904 <_fflush_r+0x74>)
 80118f4:	429c      	cmp	r4, r3
 80118f6:	bf08      	it	eq
 80118f8:	68ec      	ldreq	r4, [r5, #12]
 80118fa:	e7da      	b.n	80118b2 <_fflush_r+0x22>
 80118fc:	0801702c 	.word	0x0801702c
 8011900:	0801704c 	.word	0x0801704c
 8011904:	0801700c 	.word	0x0801700c

08011908 <std>:
 8011908:	2300      	movs	r3, #0
 801190a:	b510      	push	{r4, lr}
 801190c:	4604      	mov	r4, r0
 801190e:	e9c0 3300 	strd	r3, r3, [r0]
 8011912:	e9c0 3304 	strd	r3, r3, [r0, #16]
 8011916:	6083      	str	r3, [r0, #8]
 8011918:	8181      	strh	r1, [r0, #12]
 801191a:	6643      	str	r3, [r0, #100]	; 0x64
 801191c:	81c2      	strh	r2, [r0, #14]
 801191e:	6183      	str	r3, [r0, #24]
 8011920:	4619      	mov	r1, r3
 8011922:	2208      	movs	r2, #8
 8011924:	305c      	adds	r0, #92	; 0x5c
 8011926:	f7fd fa9d 	bl	800ee64 <memset>
 801192a:	4b05      	ldr	r3, [pc, #20]	; (8011940 <std+0x38>)
 801192c:	6263      	str	r3, [r4, #36]	; 0x24
 801192e:	4b05      	ldr	r3, [pc, #20]	; (8011944 <std+0x3c>)
 8011930:	62a3      	str	r3, [r4, #40]	; 0x28
 8011932:	4b05      	ldr	r3, [pc, #20]	; (8011948 <std+0x40>)
 8011934:	62e3      	str	r3, [r4, #44]	; 0x2c
 8011936:	4b05      	ldr	r3, [pc, #20]	; (801194c <std+0x44>)
 8011938:	6224      	str	r4, [r4, #32]
 801193a:	6323      	str	r3, [r4, #48]	; 0x30
 801193c:	bd10      	pop	{r4, pc}
 801193e:	bf00      	nop
 8011940:	08011c59 	.word	0x08011c59
 8011944:	08011c7b 	.word	0x08011c7b
 8011948:	08011cb3 	.word	0x08011cb3
 801194c:	08011cd7 	.word	0x08011cd7

08011950 <_cleanup_r>:
 8011950:	4901      	ldr	r1, [pc, #4]	; (8011958 <_cleanup_r+0x8>)
 8011952:	f000 b8af 	b.w	8011ab4 <_fwalk_reent>
 8011956:	bf00      	nop
 8011958:	08011891 	.word	0x08011891

0801195c <__sfmoreglue>:
 801195c:	b570      	push	{r4, r5, r6, lr}
 801195e:	1e4a      	subs	r2, r1, #1
 8011960:	2568      	movs	r5, #104	; 0x68
 8011962:	4355      	muls	r5, r2
 8011964:	460e      	mov	r6, r1
 8011966:	f105 0174 	add.w	r1, r5, #116	; 0x74
 801196a:	f7ff fa87 	bl	8010e7c <_malloc_r>
 801196e:	4604      	mov	r4, r0
 8011970:	b140      	cbz	r0, 8011984 <__sfmoreglue+0x28>
 8011972:	2100      	movs	r1, #0
 8011974:	e9c0 1600 	strd	r1, r6, [r0]
 8011978:	300c      	adds	r0, #12
 801197a:	60a0      	str	r0, [r4, #8]
 801197c:	f105 0268 	add.w	r2, r5, #104	; 0x68
 8011980:	f7fd fa70 	bl	800ee64 <memset>
 8011984:	4620      	mov	r0, r4
 8011986:	bd70      	pop	{r4, r5, r6, pc}

08011988 <__sfp_lock_acquire>:
 8011988:	4801      	ldr	r0, [pc, #4]	; (8011990 <__sfp_lock_acquire+0x8>)
 801198a:	f000 b8b3 	b.w	8011af4 <__retarget_lock_acquire_recursive>
 801198e:	bf00      	nop
 8011990:	200014a4 	.word	0x200014a4

08011994 <__sfp_lock_release>:
 8011994:	4801      	ldr	r0, [pc, #4]	; (801199c <__sfp_lock_release+0x8>)
 8011996:	f000 b8ae 	b.w	8011af6 <__retarget_lock_release_recursive>
 801199a:	bf00      	nop
 801199c:	200014a4 	.word	0x200014a4

080119a0 <__sinit_lock_acquire>:
 80119a0:	4801      	ldr	r0, [pc, #4]	; (80119a8 <__sinit_lock_acquire+0x8>)
 80119a2:	f000 b8a7 	b.w	8011af4 <__retarget_lock_acquire_recursive>
 80119a6:	bf00      	nop
 80119a8:	2000149f 	.word	0x2000149f

080119ac <__sinit_lock_release>:
 80119ac:	4801      	ldr	r0, [pc, #4]	; (80119b4 <__sinit_lock_release+0x8>)
 80119ae:	f000 b8a2 	b.w	8011af6 <__retarget_lock_release_recursive>
 80119b2:	bf00      	nop
 80119b4:	2000149f 	.word	0x2000149f

080119b8 <__sinit>:
 80119b8:	b510      	push	{r4, lr}
 80119ba:	4604      	mov	r4, r0
 80119bc:	f7ff fff0 	bl	80119a0 <__sinit_lock_acquire>
 80119c0:	69a3      	ldr	r3, [r4, #24]
 80119c2:	b11b      	cbz	r3, 80119cc <__sinit+0x14>
 80119c4:	e8bd 4010 	ldmia.w	sp!, {r4, lr}
 80119c8:	f7ff bff0 	b.w	80119ac <__sinit_lock_release>
 80119cc:	e9c4 3312 	strd	r3, r3, [r4, #72]	; 0x48
 80119d0:	6523      	str	r3, [r4, #80]	; 0x50
 80119d2:	4b13      	ldr	r3, [pc, #76]	; (8011a20 <__sinit+0x68>)
 80119d4:	4a13      	ldr	r2, [pc, #76]	; (8011a24 <__sinit+0x6c>)
 80119d6:	681b      	ldr	r3, [r3, #0]
 80119d8:	62a2      	str	r2, [r4, #40]	; 0x28
 80119da:	42a3      	cmp	r3, r4
 80119dc:	bf04      	itt	eq
 80119de:	2301      	moveq	r3, #1
 80119e0:	61a3      	streq	r3, [r4, #24]
 80119e2:	4620      	mov	r0, r4
 80119e4:	f000 f820 	bl	8011a28 <__sfp>
 80119e8:	6060      	str	r0, [r4, #4]
 80119ea:	4620      	mov	r0, r4
 80119ec:	f000 f81c 	bl	8011a28 <__sfp>
 80119f0:	60a0      	str	r0, [r4, #8]
 80119f2:	4620      	mov	r0, r4
 80119f4:	f000 f818 	bl	8011a28 <__sfp>
 80119f8:	2200      	movs	r2, #0
 80119fa:	60e0      	str	r0, [r4, #12]
 80119fc:	2104      	movs	r1, #4
 80119fe:	6860      	ldr	r0, [r4, #4]
 8011a00:	f7ff ff82 	bl	8011908 <std>
 8011a04:	68a0      	ldr	r0, [r4, #8]
 8011a06:	2201      	movs	r2, #1
 8011a08:	2109      	movs	r1, #9
 8011a0a:	f7ff ff7d 	bl	8011908 <std>
 8011a0e:	68e0      	ldr	r0, [r4, #12]
 8011a10:	2202      	movs	r2, #2
 8011a12:	2112      	movs	r1, #18
 8011a14:	f7ff ff78 	bl	8011908 <std>
 8011a18:	2301      	movs	r3, #1
 8011a1a:	61a3      	str	r3, [r4, #24]
 8011a1c:	e7d2      	b.n	80119c4 <__sinit+0xc>
 8011a1e:	bf00      	nop
 8011a20:	08016c88 	.word	0x08016c88
 8011a24:	08011951 	.word	0x08011951

08011a28 <__sfp>:
 8011a28:	b5f8      	push	{r3, r4, r5, r6, r7, lr}
 8011a2a:	4607      	mov	r7, r0
 8011a2c:	f7ff ffac 	bl	8011988 <__sfp_lock_acquire>
 8011a30:	4b1e      	ldr	r3, [pc, #120]	; (8011aac <__sfp+0x84>)
 8011a32:	681e      	ldr	r6, [r3, #0]
 8011a34:	69b3      	ldr	r3, [r6, #24]
 8011a36:	b913      	cbnz	r3, 8011a3e <__sfp+0x16>
 8011a38:	4630      	mov	r0, r6
 8011a3a:	f7ff ffbd 	bl	80119b8 <__sinit>
 8011a3e:	3648      	adds	r6, #72	; 0x48
 8011a40:	e9d6 3401 	ldrd	r3, r4, [r6, #4]
 8011a44:	3b01      	subs	r3, #1
 8011a46:	d503      	bpl.n	8011a50 <__sfp+0x28>
 8011a48:	6833      	ldr	r3, [r6, #0]
 8011a4a:	b30b      	cbz	r3, 8011a90 <__sfp+0x68>
 8011a4c:	6836      	ldr	r6, [r6, #0]
 8011a4e:	e7f7      	b.n	8011a40 <__sfp+0x18>
 8011a50:	f9b4 500c 	ldrsh.w	r5, [r4, #12]
 8011a54:	b9d5      	cbnz	r5, 8011a8c <__sfp+0x64>
 8011a56:	4b16      	ldr	r3, [pc, #88]	; (8011ab0 <__sfp+0x88>)
 8011a58:	60e3      	str	r3, [r4, #12]
 8011a5a:	f104 0058 	add.w	r0, r4, #88	; 0x58
 8011a5e:	6665      	str	r5, [r4, #100]	; 0x64
 8011a60:	f000 f847 	bl	8011af2 <__retarget_lock_init_recursive>
 8011a64:	f7ff ff96 	bl	8011994 <__sfp_lock_release>
 8011a68:	e9c4 5501 	strd	r5, r5, [r4, #4]
 8011a6c:	e9c4 5504 	strd	r5, r5, [r4, #16]
 8011a70:	6025      	str	r5, [r4, #0]
 8011a72:	61a5      	str	r5, [r4, #24]
 8011a74:	2208      	movs	r2, #8
 8011a76:	4629      	mov	r1, r5
 8011a78:	f104 005c 	add.w	r0, r4, #92	; 0x5c
 8011a7c:	f7fd f9f2 	bl	800ee64 <memset>
 8011a80:	e9c4 550d 	strd	r5, r5, [r4, #52]	; 0x34
 8011a84:	e9c4 5512 	strd	r5, r5, [r4, #72]	; 0x48
 8011a88:	4620      	mov	r0, r4
 8011a8a:	bdf8      	pop	{r3, r4, r5, r6, r7, pc}
 8011a8c:	3468      	adds	r4, #104	; 0x68
 8011a8e:	e7d9      	b.n	8011a44 <__sfp+0x1c>
 8011a90:	2104      	movs	r1, #4
 8011a92:	4638      	mov	r0, r7
 8011a94:	f7ff ff62 	bl	801195c <__sfmoreglue>
 8011a98:	4604      	mov	r4, r0
 8011a9a:	6030      	str	r0, [r6, #0]
 8011a9c:	2800      	cmp	r0, #0
 8011a9e:	d1d5      	bne.n	8011a4c <__sfp+0x24>
 8011aa0:	f7ff ff78 	bl	8011994 <__sfp_lock_release>
 8011aa4:	230c      	movs	r3, #12
 8011aa6:	603b      	str	r3, [r7, #0]
 8011aa8:	e7ee      	b.n	8011a88 <__sfp+0x60>
 8011aaa:	bf00      	nop
 8011aac:	08016c88 	.word	0x08016c88
 8011ab0:	ffff0001 	.word	0xffff0001

08011ab4 <_fwalk_reent>:
 8011ab4:	e92d 43f8 	stmdb	sp!, {r3, r4, r5, r6, r7, r8, r9, lr}
 8011ab8:	4606      	mov	r6, r0
 8011aba:	4688      	mov	r8, r1
 8011abc:	f100 0448 	add.w	r4, r0, #72	; 0x48
 8011ac0:	2700      	movs	r7, #0
 8011ac2:	e9d4 9501 	ldrd	r9, r5, [r4, #4]
 8011ac6:	f1b9 0901 	subs.w	r9, r9, #1
 8011aca:	d505      	bpl.n	8011ad8 <_fwalk_reent+0x24>
 8011acc:	6824      	ldr	r4, [r4, #0]
 8011ace:	2c00      	cmp	r4, #0
 8011ad0:	d1f7      	bne.n	8011ac2 <_fwalk_reent+0xe>
 8011ad2:	4638      	mov	r0, r7
 8011ad4:	e8bd 83f8 	ldmia.w	sp!, {r3, r4, r5, r6, r7, r8, r9, pc}
 8011ad8:	89ab      	ldrh	r3, [r5, #12]
 8011ada:	2b01      	cmp	r3, #1
 8011adc:	d907      	bls.n	8011aee <_fwalk_reent+0x3a>
 8011ade:	f9b5 300e 	ldrsh.w	r3, [r5, #14]
 8011ae2:	3301      	adds	r3, #1
 8011ae4:	d003      	beq.n	8011aee <_fwalk_reent+0x3a>
 8011ae6:	4629      	mov	r1, r5
 8011ae8:	4630      	mov	r0, r6
 8011aea:	47c0      	blx	r8
 8011aec:	4307      	orrs	r7, r0
 8011aee:	3568      	adds	r5, #104	; 0x68
 8011af0:	e7e9      	b.n	8011ac6 <_fwalk_reent+0x12>

08011af2 <__retarget_lock_init_recursive>:
 8011af2:	4770      	bx	lr

08011af4 <__retarget_lock_acquire_recursive>:
 8011af4:	4770      	bx	lr

08011af6 <__retarget_lock_release_recursive>:
 8011af6:	4770      	bx	lr

08011af8 <__swhatbuf_r>:
 8011af8:	b570      	push	{r4, r5, r6, lr}
 8011afa:	460e      	mov	r6, r1
 8011afc:	f9b1 100e 	ldrsh.w	r1, [r1, #14]
 8011b00:	2900      	cmp	r1, #0
 8011b02:	b096      	sub	sp, #88	; 0x58
 8011b04:	4614      	mov	r4, r2
 8011b06:	461d      	mov	r5, r3
 8011b08:	da07      	bge.n	8011b1a <__swhatbuf_r+0x22>
 8011b0a:	2300      	movs	r3, #0
 8011b0c:	602b      	str	r3, [r5, #0]
 8011b0e:	89b3      	ldrh	r3, [r6, #12]
 8011b10:	061a      	lsls	r2, r3, #24
 8011b12:	d410      	bmi.n	8011b36 <__swhatbuf_r+0x3e>
 8011b14:	f44f 6380 	mov.w	r3, #1024	; 0x400
 8011b18:	e00e      	b.n	8011b38 <__swhatbuf_r+0x40>
 8011b1a:	466a      	mov	r2, sp
 8011b1c:	f000 f902 	bl	8011d24 <_fstat_r>
 8011b20:	2800      	cmp	r0, #0
 8011b22:	dbf2      	blt.n	8011b0a <__swhatbuf_r+0x12>
 8011b24:	9a01      	ldr	r2, [sp, #4]
 8011b26:	f402 4270 	and.w	r2, r2, #61440	; 0xf000
 8011b2a:	f5a2 5300 	sub.w	r3, r2, #8192	; 0x2000
 8011b2e:	425a      	negs	r2, r3
 8011b30:	415a      	adcs	r2, r3
 8011b32:	602a      	str	r2, [r5, #0]
 8011b34:	e7ee      	b.n	8011b14 <__swhatbuf_r+0x1c>
 8011b36:	2340      	movs	r3, #64	; 0x40
 8011b38:	2000      	movs	r0, #0
 8011b3a:	6023      	str	r3, [r4, #0]
 8011b3c:	b016      	add	sp, #88	; 0x58
 8011b3e:	bd70      	pop	{r4, r5, r6, pc}

08011b40 <__smakebuf_r>:
 8011b40:	898b      	ldrh	r3, [r1, #12]
 8011b42:	b573      	push	{r0, r1, r4, r5, r6, lr}
 8011b44:	079d      	lsls	r5, r3, #30
 8011b46:	4606      	mov	r6, r0
 8011b48:	460c      	mov	r4, r1
 8011b4a:	d507      	bpl.n	8011b5c <__smakebuf_r+0x1c>
 8011b4c:	f104 0347 	add.w	r3, r4, #71	; 0x47
 8011b50:	6023      	str	r3, [r4, #0]
 8011b52:	6123      	str	r3, [r4, #16]
 8011b54:	2301      	movs	r3, #1
 8011b56:	6163      	str	r3, [r4, #20]
 8011b58:	b002      	add	sp, #8
 8011b5a:	bd70      	pop	{r4, r5, r6, pc}
 8011b5c:	ab01      	add	r3, sp, #4
 8011b5e:	466a      	mov	r2, sp
 8011b60:	f7ff ffca 	bl	8011af8 <__swhatbuf_r>
 8011b64:	9900      	ldr	r1, [sp, #0]
 8011b66:	4605      	mov	r5, r0
 8011b68:	4630      	mov	r0, r6
 8011b6a:	f7ff f987 	bl	8010e7c <_malloc_r>
 8011b6e:	b948      	cbnz	r0, 8011b84 <__smakebuf_r+0x44>
 8011b70:	f9b4 300c 	ldrsh.w	r3, [r4, #12]
 8011b74:	059a      	lsls	r2, r3, #22
 8011b76:	d4ef      	bmi.n	8011b58 <__smakebuf_r+0x18>
 8011b78:	f023 0303 	bic.w	r3, r3, #3
 8011b7c:	f043 0302 	orr.w	r3, r3, #2
 8011b80:	81a3      	strh	r3, [r4, #12]
 8011b82:	e7e3      	b.n	8011b4c <__smakebuf_r+0xc>
 8011b84:	4b0d      	ldr	r3, [pc, #52]	; (8011bbc <__smakebuf_r+0x7c>)
 8011b86:	62b3      	str	r3, [r6, #40]	; 0x28
 8011b88:	89a3      	ldrh	r3, [r4, #12]
 8011b8a:	6020      	str	r0, [r4, #0]
 8011b8c:	f043 0380 	orr.w	r3, r3, #128	; 0x80
 8011b90:	81a3      	strh	r3, [r4, #12]
 8011b92:	9b00      	ldr	r3, [sp, #0]
 8011b94:	6163      	str	r3, [r4, #20]
 8011b96:	9b01      	ldr	r3, [sp, #4]
 8011b98:	6120      	str	r0, [r4, #16]
 8011b9a:	b15b      	cbz	r3, 8011bb4 <__smakebuf_r+0x74>
 8011b9c:	f9b4 100e 	ldrsh.w	r1, [r4, #14]
 8011ba0:	4630      	mov	r0, r6
 8011ba2:	f000 f8d1 	bl	8011d48 <_isatty_r>
 8011ba6:	b128      	cbz	r0, 8011bb4 <__smakebuf_r+0x74>
 8011ba8:	89a3      	ldrh	r3, [r4, #12]
 8011baa:	f023 0303 	bic.w	r3, r3, #3
 8011bae:	f043 0301 	orr.w	r3, r3, #1
 8011bb2:	81a3      	strh	r3, [r4, #12]
 8011bb4:	89a0      	ldrh	r0, [r4, #12]
 8011bb6:	4305      	orrs	r5, r0
 8011bb8:	81a5      	strh	r5, [r4, #12]
 8011bba:	e7cd      	b.n	8011b58 <__smakebuf_r+0x18>
 8011bbc:	08011951 	.word	0x08011951

08011bc0 <_malloc_usable_size_r>:
 8011bc0:	f851 3c04 	ldr.w	r3, [r1, #-4]
 8011bc4:	1f18      	subs	r0, r3, #4
 8011bc6:	2b00      	cmp	r3, #0
 8011bc8:	bfbc      	itt	lt
 8011bca:	580b      	ldrlt	r3, [r1, r0]
 8011bcc:	18c0      	addlt	r0, r0, r3
 8011bce:	4770      	bx	lr

08011bd0 <_raise_r>:
 8011bd0:	291f      	cmp	r1, #31
 8011bd2:	b538      	push	{r3, r4, r5, lr}
 8011bd4:	4604      	mov	r4, r0
 8011bd6:	460d      	mov	r5, r1
 8011bd8:	d904      	bls.n	8011be4 <_raise_r+0x14>
 8011bda:	2316      	movs	r3, #22
 8011bdc:	6003      	str	r3, [r0, #0]
 8011bde:	f04f 30ff 	mov.w	r0, #4294967295	; 0xffffffff
 8011be2:	bd38      	pop	{r3, r4, r5, pc}
 8011be4:	6c42      	ldr	r2, [r0, #68]	; 0x44
 8011be6:	b112      	cbz	r2, 8011bee <_raise_r+0x1e>
 8011be8:	f852 3021 	ldr.w	r3, [r2, r1, lsl #2]
 8011bec:	b94b      	cbnz	r3, 8011c02 <_raise_r+0x32>
 8011bee:	4620      	mov	r0, r4
 8011bf0:	f000 f830 	bl	8011c54 <_getpid_r>
 8011bf4:	462a      	mov	r2, r5
 8011bf6:	4601      	mov	r1, r0
 8011bf8:	4620      	mov	r0, r4
 8011bfa:	e8bd 4038 	ldmia.w	sp!, {r3, r4, r5, lr}
 8011bfe:	f000 b817 	b.w	8011c30 <_kill_r>
 8011c02:	2b01      	cmp	r3, #1
 8011c04:	d00a      	beq.n	8011c1c <_raise_r+0x4c>
 8011c06:	1c59      	adds	r1, r3, #1
 8011c08:	d103      	bne.n	8011c12 <_raise_r+0x42>
 8011c0a:	2316      	movs	r3, #22
 8011c0c:	6003      	str	r3, [r0, #0]
 8011c0e:	2001      	movs	r0, #1
 8011c10:	e7e7      	b.n	8011be2 <_raise_r+0x12>
 8011c12:	2400      	movs	r4, #0
 8011c14:	f842 4025 	str.w	r4, [r2, r5, lsl #2]
 8011c18:	4628      	mov	r0, r5
 8011c1a:	4798      	blx	r3
 8011c1c:	2000      	movs	r0, #0
 8011c1e:	e7e0      	b.n	8011be2 <_raise_r+0x12>

08011c20 <raise>:
 8011c20:	4b02      	ldr	r3, [pc, #8]	; (8011c2c <raise+0xc>)
 8011c22:	4601      	mov	r1, r0
 8011c24:	6818      	ldr	r0, [r3, #0]
 8011c26:	f7ff bfd3 	b.w	8011bd0 <_raise_r>
 8011c2a:	bf00      	nop
 8011c2c:	2000006c 	.word	0x2000006c

08011c30 <_kill_r>:
 8011c30:	b538      	push	{r3, r4, r5, lr}
 8011c32:	4d07      	ldr	r5, [pc, #28]	; (8011c50 <_kill_r+0x20>)
 8011c34:	2300      	movs	r3, #0
 8011c36:	4604      	mov	r4, r0
 8011c38:	4608      	mov	r0, r1
 8011c3a:	4611      	mov	r1, r2
 8011c3c:	602b      	str	r3, [r5, #0]
 8011c3e:	f7f9 fd49 	bl	800b6d4 <_kill>
 8011c42:	1c43      	adds	r3, r0, #1
 8011c44:	d102      	bne.n	8011c4c <_kill_r+0x1c>
 8011c46:	682b      	ldr	r3, [r5, #0]
 8011c48:	b103      	cbz	r3, 8011c4c <_kill_r+0x1c>
 8011c4a:	6023      	str	r3, [r4, #0]
 8011c4c:	bd38      	pop	{r3, r4, r5, pc}
 8011c4e:	bf00      	nop
 8011c50:	20001498 	.word	0x20001498

08011c54 <_getpid_r>:
 8011c54:	f7f9 bd3c 	b.w	800b6d0 <_getpid>

08011c58 <__sread>:
 8011c58:	b510      	push	{r4, lr}
 8011c5a:	460c      	mov	r4, r1
 8011c5c:	f9b1 100e 	ldrsh.w	r1, [r1, #14]
 8011c60:	f000 f894 	bl	8011d8c <_read_r>
 8011c64:	2800      	cmp	r0, #0
 8011c66:	bfab      	itete	ge
 8011c68:	6d63      	ldrge	r3, [r4, #84]	; 0x54
 8011c6a:	89a3      	ldrhlt	r3, [r4, #12]
 8011c6c:	181b      	addge	r3, r3, r0
 8011c6e:	f423 5380 	biclt.w	r3, r3, #4096	; 0x1000
 8011c72:	bfac      	ite	ge
 8011c74:	6563      	strge	r3, [r4, #84]	; 0x54
 8011c76:	81a3      	strhlt	r3, [r4, #12]
 8011c78:	bd10      	pop	{r4, pc}

08011c7a <__swrite>:
 8011c7a:	e92d 41f0 	stmdb	sp!, {r4, r5, r6, r7, r8, lr}
 8011c7e:	461f      	mov	r7, r3
 8011c80:	898b      	ldrh	r3, [r1, #12]
 8011c82:	05db      	lsls	r3, r3, #23
 8011c84:	4605      	mov	r5, r0
 8011c86:	460c      	mov	r4, r1
 8011c88:	4616      	mov	r6, r2
 8011c8a:	d505      	bpl.n	8011c98 <__swrite+0x1e>
 8011c8c:	f9b1 100e 	ldrsh.w	r1, [r1, #14]
 8011c90:	2302      	movs	r3, #2
 8011c92:	2200      	movs	r2, #0
 8011c94:	f000 f868 	bl	8011d68 <_lseek_r>
 8011c98:	89a3      	ldrh	r3, [r4, #12]
 8011c9a:	f9b4 100e 	ldrsh.w	r1, [r4, #14]
 8011c9e:	f423 5380 	bic.w	r3, r3, #4096	; 0x1000
 8011ca2:	81a3      	strh	r3, [r4, #12]
 8011ca4:	4632      	mov	r2, r6
 8011ca6:	463b      	mov	r3, r7
 8011ca8:	4628      	mov	r0, r5
 8011caa:	e8bd 41f0 	ldmia.w	sp!, {r4, r5, r6, r7, r8, lr}
 8011cae:	f000 b817 	b.w	8011ce0 <_write_r>

08011cb2 <__sseek>:
 8011cb2:	b510      	push	{r4, lr}
 8011cb4:	460c      	mov	r4, r1
 8011cb6:	f9b1 100e 	ldrsh.w	r1, [r1, #14]
 8011cba:	f000 f855 	bl	8011d68 <_lseek_r>
 8011cbe:	1c43      	adds	r3, r0, #1
 8011cc0:	89a3      	ldrh	r3, [r4, #12]
 8011cc2:	bf15      	itete	ne
 8011cc4:	6560      	strne	r0, [r4, #84]	; 0x54
 8011cc6:	f423 5380 	biceq.w	r3, r3, #4096	; 0x1000
 8011cca:	f443 5380 	orrne.w	r3, r3, #4096	; 0x1000
 8011cce:	81a3      	strheq	r3, [r4, #12]
 8011cd0:	bf18      	it	ne
 8011cd2:	81a3      	strhne	r3, [r4, #12]
 8011cd4:	bd10      	pop	{r4, pc}

08011cd6 <__sclose>:
 8011cd6:	f9b1 100e 	ldrsh.w	r1, [r1, #14]
 8011cda:	f000 b813 	b.w	8011d04 <_close_r>
	...

08011ce0 <_write_r>:
 8011ce0:	b538      	push	{r3, r4, r5, lr}
 8011ce2:	4d07      	ldr	r5, [pc, #28]	; (8011d00 <_write_r+0x20>)
 8011ce4:	4604      	mov	r4, r0
 8011ce6:	4608      	mov	r0, r1
 8011ce8:	4611      	mov	r1, r2
 8011cea:	2200      	movs	r2, #0
 8011cec:	602a      	str	r2, [r5, #0]
 8011cee:	461a      	mov	r2, r3
 8011cf0:	f7f9 fd0b 	bl	800b70a <_write>
 8011cf4:	1c43      	adds	r3, r0, #1
 8011cf6:	d102      	bne.n	8011cfe <_write_r+0x1e>
 8011cf8:	682b      	ldr	r3, [r5, #0]
 8011cfa:	b103      	cbz	r3, 8011cfe <_write_r+0x1e>
 8011cfc:	6023      	str	r3, [r4, #0]
 8011cfe:	bd38      	pop	{r3, r4, r5, pc}
 8011d00:	20001498 	.word	0x20001498

08011d04 <_close_r>:
 8011d04:	b538      	push	{r3, r4, r5, lr}
 8011d06:	4d06      	ldr	r5, [pc, #24]	; (8011d20 <_close_r+0x1c>)
 8011d08:	2300      	movs	r3, #0
 8011d0a:	4604      	mov	r4, r0
 8011d0c:	4608      	mov	r0, r1
 8011d0e:	602b      	str	r3, [r5, #0]
 8011d10:	f7f9 fd08 	bl	800b724 <_close>
 8011d14:	1c43      	adds	r3, r0, #1
 8011d16:	d102      	bne.n	8011d1e <_close_r+0x1a>
 8011d18:	682b      	ldr	r3, [r5, #0]
 8011d1a:	b103      	cbz	r3, 8011d1e <_close_r+0x1a>
 8011d1c:	6023      	str	r3, [r4, #0]
 8011d1e:	bd38      	pop	{r3, r4, r5, pc}
 8011d20:	20001498 	.word	0x20001498

08011d24 <_fstat_r>:
 8011d24:	b538      	push	{r3, r4, r5, lr}
 8011d26:	4d07      	ldr	r5, [pc, #28]	; (8011d44 <_fstat_r+0x20>)
 8011d28:	2300      	movs	r3, #0
 8011d2a:	4604      	mov	r4, r0
 8011d2c:	4608      	mov	r0, r1
 8011d2e:	4611      	mov	r1, r2
 8011d30:	602b      	str	r3, [r5, #0]
 8011d32:	f7f9 fcfa 	bl	800b72a <_fstat>
 8011d36:	1c43      	adds	r3, r0, #1
 8011d38:	d102      	bne.n	8011d40 <_fstat_r+0x1c>
 8011d3a:	682b      	ldr	r3, [r5, #0]
 8011d3c:	b103      	cbz	r3, 8011d40 <_fstat_r+0x1c>
 8011d3e:	6023      	str	r3, [r4, #0]
 8011d40:	bd38      	pop	{r3, r4, r5, pc}
 8011d42:	bf00      	nop
 8011d44:	20001498 	.word	0x20001498

08011d48 <_isatty_r>:
 8011d48:	b538      	push	{r3, r4, r5, lr}
 8011d4a:	4d06      	ldr	r5, [pc, #24]	; (8011d64 <_isatty_r+0x1c>)
 8011d4c:	2300      	movs	r3, #0
 8011d4e:	4604      	mov	r4, r0
 8011d50:	4608      	mov	r0, r1
 8011d52:	602b      	str	r3, [r5, #0]
 8011d54:	f7f9 fcee 	bl	800b734 <_isatty>
 8011d58:	1c43      	adds	r3, r0, #1
 8011d5a:	d102      	bne.n	8011d62 <_isatty_r+0x1a>
 8011d5c:	682b      	ldr	r3, [r5, #0]
 8011d5e:	b103      	cbz	r3, 8011d62 <_isatty_r+0x1a>
 8011d60:	6023      	str	r3, [r4, #0]
 8011d62:	bd38      	pop	{r3, r4, r5, pc}
 8011d64:	20001498 	.word	0x20001498

08011d68 <_lseek_r>:
 8011d68:	b538      	push	{r3, r4, r5, lr}
 8011d6a:	4d07      	ldr	r5, [pc, #28]	; (8011d88 <_lseek_r+0x20>)
 8011d6c:	4604      	mov	r4, r0
 8011d6e:	4608      	mov	r0, r1
 8011d70:	4611      	mov	r1, r2
 8011d72:	2200      	movs	r2, #0
 8011d74:	602a      	str	r2, [r5, #0]
 8011d76:	461a      	mov	r2, r3
 8011d78:	f7f9 fcde 	bl	800b738 <_lseek>
 8011d7c:	1c43      	adds	r3, r0, #1
 8011d7e:	d102      	bne.n	8011d86 <_lseek_r+0x1e>
 8011d80:	682b      	ldr	r3, [r5, #0]
 8011d82:	b103      	cbz	r3, 8011d86 <_lseek_r+0x1e>
 8011d84:	6023      	str	r3, [r4, #0]
 8011d86:	bd38      	pop	{r3, r4, r5, pc}
 8011d88:	20001498 	.word	0x20001498

08011d8c <_read_r>:
 8011d8c:	b538      	push	{r3, r4, r5, lr}
 8011d8e:	4d07      	ldr	r5, [pc, #28]	; (8011dac <_read_r+0x20>)
 8011d90:	4604      	mov	r4, r0
 8011d92:	4608      	mov	r0, r1
 8011d94:	4611      	mov	r1, r2
 8011d96:	2200      	movs	r2, #0
 8011d98:	602a      	str	r2, [r5, #0]
 8011d9a:	461a      	mov	r2, r3
 8011d9c:	f7f9 fca8 	bl	800b6f0 <_read>
 8011da0:	1c43      	adds	r3, r0, #1
 8011da2:	d102      	bne.n	8011daa <_read_r+0x1e>
 8011da4:	682b      	ldr	r3, [r5, #0]
 8011da6:	b103      	cbz	r3, 8011daa <_read_r+0x1e>
 8011da8:	6023      	str	r3, [r4, #0]
 8011daa:	bd38      	pop	{r3, r4, r5, pc}
 8011dac:	20001498 	.word	0x20001498

08011db0 <pow>:
 8011db0:	e92d 43f8 	stmdb	sp!, {r3, r4, r5, r6, r7, r8, r9, lr}
 8011db4:	ec59 8b10 	vmov	r8, r9, d0
 8011db8:	ec57 6b11 	vmov	r6, r7, d1
 8011dbc:	f000 f8a8 	bl	8011f10 <__ieee754_pow>
 8011dc0:	4b4e      	ldr	r3, [pc, #312]	; (8011efc <pow+0x14c>)
 8011dc2:	f993 3000 	ldrsb.w	r3, [r3]
 8011dc6:	3301      	adds	r3, #1
 8011dc8:	ec55 4b10 	vmov	r4, r5, d0
 8011dcc:	d015      	beq.n	8011dfa <pow+0x4a>
 8011dce:	4632      	mov	r2, r6
 8011dd0:	463b      	mov	r3, r7
 8011dd2:	4630      	mov	r0, r6
 8011dd4:	4639      	mov	r1, r7
 8011dd6:	f7f6 feb1 	bl	8008b3c <__aeabi_dcmpun>
 8011dda:	b970      	cbnz	r0, 8011dfa <pow+0x4a>
 8011ddc:	4642      	mov	r2, r8
 8011dde:	464b      	mov	r3, r9
 8011de0:	4640      	mov	r0, r8
 8011de2:	4649      	mov	r1, r9
 8011de4:	f7f6 feaa 	bl	8008b3c <__aeabi_dcmpun>
 8011de8:	2200      	movs	r2, #0
 8011dea:	2300      	movs	r3, #0
 8011dec:	b148      	cbz	r0, 8011e02 <pow+0x52>
 8011dee:	4630      	mov	r0, r6
 8011df0:	4639      	mov	r1, r7
 8011df2:	f7f6 fe71 	bl	8008ad8 <__aeabi_dcmpeq>
 8011df6:	2800      	cmp	r0, #0
 8011df8:	d17d      	bne.n	8011ef6 <pow+0x146>
 8011dfa:	ec45 4b10 	vmov	d0, r4, r5
 8011dfe:	e8bd 83f8 	ldmia.w	sp!, {r3, r4, r5, r6, r7, r8, r9, pc}
 8011e02:	4640      	mov	r0, r8
 8011e04:	4649      	mov	r1, r9
 8011e06:	f7f6 fe67 	bl	8008ad8 <__aeabi_dcmpeq>
 8011e0a:	b1e0      	cbz	r0, 8011e46 <pow+0x96>
 8011e0c:	2200      	movs	r2, #0
 8011e0e:	2300      	movs	r3, #0
 8011e10:	4630      	mov	r0, r6
 8011e12:	4639      	mov	r1, r7
 8011e14:	f7f6 fe60 	bl	8008ad8 <__aeabi_dcmpeq>
 8011e18:	2800      	cmp	r0, #0
 8011e1a:	d16c      	bne.n	8011ef6 <pow+0x146>
 8011e1c:	ec47 6b10 	vmov	d0, r6, r7
 8011e20:	f000 fe55 	bl	8012ace <finite>
 8011e24:	2800      	cmp	r0, #0
 8011e26:	d0e8      	beq.n	8011dfa <pow+0x4a>
 8011e28:	2200      	movs	r2, #0
 8011e2a:	2300      	movs	r3, #0
 8011e2c:	4630      	mov	r0, r6
 8011e2e:	4639      	mov	r1, r7
 8011e30:	f7f6 fe5c 	bl	8008aec <__aeabi_dcmplt>
 8011e34:	2800      	cmp	r0, #0
 8011e36:	d0e0      	beq.n	8011dfa <pow+0x4a>
 8011e38:	f7fc ffdc 	bl	800edf4 <__errno>
 8011e3c:	2321      	movs	r3, #33	; 0x21
 8011e3e:	6003      	str	r3, [r0, #0]
 8011e40:	2400      	movs	r4, #0
 8011e42:	4d2f      	ldr	r5, [pc, #188]	; (8011f00 <pow+0x150>)
 8011e44:	e7d9      	b.n	8011dfa <pow+0x4a>
 8011e46:	ec45 4b10 	vmov	d0, r4, r5
 8011e4a:	f000 fe40 	bl	8012ace <finite>
 8011e4e:	bbb8      	cbnz	r0, 8011ec0 <pow+0x110>
 8011e50:	ec49 8b10 	vmov	d0, r8, r9
 8011e54:	f000 fe3b 	bl	8012ace <finite>
 8011e58:	b390      	cbz	r0, 8011ec0 <pow+0x110>
 8011e5a:	ec47 6b10 	vmov	d0, r6, r7
 8011e5e:	f000 fe36 	bl	8012ace <finite>
 8011e62:	b368      	cbz	r0, 8011ec0 <pow+0x110>
 8011e64:	4622      	mov	r2, r4
 8011e66:	462b      	mov	r3, r5
 8011e68:	4620      	mov	r0, r4
 8011e6a:	4629      	mov	r1, r5
 8011e6c:	f7f6 fe66 	bl	8008b3c <__aeabi_dcmpun>
 8011e70:	b160      	cbz	r0, 8011e8c <pow+0xdc>
 8011e72:	f7fc ffbf 	bl	800edf4 <__errno>
 8011e76:	2321      	movs	r3, #33	; 0x21
 8011e78:	6003      	str	r3, [r0, #0]
 8011e7a:	2200      	movs	r2, #0
 8011e7c:	2300      	movs	r3, #0
 8011e7e:	4610      	mov	r0, r2
 8011e80:	4619      	mov	r1, r3
 8011e82:	f7f6 fceb 	bl	800885c <__aeabi_ddiv>
 8011e86:	4604      	mov	r4, r0
 8011e88:	460d      	mov	r5, r1
 8011e8a:	e7b6      	b.n	8011dfa <pow+0x4a>
 8011e8c:	f7fc ffb2 	bl	800edf4 <__errno>
 8011e90:	2322      	movs	r3, #34	; 0x22
 8011e92:	6003      	str	r3, [r0, #0]
 8011e94:	2200      	movs	r2, #0
 8011e96:	2300      	movs	r3, #0
 8011e98:	4640      	mov	r0, r8
 8011e9a:	4649      	mov	r1, r9
 8011e9c:	f7f6 fe26 	bl	8008aec <__aeabi_dcmplt>
 8011ea0:	2400      	movs	r4, #0
 8011ea2:	b158      	cbz	r0, 8011ebc <pow+0x10c>
 8011ea4:	ec47 6b10 	vmov	d0, r6, r7
 8011ea8:	f000 fe26 	bl	8012af8 <rint>
 8011eac:	4632      	mov	r2, r6
 8011eae:	ec51 0b10 	vmov	r0, r1, d0
 8011eb2:	463b      	mov	r3, r7
 8011eb4:	f7f6 fe10 	bl	8008ad8 <__aeabi_dcmpeq>
 8011eb8:	2800      	cmp	r0, #0
 8011eba:	d0c2      	beq.n	8011e42 <pow+0x92>
 8011ebc:	4d11      	ldr	r5, [pc, #68]	; (8011f04 <pow+0x154>)
 8011ebe:	e79c      	b.n	8011dfa <pow+0x4a>
 8011ec0:	2200      	movs	r2, #0
 8011ec2:	2300      	movs	r3, #0
 8011ec4:	4620      	mov	r0, r4
 8011ec6:	4629      	mov	r1, r5
 8011ec8:	f7f6 fe06 	bl	8008ad8 <__aeabi_dcmpeq>
 8011ecc:	2800      	cmp	r0, #0
 8011ece:	d094      	beq.n	8011dfa <pow+0x4a>
 8011ed0:	ec49 8b10 	vmov	d0, r8, r9
 8011ed4:	f000 fdfb 	bl	8012ace <finite>
 8011ed8:	2800      	cmp	r0, #0
 8011eda:	d08e      	beq.n	8011dfa <pow+0x4a>
 8011edc:	ec47 6b10 	vmov	d0, r6, r7
 8011ee0:	f000 fdf5 	bl	8012ace <finite>
 8011ee4:	2800      	cmp	r0, #0
 8011ee6:	d088      	beq.n	8011dfa <pow+0x4a>
 8011ee8:	f7fc ff84 	bl	800edf4 <__errno>
 8011eec:	2322      	movs	r3, #34	; 0x22
 8011eee:	6003      	str	r3, [r0, #0]
 8011ef0:	2400      	movs	r4, #0
 8011ef2:	2500      	movs	r5, #0
 8011ef4:	e781      	b.n	8011dfa <pow+0x4a>
 8011ef6:	4d04      	ldr	r5, [pc, #16]	; (8011f08 <pow+0x158>)
 8011ef8:	2400      	movs	r4, #0
 8011efa:	e77e      	b.n	8011dfa <pow+0x4a>
 8011efc:	2000023c 	.word	0x2000023c
 8011f00:	fff00000 	.word	0xfff00000
 8011f04:	7ff00000 	.word	0x7ff00000
 8011f08:	3ff00000 	.word	0x3ff00000
 8011f0c:	00000000 	.word	0x00000000

08011f10 <__ieee754_pow>:
 8011f10:	e92d 4ff0 	stmdb	sp!, {r4, r5, r6, r7, r8, r9, sl, fp, lr}
 8011f14:	ed2d 8b06 	vpush	{d8-d10}
 8011f18:	b08d      	sub	sp, #52	; 0x34
 8011f1a:	ed8d 1b02 	vstr	d1, [sp, #8]
 8011f1e:	e9dd 0702 	ldrd	r0, r7, [sp, #8]
 8011f22:	f027 4600 	bic.w	r6, r7, #2147483648	; 0x80000000
 8011f26:	ea56 0100 	orrs.w	r1, r6, r0
 8011f2a:	ec53 2b10 	vmov	r2, r3, d0
 8011f2e:	f000 84d1 	beq.w	80128d4 <__ieee754_pow+0x9c4>
 8011f32:	497f      	ldr	r1, [pc, #508]	; (8012130 <__ieee754_pow+0x220>)
 8011f34:	f023 4400 	bic.w	r4, r3, #2147483648	; 0x80000000
 8011f38:	428c      	cmp	r4, r1
 8011f3a:	ee10 8a10 	vmov	r8, s0
 8011f3e:	4699      	mov	r9, r3
 8011f40:	dc09      	bgt.n	8011f56 <__ieee754_pow+0x46>
 8011f42:	d103      	bne.n	8011f4c <__ieee754_pow+0x3c>
 8011f44:	b97a      	cbnz	r2, 8011f66 <__ieee754_pow+0x56>
 8011f46:	42a6      	cmp	r6, r4
 8011f48:	dd02      	ble.n	8011f50 <__ieee754_pow+0x40>
 8011f4a:	e00c      	b.n	8011f66 <__ieee754_pow+0x56>
 8011f4c:	428e      	cmp	r6, r1
 8011f4e:	dc02      	bgt.n	8011f56 <__ieee754_pow+0x46>
 8011f50:	428e      	cmp	r6, r1
 8011f52:	d110      	bne.n	8011f76 <__ieee754_pow+0x66>
 8011f54:	b178      	cbz	r0, 8011f76 <__ieee754_pow+0x66>
 8011f56:	f104 4440 	add.w	r4, r4, #3221225472	; 0xc0000000
 8011f5a:	f504 1480 	add.w	r4, r4, #1048576	; 0x100000
 8011f5e:	ea54 0308 	orrs.w	r3, r4, r8
 8011f62:	f000 84b7 	beq.w	80128d4 <__ieee754_pow+0x9c4>
 8011f66:	4873      	ldr	r0, [pc, #460]	; (8012134 <__ieee754_pow+0x224>)
 8011f68:	b00d      	add	sp, #52	; 0x34
 8011f6a:	ecbd 8b06 	vpop	{d8-d10}
 8011f6e:	e8bd 4ff0 	ldmia.w	sp!, {r4, r5, r6, r7, r8, r9, sl, fp, lr}
 8011f72:	f000 bdb9 	b.w	8012ae8 <nan>
 8011f76:	f1b9 0f00 	cmp.w	r9, #0
 8011f7a:	da36      	bge.n	8011fea <__ieee754_pow+0xda>
 8011f7c:	496e      	ldr	r1, [pc, #440]	; (8012138 <__ieee754_pow+0x228>)
 8011f7e:	428e      	cmp	r6, r1
 8011f80:	dc51      	bgt.n	8012026 <__ieee754_pow+0x116>
 8011f82:	f1a1 7154 	sub.w	r1, r1, #55574528	; 0x3500000
 8011f86:	428e      	cmp	r6, r1
 8011f88:	f340 84af 	ble.w	80128ea <__ieee754_pow+0x9da>
 8011f8c:	1531      	asrs	r1, r6, #20
 8011f8e:	f2a1 31ff 	subw	r1, r1, #1023	; 0x3ff
 8011f92:	2914      	cmp	r1, #20
 8011f94:	dd0f      	ble.n	8011fb6 <__ieee754_pow+0xa6>
 8011f96:	f1c1 0134 	rsb	r1, r1, #52	; 0x34
 8011f9a:	fa20 fc01 	lsr.w	ip, r0, r1
 8011f9e:	fa0c f101 	lsl.w	r1, ip, r1
 8011fa2:	4281      	cmp	r1, r0
 8011fa4:	f040 84a1 	bne.w	80128ea <__ieee754_pow+0x9da>
 8011fa8:	f00c 0c01 	and.w	ip, ip, #1
 8011fac:	f1cc 0102 	rsb	r1, ip, #2
 8011fb0:	9100      	str	r1, [sp, #0]
 8011fb2:	b180      	cbz	r0, 8011fd6 <__ieee754_pow+0xc6>
 8011fb4:	e059      	b.n	801206a <__ieee754_pow+0x15a>
 8011fb6:	2800      	cmp	r0, #0
 8011fb8:	d155      	bne.n	8012066 <__ieee754_pow+0x156>
 8011fba:	f1c1 0114 	rsb	r1, r1, #20
 8011fbe:	fa46 fc01 	asr.w	ip, r6, r1
 8011fc2:	fa0c f101 	lsl.w	r1, ip, r1
 8011fc6:	42b1      	cmp	r1, r6
 8011fc8:	f040 848c 	bne.w	80128e4 <__ieee754_pow+0x9d4>
 8011fcc:	f00c 0c01 	and.w	ip, ip, #1
 8011fd0:	f1cc 0102 	rsb	r1, ip, #2
 8011fd4:	9100      	str	r1, [sp, #0]
 8011fd6:	4959      	ldr	r1, [pc, #356]	; (801213c <__ieee754_pow+0x22c>)
 8011fd8:	428e      	cmp	r6, r1
 8011fda:	d12d      	bne.n	8012038 <__ieee754_pow+0x128>
 8011fdc:	2f00      	cmp	r7, #0
 8011fde:	da79      	bge.n	80120d4 <__ieee754_pow+0x1c4>
 8011fe0:	4956      	ldr	r1, [pc, #344]	; (801213c <__ieee754_pow+0x22c>)
 8011fe2:	2000      	movs	r0, #0
 8011fe4:	f7f6 fc3a 	bl	800885c <__aeabi_ddiv>
 8011fe8:	e016      	b.n	8012018 <__ieee754_pow+0x108>
 8011fea:	2100      	movs	r1, #0
 8011fec:	9100      	str	r1, [sp, #0]
 8011fee:	2800      	cmp	r0, #0
 8011ff0:	d13b      	bne.n	801206a <__ieee754_pow+0x15a>
 8011ff2:	494f      	ldr	r1, [pc, #316]	; (8012130 <__ieee754_pow+0x220>)
 8011ff4:	428e      	cmp	r6, r1
 8011ff6:	d1ee      	bne.n	8011fd6 <__ieee754_pow+0xc6>
 8011ff8:	f104 4340 	add.w	r3, r4, #3221225472	; 0xc0000000
 8011ffc:	f503 1380 	add.w	r3, r3, #1048576	; 0x100000
 8012000:	ea53 0308 	orrs.w	r3, r3, r8
 8012004:	f000 8466 	beq.w	80128d4 <__ieee754_pow+0x9c4>
 8012008:	4b4d      	ldr	r3, [pc, #308]	; (8012140 <__ieee754_pow+0x230>)
 801200a:	429c      	cmp	r4, r3
 801200c:	dd0d      	ble.n	801202a <__ieee754_pow+0x11a>
 801200e:	2f00      	cmp	r7, #0
 8012010:	f280 8464 	bge.w	80128dc <__ieee754_pow+0x9cc>
 8012014:	2000      	movs	r0, #0
 8012016:	2100      	movs	r1, #0
 8012018:	ec41 0b10 	vmov	d0, r0, r1
 801201c:	b00d      	add	sp, #52	; 0x34
 801201e:	ecbd 8b06 	vpop	{d8-d10}
 8012022:	e8bd 8ff0 	ldmia.w	sp!, {r4, r5, r6, r7, r8, r9, sl, fp, pc}
 8012026:	2102      	movs	r1, #2
 8012028:	e7e0      	b.n	8011fec <__ieee754_pow+0xdc>
 801202a:	2f00      	cmp	r7, #0
 801202c:	daf2      	bge.n	8012014 <__ieee754_pow+0x104>
 801202e:	e9dd 0302 	ldrd	r0, r3, [sp, #8]
 8012032:	f103 4100 	add.w	r1, r3, #2147483648	; 0x80000000
 8012036:	e7ef      	b.n	8012018 <__ieee754_pow+0x108>
 8012038:	f1b7 4f80 	cmp.w	r7, #1073741824	; 0x40000000
 801203c:	d104      	bne.n	8012048 <__ieee754_pow+0x138>
 801203e:	4610      	mov	r0, r2
 8012040:	4619      	mov	r1, r3
 8012042:	f7f6 fae1 	bl	8008608 <__aeabi_dmul>
 8012046:	e7e7      	b.n	8012018 <__ieee754_pow+0x108>
 8012048:	493e      	ldr	r1, [pc, #248]	; (8012144 <__ieee754_pow+0x234>)
 801204a:	428f      	cmp	r7, r1
 801204c:	d10d      	bne.n	801206a <__ieee754_pow+0x15a>
 801204e:	f1b9 0f00 	cmp.w	r9, #0
 8012052:	db0a      	blt.n	801206a <__ieee754_pow+0x15a>
 8012054:	ec43 2b10 	vmov	d0, r2, r3
 8012058:	b00d      	add	sp, #52	; 0x34
 801205a:	ecbd 8b06 	vpop	{d8-d10}
 801205e:	e8bd 4ff0 	ldmia.w	sp!, {r4, r5, r6, r7, r8, r9, sl, fp, lr}
 8012062:	f000 bc77 	b.w	8012954 <__ieee754_sqrt>
 8012066:	2100      	movs	r1, #0
 8012068:	9100      	str	r1, [sp, #0]
 801206a:	ec43 2b10 	vmov	d0, r2, r3
 801206e:	e9cd 2304 	strd	r2, r3, [sp, #16]
 8012072:	f000 fd23 	bl	8012abc <fabs>
 8012076:	e9dd 2304 	ldrd	r2, r3, [sp, #16]
 801207a:	ec51 0b10 	vmov	r0, r1, d0
 801207e:	f1b8 0f00 	cmp.w	r8, #0
 8012082:	d12a      	bne.n	80120da <__ieee754_pow+0x1ca>
 8012084:	b12c      	cbz	r4, 8012092 <__ieee754_pow+0x182>
 8012086:	f8df c0b4 	ldr.w	ip, [pc, #180]	; 801213c <__ieee754_pow+0x22c>
 801208a:	f029 4e40 	bic.w	lr, r9, #3221225472	; 0xc0000000
 801208e:	45e6      	cmp	lr, ip
 8012090:	d123      	bne.n	80120da <__ieee754_pow+0x1ca>
 8012092:	2f00      	cmp	r7, #0
 8012094:	da05      	bge.n	80120a2 <__ieee754_pow+0x192>
 8012096:	4602      	mov	r2, r0
 8012098:	460b      	mov	r3, r1
 801209a:	2000      	movs	r0, #0
 801209c:	4927      	ldr	r1, [pc, #156]	; (801213c <__ieee754_pow+0x22c>)
 801209e:	f7f6 fbdd 	bl	800885c <__aeabi_ddiv>
 80120a2:	f1b9 0f00 	cmp.w	r9, #0
 80120a6:	dab7      	bge.n	8012018 <__ieee754_pow+0x108>
 80120a8:	9b00      	ldr	r3, [sp, #0]
 80120aa:	f104 4440 	add.w	r4, r4, #3221225472	; 0xc0000000
 80120ae:	f504 1480 	add.w	r4, r4, #1048576	; 0x100000
 80120b2:	4323      	orrs	r3, r4
 80120b4:	d108      	bne.n	80120c8 <__ieee754_pow+0x1b8>
 80120b6:	4602      	mov	r2, r0
 80120b8:	460b      	mov	r3, r1
 80120ba:	4610      	mov	r0, r2
 80120bc:	4619      	mov	r1, r3
 80120be:	f7f6 f8eb 	bl	8008298 <__aeabi_dsub>
 80120c2:	4602      	mov	r2, r0
 80120c4:	460b      	mov	r3, r1
 80120c6:	e78d      	b.n	8011fe4 <__ieee754_pow+0xd4>
 80120c8:	9b00      	ldr	r3, [sp, #0]
 80120ca:	2b01      	cmp	r3, #1
 80120cc:	d1a4      	bne.n	8012018 <__ieee754_pow+0x108>
 80120ce:	4602      	mov	r2, r0
 80120d0:	f101 4300 	add.w	r3, r1, #2147483648	; 0x80000000
 80120d4:	4610      	mov	r0, r2
 80120d6:	4619      	mov	r1, r3
 80120d8:	e79e      	b.n	8012018 <__ieee754_pow+0x108>
 80120da:	ea4f 7cd9 	mov.w	ip, r9, lsr #31
 80120de:	f10c 35ff 	add.w	r5, ip, #4294967295	; 0xffffffff
 80120e2:	950a      	str	r5, [sp, #40]	; 0x28
 80120e4:	9d00      	ldr	r5, [sp, #0]
 80120e6:	46ac      	mov	ip, r5
 80120e8:	9d0a      	ldr	r5, [sp, #40]	; 0x28
 80120ea:	ea5c 0505 	orrs.w	r5, ip, r5
 80120ee:	d0e4      	beq.n	80120ba <__ieee754_pow+0x1aa>
 80120f0:	4b15      	ldr	r3, [pc, #84]	; (8012148 <__ieee754_pow+0x238>)
 80120f2:	429e      	cmp	r6, r3
 80120f4:	f340 80fc 	ble.w	80122f0 <__ieee754_pow+0x3e0>
 80120f8:	f103 7304 	add.w	r3, r3, #34603008	; 0x2100000
 80120fc:	429e      	cmp	r6, r3
 80120fe:	4b10      	ldr	r3, [pc, #64]	; (8012140 <__ieee754_pow+0x230>)
 8012100:	dd07      	ble.n	8012112 <__ieee754_pow+0x202>
 8012102:	429c      	cmp	r4, r3
 8012104:	dc0a      	bgt.n	801211c <__ieee754_pow+0x20c>
 8012106:	2f00      	cmp	r7, #0
 8012108:	da84      	bge.n	8012014 <__ieee754_pow+0x104>
 801210a:	a307      	add	r3, pc, #28	; (adr r3, 8012128 <__ieee754_pow+0x218>)
 801210c:	e9d3 2300 	ldrd	r2, r3, [r3]
 8012110:	e795      	b.n	801203e <__ieee754_pow+0x12e>
 8012112:	429c      	cmp	r4, r3
 8012114:	dbf7      	blt.n	8012106 <__ieee754_pow+0x1f6>
 8012116:	4b09      	ldr	r3, [pc, #36]	; (801213c <__ieee754_pow+0x22c>)
 8012118:	429c      	cmp	r4, r3
 801211a:	dd17      	ble.n	801214c <__ieee754_pow+0x23c>
 801211c:	2f00      	cmp	r7, #0
 801211e:	dcf4      	bgt.n	801210a <__ieee754_pow+0x1fa>
 8012120:	e778      	b.n	8012014 <__ieee754_pow+0x104>
 8012122:	bf00      	nop
 8012124:	f3af 8000 	nop.w
 8012128:	8800759c 	.word	0x8800759c
 801212c:	7e37e43c 	.word	0x7e37e43c
 8012130:	7ff00000 	.word	0x7ff00000
 8012134:	08016c04 	.word	0x08016c04
 8012138:	433fffff 	.word	0x433fffff
 801213c:	3ff00000 	.word	0x3ff00000
 8012140:	3fefffff 	.word	0x3fefffff
 8012144:	3fe00000 	.word	0x3fe00000
 8012148:	41e00000 	.word	0x41e00000
 801214c:	4b64      	ldr	r3, [pc, #400]	; (80122e0 <__ieee754_pow+0x3d0>)
 801214e:	2200      	movs	r2, #0
 8012150:	f7f6 f8a2 	bl	8008298 <__aeabi_dsub>
 8012154:	a356      	add	r3, pc, #344	; (adr r3, 80122b0 <__ieee754_pow+0x3a0>)
 8012156:	e9d3 2300 	ldrd	r2, r3, [r3]
 801215a:	4604      	mov	r4, r0
 801215c:	460d      	mov	r5, r1
 801215e:	f7f6 fa53 	bl	8008608 <__aeabi_dmul>
 8012162:	a355      	add	r3, pc, #340	; (adr r3, 80122b8 <__ieee754_pow+0x3a8>)
 8012164:	e9d3 2300 	ldrd	r2, r3, [r3]
 8012168:	4606      	mov	r6, r0
 801216a:	460f      	mov	r7, r1
 801216c:	4620      	mov	r0, r4
 801216e:	4629      	mov	r1, r5
 8012170:	f7f6 fa4a 	bl	8008608 <__aeabi_dmul>
 8012174:	4b5b      	ldr	r3, [pc, #364]	; (80122e4 <__ieee754_pow+0x3d4>)
 8012176:	4682      	mov	sl, r0
 8012178:	468b      	mov	fp, r1
 801217a:	2200      	movs	r2, #0
 801217c:	4620      	mov	r0, r4
 801217e:	4629      	mov	r1, r5
 8012180:	f7f6 fa42 	bl	8008608 <__aeabi_dmul>
 8012184:	4602      	mov	r2, r0
 8012186:	460b      	mov	r3, r1
 8012188:	a14d      	add	r1, pc, #308	; (adr r1, 80122c0 <__ieee754_pow+0x3b0>)
 801218a:	e9d1 0100 	ldrd	r0, r1, [r1]
 801218e:	f7f6 f883 	bl	8008298 <__aeabi_dsub>
 8012192:	4622      	mov	r2, r4
 8012194:	462b      	mov	r3, r5
 8012196:	f7f6 fa37 	bl	8008608 <__aeabi_dmul>
 801219a:	4602      	mov	r2, r0
 801219c:	460b      	mov	r3, r1
 801219e:	2000      	movs	r0, #0
 80121a0:	4951      	ldr	r1, [pc, #324]	; (80122e8 <__ieee754_pow+0x3d8>)
 80121a2:	f7f6 f879 	bl	8008298 <__aeabi_dsub>
 80121a6:	4622      	mov	r2, r4
 80121a8:	4680      	mov	r8, r0
 80121aa:	4689      	mov	r9, r1
 80121ac:	462b      	mov	r3, r5
 80121ae:	4620      	mov	r0, r4
 80121b0:	4629      	mov	r1, r5
 80121b2:	f7f6 fa29 	bl	8008608 <__aeabi_dmul>
 80121b6:	4602      	mov	r2, r0
 80121b8:	460b      	mov	r3, r1
 80121ba:	4640      	mov	r0, r8
 80121bc:	4649      	mov	r1, r9
 80121be:	f7f6 fa23 	bl	8008608 <__aeabi_dmul>
 80121c2:	a341      	add	r3, pc, #260	; (adr r3, 80122c8 <__ieee754_pow+0x3b8>)
 80121c4:	e9d3 2300 	ldrd	r2, r3, [r3]
 80121c8:	f7f6 fa1e 	bl	8008608 <__aeabi_dmul>
 80121cc:	4602      	mov	r2, r0
 80121ce:	460b      	mov	r3, r1
 80121d0:	4650      	mov	r0, sl
 80121d2:	4659      	mov	r1, fp
 80121d4:	f7f6 f860 	bl	8008298 <__aeabi_dsub>
 80121d8:	4602      	mov	r2, r0
 80121da:	460b      	mov	r3, r1
 80121dc:	4680      	mov	r8, r0
 80121de:	4689      	mov	r9, r1
 80121e0:	4630      	mov	r0, r6
 80121e2:	4639      	mov	r1, r7
 80121e4:	f7f6 f85a 	bl	800829c <__adddf3>
 80121e8:	2400      	movs	r4, #0
 80121ea:	4632      	mov	r2, r6
 80121ec:	463b      	mov	r3, r7
 80121ee:	4620      	mov	r0, r4
 80121f0:	460d      	mov	r5, r1
 80121f2:	f7f6 f851 	bl	8008298 <__aeabi_dsub>
 80121f6:	4602      	mov	r2, r0
 80121f8:	460b      	mov	r3, r1
 80121fa:	4640      	mov	r0, r8
 80121fc:	4649      	mov	r1, r9
 80121fe:	f7f6 f84b 	bl	8008298 <__aeabi_dsub>
 8012202:	9b00      	ldr	r3, [sp, #0]
 8012204:	9a0a      	ldr	r2, [sp, #40]	; 0x28
 8012206:	3b01      	subs	r3, #1
 8012208:	4313      	orrs	r3, r2
 801220a:	4682      	mov	sl, r0
 801220c:	468b      	mov	fp, r1
 801220e:	f040 81f1 	bne.w	80125f4 <__ieee754_pow+0x6e4>
 8012212:	ed9f 7b2f 	vldr	d7, [pc, #188]	; 80122d0 <__ieee754_pow+0x3c0>
 8012216:	eeb0 8a47 	vmov.f32	s16, s14
 801221a:	eef0 8a67 	vmov.f32	s17, s15
 801221e:	e9dd 6702 	ldrd	r6, r7, [sp, #8]
 8012222:	2600      	movs	r6, #0
 8012224:	4632      	mov	r2, r6
 8012226:	463b      	mov	r3, r7
 8012228:	e9dd 0102 	ldrd	r0, r1, [sp, #8]
 801222c:	f7f6 f834 	bl	8008298 <__aeabi_dsub>
 8012230:	4622      	mov	r2, r4
 8012232:	462b      	mov	r3, r5
 8012234:	f7f6 f9e8 	bl	8008608 <__aeabi_dmul>
 8012238:	e9dd 2302 	ldrd	r2, r3, [sp, #8]
 801223c:	4680      	mov	r8, r0
 801223e:	4689      	mov	r9, r1
 8012240:	4650      	mov	r0, sl
 8012242:	4659      	mov	r1, fp
 8012244:	f7f6 f9e0 	bl	8008608 <__aeabi_dmul>
 8012248:	4602      	mov	r2, r0
 801224a:	460b      	mov	r3, r1
 801224c:	4640      	mov	r0, r8
 801224e:	4649      	mov	r1, r9
 8012250:	f7f6 f824 	bl	800829c <__adddf3>
 8012254:	4632      	mov	r2, r6
 8012256:	463b      	mov	r3, r7
 8012258:	4680      	mov	r8, r0
 801225a:	4689      	mov	r9, r1
 801225c:	4620      	mov	r0, r4
 801225e:	4629      	mov	r1, r5
 8012260:	f7f6 f9d2 	bl	8008608 <__aeabi_dmul>
 8012264:	460b      	mov	r3, r1
 8012266:	4604      	mov	r4, r0
 8012268:	460d      	mov	r5, r1
 801226a:	4602      	mov	r2, r0
 801226c:	4649      	mov	r1, r9
 801226e:	4640      	mov	r0, r8
 8012270:	f7f6 f814 	bl	800829c <__adddf3>
 8012274:	4b1d      	ldr	r3, [pc, #116]	; (80122ec <__ieee754_pow+0x3dc>)
 8012276:	4299      	cmp	r1, r3
 8012278:	ec45 4b19 	vmov	d9, r4, r5
 801227c:	4606      	mov	r6, r0
 801227e:	460f      	mov	r7, r1
 8012280:	468b      	mov	fp, r1
 8012282:	f340 82fe 	ble.w	8012882 <__ieee754_pow+0x972>
 8012286:	f101 433f 	add.w	r3, r1, #3204448256	; 0xbf000000
 801228a:	f503 03e0 	add.w	r3, r3, #7340032	; 0x700000
 801228e:	4303      	orrs	r3, r0
 8012290:	f000 81f0 	beq.w	8012674 <__ieee754_pow+0x764>
 8012294:	a310      	add	r3, pc, #64	; (adr r3, 80122d8 <__ieee754_pow+0x3c8>)
 8012296:	e9d3 2300 	ldrd	r2, r3, [r3]
 801229a:	ec51 0b18 	vmov	r0, r1, d8
 801229e:	f7f6 f9b3 	bl	8008608 <__aeabi_dmul>
 80122a2:	a30d      	add	r3, pc, #52	; (adr r3, 80122d8 <__ieee754_pow+0x3c8>)
 80122a4:	e9d3 2300 	ldrd	r2, r3, [r3]
 80122a8:	e6cb      	b.n	8012042 <__ieee754_pow+0x132>
 80122aa:	bf00      	nop
 80122ac:	f3af 8000 	nop.w
 80122b0:	60000000 	.word	0x60000000
 80122b4:	3ff71547 	.word	0x3ff71547
 80122b8:	f85ddf44 	.word	0xf85ddf44
 80122bc:	3e54ae0b 	.word	0x3e54ae0b
 80122c0:	55555555 	.word	0x55555555
 80122c4:	3fd55555 	.word	0x3fd55555
 80122c8:	652b82fe 	.word	0x652b82fe
 80122cc:	3ff71547 	.word	0x3ff71547
 80122d0:	00000000 	.word	0x00000000
 80122d4:	bff00000 	.word	0xbff00000
 80122d8:	8800759c 	.word	0x8800759c
 80122dc:	7e37e43c 	.word	0x7e37e43c
 80122e0:	3ff00000 	.word	0x3ff00000
 80122e4:	3fd00000 	.word	0x3fd00000
 80122e8:	3fe00000 	.word	0x3fe00000
 80122ec:	408fffff 	.word	0x408fffff
 80122f0:	4bd7      	ldr	r3, [pc, #860]	; (8012650 <__ieee754_pow+0x740>)
 80122f2:	ea03 0309 	and.w	r3, r3, r9
 80122f6:	2200      	movs	r2, #0
 80122f8:	b92b      	cbnz	r3, 8012306 <__ieee754_pow+0x3f6>
 80122fa:	4bd6      	ldr	r3, [pc, #856]	; (8012654 <__ieee754_pow+0x744>)
 80122fc:	f7f6 f984 	bl	8008608 <__aeabi_dmul>
 8012300:	f06f 0234 	mvn.w	r2, #52	; 0x34
 8012304:	460c      	mov	r4, r1
 8012306:	1523      	asrs	r3, r4, #20
 8012308:	f2a3 33ff 	subw	r3, r3, #1023	; 0x3ff
 801230c:	4413      	add	r3, r2
 801230e:	9309      	str	r3, [sp, #36]	; 0x24
 8012310:	4bd1      	ldr	r3, [pc, #836]	; (8012658 <__ieee754_pow+0x748>)
 8012312:	f3c4 0413 	ubfx	r4, r4, #0, #20
 8012316:	f044 557f 	orr.w	r5, r4, #1069547520	; 0x3fc00000
 801231a:	429c      	cmp	r4, r3
 801231c:	f445 1540 	orr.w	r5, r5, #3145728	; 0x300000
 8012320:	dd08      	ble.n	8012334 <__ieee754_pow+0x424>
 8012322:	4bce      	ldr	r3, [pc, #824]	; (801265c <__ieee754_pow+0x74c>)
 8012324:	429c      	cmp	r4, r3
 8012326:	f340 8163 	ble.w	80125f0 <__ieee754_pow+0x6e0>
 801232a:	9b09      	ldr	r3, [sp, #36]	; 0x24
 801232c:	3301      	adds	r3, #1
 801232e:	9309      	str	r3, [sp, #36]	; 0x24
 8012330:	f5a5 1580 	sub.w	r5, r5, #1048576	; 0x100000
 8012334:	2400      	movs	r4, #0
 8012336:	00e3      	lsls	r3, r4, #3
 8012338:	930b      	str	r3, [sp, #44]	; 0x2c
 801233a:	4bc9      	ldr	r3, [pc, #804]	; (8012660 <__ieee754_pow+0x750>)
 801233c:	eb03 03c4 	add.w	r3, r3, r4, lsl #3
 8012340:	ed93 7b00 	vldr	d7, [r3]
 8012344:	4629      	mov	r1, r5
 8012346:	ec53 2b17 	vmov	r2, r3, d7
 801234a:	eeb0 8a47 	vmov.f32	s16, s14
 801234e:	eef0 8a67 	vmov.f32	s17, s15
 8012352:	4682      	mov	sl, r0
 8012354:	f7f5 ffa0 	bl	8008298 <__aeabi_dsub>
 8012358:	4652      	mov	r2, sl
 801235a:	4606      	mov	r6, r0
 801235c:	460f      	mov	r7, r1
 801235e:	462b      	mov	r3, r5
 8012360:	ec51 0b18 	vmov	r0, r1, d8
 8012364:	f7f5 ff9a 	bl	800829c <__adddf3>
 8012368:	4602      	mov	r2, r0
 801236a:	460b      	mov	r3, r1
 801236c:	2000      	movs	r0, #0
 801236e:	49bd      	ldr	r1, [pc, #756]	; (8012664 <__ieee754_pow+0x754>)
 8012370:	f7f6 fa74 	bl	800885c <__aeabi_ddiv>
 8012374:	ec41 0b19 	vmov	d9, r0, r1
 8012378:	4602      	mov	r2, r0
 801237a:	460b      	mov	r3, r1
 801237c:	4630      	mov	r0, r6
 801237e:	4639      	mov	r1, r7
 8012380:	f7f6 f942 	bl	8008608 <__aeabi_dmul>
 8012384:	e9cd 0106 	strd	r0, r1, [sp, #24]
 8012388:	e9dd 2306 	ldrd	r2, r3, [sp, #24]
 801238c:	e9cd 2304 	strd	r2, r3, [sp, #16]
 8012390:	2300      	movs	r3, #0
 8012392:	9304      	str	r3, [sp, #16]
 8012394:	e9dd 8904 	ldrd	r8, r9, [sp, #16]
 8012398:	46ab      	mov	fp, r5
 801239a:	106d      	asrs	r5, r5, #1
 801239c:	f045 5500 	orr.w	r5, r5, #536870912	; 0x20000000
 80123a0:	f505 2500 	add.w	r5, r5, #524288	; 0x80000
 80123a4:	eb05 4384 	add.w	r3, r5, r4, lsl #18
 80123a8:	2200      	movs	r2, #0
 80123aa:	4640      	mov	r0, r8
 80123ac:	4649      	mov	r1, r9
 80123ae:	4614      	mov	r4, r2
 80123b0:	461d      	mov	r5, r3
 80123b2:	f7f6 f929 	bl	8008608 <__aeabi_dmul>
 80123b6:	4602      	mov	r2, r0
 80123b8:	460b      	mov	r3, r1
 80123ba:	4630      	mov	r0, r6
 80123bc:	4639      	mov	r1, r7
 80123be:	f7f5 ff6b 	bl	8008298 <__aeabi_dsub>
 80123c2:	ec53 2b18 	vmov	r2, r3, d8
 80123c6:	4606      	mov	r6, r0
 80123c8:	460f      	mov	r7, r1
 80123ca:	4620      	mov	r0, r4
 80123cc:	4629      	mov	r1, r5
 80123ce:	f7f5 ff63 	bl	8008298 <__aeabi_dsub>
 80123d2:	4602      	mov	r2, r0
 80123d4:	460b      	mov	r3, r1
 80123d6:	4650      	mov	r0, sl
 80123d8:	4659      	mov	r1, fp
 80123da:	f7f5 ff5d 	bl	8008298 <__aeabi_dsub>
 80123de:	4642      	mov	r2, r8
 80123e0:	464b      	mov	r3, r9
 80123e2:	f7f6 f911 	bl	8008608 <__aeabi_dmul>
 80123e6:	4602      	mov	r2, r0
 80123e8:	460b      	mov	r3, r1
 80123ea:	4630      	mov	r0, r6
 80123ec:	4639      	mov	r1, r7
 80123ee:	f7f5 ff53 	bl	8008298 <__aeabi_dsub>
 80123f2:	ec53 2b19 	vmov	r2, r3, d9
 80123f6:	f7f6 f907 	bl	8008608 <__aeabi_dmul>
 80123fa:	e9dd 2306 	ldrd	r2, r3, [sp, #24]
 80123fe:	ec41 0b18 	vmov	d8, r0, r1
 8012402:	4610      	mov	r0, r2
 8012404:	4619      	mov	r1, r3
 8012406:	f7f6 f8ff 	bl	8008608 <__aeabi_dmul>
 801240a:	a37d      	add	r3, pc, #500	; (adr r3, 8012600 <__ieee754_pow+0x6f0>)
 801240c:	e9d3 2300 	ldrd	r2, r3, [r3]
 8012410:	4604      	mov	r4, r0
 8012412:	460d      	mov	r5, r1
 8012414:	f7f6 f8f8 	bl	8008608 <__aeabi_dmul>
 8012418:	a37b      	add	r3, pc, #492	; (adr r3, 8012608 <__ieee754_pow+0x6f8>)
 801241a:	e9d3 2300 	ldrd	r2, r3, [r3]
 801241e:	f7f5 ff3d 	bl	800829c <__adddf3>
 8012422:	4622      	mov	r2, r4
 8012424:	462b      	mov	r3, r5
 8012426:	f7f6 f8ef 	bl	8008608 <__aeabi_dmul>
 801242a:	a379      	add	r3, pc, #484	; (adr r3, 8012610 <__ieee754_pow+0x700>)
 801242c:	e9d3 2300 	ldrd	r2, r3, [r3]
 8012430:	f7f5 ff34 	bl	800829c <__adddf3>
 8012434:	4622      	mov	r2, r4
 8012436:	462b      	mov	r3, r5
 8012438:	f7f6 f8e6 	bl	8008608 <__aeabi_dmul>
 801243c:	a376      	add	r3, pc, #472	; (adr r3, 8012618 <__ieee754_pow+0x708>)
 801243e:	e9d3 2300 	ldrd	r2, r3, [r3]
 8012442:	f7f5 ff2b 	bl	800829c <__adddf3>
 8012446:	4622      	mov	r2, r4
 8012448:	462b      	mov	r3, r5
 801244a:	f7f6 f8dd 	bl	8008608 <__aeabi_dmul>
 801244e:	a374      	add	r3, pc, #464	; (adr r3, 8012620 <__ieee754_pow+0x710>)
 8012450:	e9d3 2300 	ldrd	r2, r3, [r3]
 8012454:	f7f5 ff22 	bl	800829c <__adddf3>
 8012458:	4622      	mov	r2, r4
 801245a:	462b      	mov	r3, r5
 801245c:	f7f6 f8d4 	bl	8008608 <__aeabi_dmul>
 8012460:	a371      	add	r3, pc, #452	; (adr r3, 8012628 <__ieee754_pow+0x718>)
 8012462:	e9d3 2300 	ldrd	r2, r3, [r3]
 8012466:	f7f5 ff19 	bl	800829c <__adddf3>
 801246a:	4622      	mov	r2, r4
 801246c:	4606      	mov	r6, r0
 801246e:	460f      	mov	r7, r1
 8012470:	462b      	mov	r3, r5
 8012472:	4620      	mov	r0, r4
 8012474:	4629      	mov	r1, r5
 8012476:	f7f6 f8c7 	bl	8008608 <__aeabi_dmul>
 801247a:	4602      	mov	r2, r0
 801247c:	460b      	mov	r3, r1
 801247e:	4630      	mov	r0, r6
 8012480:	4639      	mov	r1, r7
 8012482:	f7f6 f8c1 	bl	8008608 <__aeabi_dmul>
 8012486:	4642      	mov	r2, r8
 8012488:	4604      	mov	r4, r0
 801248a:	460d      	mov	r5, r1
 801248c:	464b      	mov	r3, r9
 801248e:	e9dd 0106 	ldrd	r0, r1, [sp, #24]
 8012492:	f7f5 ff03 	bl	800829c <__adddf3>
 8012496:	ec53 2b18 	vmov	r2, r3, d8
 801249a:	f7f6 f8b5 	bl	8008608 <__aeabi_dmul>
 801249e:	4622      	mov	r2, r4
 80124a0:	462b      	mov	r3, r5
 80124a2:	f7f5 fefb 	bl	800829c <__adddf3>
 80124a6:	4642      	mov	r2, r8
 80124a8:	4682      	mov	sl, r0
 80124aa:	468b      	mov	fp, r1
 80124ac:	464b      	mov	r3, r9
 80124ae:	4640      	mov	r0, r8
 80124b0:	4649      	mov	r1, r9
 80124b2:	f7f6 f8a9 	bl	8008608 <__aeabi_dmul>
 80124b6:	4b6c      	ldr	r3, [pc, #432]	; (8012668 <__ieee754_pow+0x758>)
 80124b8:	2200      	movs	r2, #0
 80124ba:	4606      	mov	r6, r0
 80124bc:	460f      	mov	r7, r1
 80124be:	f7f5 feed 	bl	800829c <__adddf3>
 80124c2:	4652      	mov	r2, sl
 80124c4:	465b      	mov	r3, fp
 80124c6:	f7f5 fee9 	bl	800829c <__adddf3>
 80124ca:	9c04      	ldr	r4, [sp, #16]
 80124cc:	460d      	mov	r5, r1
 80124ce:	4622      	mov	r2, r4
 80124d0:	460b      	mov	r3, r1
 80124d2:	4640      	mov	r0, r8
 80124d4:	4649      	mov	r1, r9
 80124d6:	f7f6 f897 	bl	8008608 <__aeabi_dmul>
 80124da:	4b63      	ldr	r3, [pc, #396]	; (8012668 <__ieee754_pow+0x758>)
 80124dc:	4680      	mov	r8, r0
 80124de:	4689      	mov	r9, r1
 80124e0:	2200      	movs	r2, #0
 80124e2:	4620      	mov	r0, r4
 80124e4:	4629      	mov	r1, r5
 80124e6:	f7f5 fed7 	bl	8008298 <__aeabi_dsub>
 80124ea:	4632      	mov	r2, r6
 80124ec:	463b      	mov	r3, r7
 80124ee:	f7f5 fed3 	bl	8008298 <__aeabi_dsub>
 80124f2:	4602      	mov	r2, r0
 80124f4:	460b      	mov	r3, r1
 80124f6:	4650      	mov	r0, sl
 80124f8:	4659      	mov	r1, fp
 80124fa:	f7f5 fecd 	bl	8008298 <__aeabi_dsub>
 80124fe:	e9dd 2306 	ldrd	r2, r3, [sp, #24]
 8012502:	f7f6 f881 	bl	8008608 <__aeabi_dmul>
 8012506:	4622      	mov	r2, r4
 8012508:	4606      	mov	r6, r0
 801250a:	460f      	mov	r7, r1
 801250c:	462b      	mov	r3, r5
 801250e:	ec51 0b18 	vmov	r0, r1, d8
 8012512:	f7f6 f879 	bl	8008608 <__aeabi_dmul>
 8012516:	4602      	mov	r2, r0
 8012518:	460b      	mov	r3, r1
 801251a:	4630      	mov	r0, r6
 801251c:	4639      	mov	r1, r7
 801251e:	f7f5 febd 	bl	800829c <__adddf3>
 8012522:	4606      	mov	r6, r0
 8012524:	460f      	mov	r7, r1
 8012526:	4602      	mov	r2, r0
 8012528:	460b      	mov	r3, r1
 801252a:	4640      	mov	r0, r8
 801252c:	4649      	mov	r1, r9
 801252e:	f7f5 feb5 	bl	800829c <__adddf3>
 8012532:	9c04      	ldr	r4, [sp, #16]
 8012534:	a33e      	add	r3, pc, #248	; (adr r3, 8012630 <__ieee754_pow+0x720>)
 8012536:	e9d3 2300 	ldrd	r2, r3, [r3]
 801253a:	4620      	mov	r0, r4
 801253c:	460d      	mov	r5, r1
 801253e:	f7f6 f863 	bl	8008608 <__aeabi_dmul>
 8012542:	4642      	mov	r2, r8
 8012544:	ec41 0b18 	vmov	d8, r0, r1
 8012548:	464b      	mov	r3, r9
 801254a:	4620      	mov	r0, r4
 801254c:	4629      	mov	r1, r5
 801254e:	f7f5 fea3 	bl	8008298 <__aeabi_dsub>
 8012552:	4602      	mov	r2, r0
 8012554:	460b      	mov	r3, r1
 8012556:	4630      	mov	r0, r6
 8012558:	4639      	mov	r1, r7
 801255a:	f7f5 fe9d 	bl	8008298 <__aeabi_dsub>
 801255e:	a336      	add	r3, pc, #216	; (adr r3, 8012638 <__ieee754_pow+0x728>)
 8012560:	e9d3 2300 	ldrd	r2, r3, [r3]
 8012564:	f7f6 f850 	bl	8008608 <__aeabi_dmul>
 8012568:	a335      	add	r3, pc, #212	; (adr r3, 8012640 <__ieee754_pow+0x730>)
 801256a:	e9d3 2300 	ldrd	r2, r3, [r3]
 801256e:	4606      	mov	r6, r0
 8012570:	460f      	mov	r7, r1
 8012572:	4620      	mov	r0, r4
 8012574:	4629      	mov	r1, r5
 8012576:	f7f6 f847 	bl	8008608 <__aeabi_dmul>
 801257a:	4602      	mov	r2, r0
 801257c:	460b      	mov	r3, r1
 801257e:	4630      	mov	r0, r6
 8012580:	4639      	mov	r1, r7
 8012582:	f7f5 fe8b 	bl	800829c <__adddf3>
 8012586:	9a0b      	ldr	r2, [sp, #44]	; 0x2c
 8012588:	4b38      	ldr	r3, [pc, #224]	; (801266c <__ieee754_pow+0x75c>)
 801258a:	4413      	add	r3, r2
 801258c:	e9d3 2300 	ldrd	r2, r3, [r3]
 8012590:	f7f5 fe84 	bl	800829c <__adddf3>
 8012594:	4682      	mov	sl, r0
 8012596:	9809      	ldr	r0, [sp, #36]	; 0x24
 8012598:	468b      	mov	fp, r1
 801259a:	f7f5 ffcb 	bl	8008534 <__aeabi_i2d>
 801259e:	9a0b      	ldr	r2, [sp, #44]	; 0x2c
 80125a0:	4b33      	ldr	r3, [pc, #204]	; (8012670 <__ieee754_pow+0x760>)
 80125a2:	4413      	add	r3, r2
 80125a4:	e9d3 8900 	ldrd	r8, r9, [r3]
 80125a8:	4606      	mov	r6, r0
 80125aa:	460f      	mov	r7, r1
 80125ac:	4652      	mov	r2, sl
 80125ae:	465b      	mov	r3, fp
 80125b0:	ec51 0b18 	vmov	r0, r1, d8
 80125b4:	f7f5 fe72 	bl	800829c <__adddf3>
 80125b8:	4642      	mov	r2, r8
 80125ba:	464b      	mov	r3, r9
 80125bc:	f7f5 fe6e 	bl	800829c <__adddf3>
 80125c0:	4632      	mov	r2, r6
 80125c2:	463b      	mov	r3, r7
 80125c4:	f7f5 fe6a 	bl	800829c <__adddf3>
 80125c8:	9c04      	ldr	r4, [sp, #16]
 80125ca:	4632      	mov	r2, r6
 80125cc:	463b      	mov	r3, r7
 80125ce:	4620      	mov	r0, r4
 80125d0:	460d      	mov	r5, r1
 80125d2:	f7f5 fe61 	bl	8008298 <__aeabi_dsub>
 80125d6:	4642      	mov	r2, r8
 80125d8:	464b      	mov	r3, r9
 80125da:	f7f5 fe5d 	bl	8008298 <__aeabi_dsub>
 80125de:	ec53 2b18 	vmov	r2, r3, d8
 80125e2:	f7f5 fe59 	bl	8008298 <__aeabi_dsub>
 80125e6:	4602      	mov	r2, r0
 80125e8:	460b      	mov	r3, r1
 80125ea:	4650      	mov	r0, sl
 80125ec:	4659      	mov	r1, fp
 80125ee:	e606      	b.n	80121fe <__ieee754_pow+0x2ee>
 80125f0:	2401      	movs	r4, #1
 80125f2:	e6a0      	b.n	8012336 <__ieee754_pow+0x426>
 80125f4:	ed9f 7b14 	vldr	d7, [pc, #80]	; 8012648 <__ieee754_pow+0x738>
 80125f8:	e60d      	b.n	8012216 <__ieee754_pow+0x306>
 80125fa:	bf00      	nop
 80125fc:	f3af 8000 	nop.w
 8012600:	4a454eef 	.word	0x4a454eef
 8012604:	3fca7e28 	.word	0x3fca7e28
 8012608:	93c9db65 	.word	0x93c9db65
 801260c:	3fcd864a 	.word	0x3fcd864a
 8012610:	a91d4101 	.word	0xa91d4101
 8012614:	3fd17460 	.word	0x3fd17460
 8012618:	518f264d 	.word	0x518f264d
 801261c:	3fd55555 	.word	0x3fd55555
 8012620:	db6fabff 	.word	0xdb6fabff
 8012624:	3fdb6db6 	.word	0x3fdb6db6
 8012628:	33333303 	.word	0x33333303
 801262c:	3fe33333 	.word	0x3fe33333
 8012630:	e0000000 	.word	0xe0000000
 8012634:	3feec709 	.word	0x3feec709
 8012638:	dc3a03fd 	.word	0xdc3a03fd
 801263c:	3feec709 	.word	0x3feec709
 8012640:	145b01f5 	.word	0x145b01f5
 8012644:	be3e2fe0 	.word	0xbe3e2fe0
 8012648:	00000000 	.word	0x00000000
 801264c:	3ff00000 	.word	0x3ff00000
 8012650:	7ff00000 	.word	0x7ff00000
 8012654:	43400000 	.word	0x43400000
 8012658:	0003988e 	.word	0x0003988e
 801265c:	000bb679 	.word	0x000bb679
 8012660:	08017070 	.word	0x08017070
 8012664:	3ff00000 	.word	0x3ff00000
 8012668:	40080000 	.word	0x40080000
 801266c:	08017090 	.word	0x08017090
 8012670:	08017080 	.word	0x08017080
 8012674:	a3b5      	add	r3, pc, #724	; (adr r3, 801294c <__ieee754_pow+0xa3c>)
 8012676:	e9d3 2300 	ldrd	r2, r3, [r3]
 801267a:	4640      	mov	r0, r8
 801267c:	4649      	mov	r1, r9
 801267e:	f7f5 fe0d 	bl	800829c <__adddf3>
 8012682:	4622      	mov	r2, r4
 8012684:	ec41 0b1a 	vmov	d10, r0, r1
 8012688:	462b      	mov	r3, r5
 801268a:	4630      	mov	r0, r6
 801268c:	4639      	mov	r1, r7
 801268e:	f7f5 fe03 	bl	8008298 <__aeabi_dsub>
 8012692:	4602      	mov	r2, r0
 8012694:	460b      	mov	r3, r1
 8012696:	ec51 0b1a 	vmov	r0, r1, d10
 801269a:	f7f6 fa45 	bl	8008b28 <__aeabi_dcmpgt>
 801269e:	2800      	cmp	r0, #0
 80126a0:	f47f adf8 	bne.w	8012294 <__ieee754_pow+0x384>
 80126a4:	4aa4      	ldr	r2, [pc, #656]	; (8012938 <__ieee754_pow+0xa28>)
 80126a6:	f02b 4300 	bic.w	r3, fp, #2147483648	; 0x80000000
 80126aa:	4293      	cmp	r3, r2
 80126ac:	f340 810b 	ble.w	80128c6 <__ieee754_pow+0x9b6>
 80126b0:	151b      	asrs	r3, r3, #20
 80126b2:	f44f 1a80 	mov.w	sl, #1048576	; 0x100000
 80126b6:	f2a3 33fe 	subw	r3, r3, #1022	; 0x3fe
 80126ba:	fa4a f303 	asr.w	r3, sl, r3
 80126be:	445b      	add	r3, fp
 80126c0:	f3c3 520a 	ubfx	r2, r3, #20, #11
 80126c4:	4e9d      	ldr	r6, [pc, #628]	; (801293c <__ieee754_pow+0xa2c>)
 80126c6:	f2a2 32ff 	subw	r2, r2, #1023	; 0x3ff
 80126ca:	4116      	asrs	r6, r2
 80126cc:	f3c3 0a13 	ubfx	sl, r3, #0, #20
 80126d0:	2000      	movs	r0, #0
 80126d2:	ea23 0106 	bic.w	r1, r3, r6
 80126d6:	f1c2 0214 	rsb	r2, r2, #20
 80126da:	f44a 1a80 	orr.w	sl, sl, #1048576	; 0x100000
 80126de:	fa4a fa02 	asr.w	sl, sl, r2
 80126e2:	f1bb 0f00 	cmp.w	fp, #0
 80126e6:	4602      	mov	r2, r0
 80126e8:	460b      	mov	r3, r1
 80126ea:	4620      	mov	r0, r4
 80126ec:	4629      	mov	r1, r5
 80126ee:	bfb8      	it	lt
 80126f0:	f1ca 0a00 	rsblt	sl, sl, #0
 80126f4:	f7f5 fdd0 	bl	8008298 <__aeabi_dsub>
 80126f8:	ec41 0b19 	vmov	d9, r0, r1
 80126fc:	4642      	mov	r2, r8
 80126fe:	464b      	mov	r3, r9
 8012700:	ec51 0b19 	vmov	r0, r1, d9
 8012704:	f7f5 fdca 	bl	800829c <__adddf3>
 8012708:	2400      	movs	r4, #0
 801270a:	a379      	add	r3, pc, #484	; (adr r3, 80128f0 <__ieee754_pow+0x9e0>)
 801270c:	e9d3 2300 	ldrd	r2, r3, [r3]
 8012710:	4620      	mov	r0, r4
 8012712:	460d      	mov	r5, r1
 8012714:	f7f5 ff78 	bl	8008608 <__aeabi_dmul>
 8012718:	ec53 2b19 	vmov	r2, r3, d9
 801271c:	4606      	mov	r6, r0
 801271e:	460f      	mov	r7, r1
 8012720:	4620      	mov	r0, r4
 8012722:	4629      	mov	r1, r5
 8012724:	f7f5 fdb8 	bl	8008298 <__aeabi_dsub>
 8012728:	4602      	mov	r2, r0
 801272a:	460b      	mov	r3, r1
 801272c:	4640      	mov	r0, r8
 801272e:	4649      	mov	r1, r9
 8012730:	f7f5 fdb2 	bl	8008298 <__aeabi_dsub>
 8012734:	a370      	add	r3, pc, #448	; (adr r3, 80128f8 <__ieee754_pow+0x9e8>)
 8012736:	e9d3 2300 	ldrd	r2, r3, [r3]
 801273a:	f7f5 ff65 	bl	8008608 <__aeabi_dmul>
 801273e:	a370      	add	r3, pc, #448	; (adr r3, 8012900 <__ieee754_pow+0x9f0>)
 8012740:	e9d3 2300 	ldrd	r2, r3, [r3]
 8012744:	4680      	mov	r8, r0
 8012746:	4689      	mov	r9, r1
 8012748:	4620      	mov	r0, r4
 801274a:	4629      	mov	r1, r5
 801274c:	f7f5 ff5c 	bl	8008608 <__aeabi_dmul>
 8012750:	4602      	mov	r2, r0
 8012752:	460b      	mov	r3, r1
 8012754:	4640      	mov	r0, r8
 8012756:	4649      	mov	r1, r9
 8012758:	f7f5 fda0 	bl	800829c <__adddf3>
 801275c:	4604      	mov	r4, r0
 801275e:	460d      	mov	r5, r1
 8012760:	4602      	mov	r2, r0
 8012762:	460b      	mov	r3, r1
 8012764:	4630      	mov	r0, r6
 8012766:	4639      	mov	r1, r7
 8012768:	f7f5 fd98 	bl	800829c <__adddf3>
 801276c:	4632      	mov	r2, r6
 801276e:	463b      	mov	r3, r7
 8012770:	4680      	mov	r8, r0
 8012772:	4689      	mov	r9, r1
 8012774:	f7f5 fd90 	bl	8008298 <__aeabi_dsub>
 8012778:	4602      	mov	r2, r0
 801277a:	460b      	mov	r3, r1
 801277c:	4620      	mov	r0, r4
 801277e:	4629      	mov	r1, r5
 8012780:	f7f5 fd8a 	bl	8008298 <__aeabi_dsub>
 8012784:	4642      	mov	r2, r8
 8012786:	4606      	mov	r6, r0
 8012788:	460f      	mov	r7, r1
 801278a:	464b      	mov	r3, r9
 801278c:	4640      	mov	r0, r8
 801278e:	4649      	mov	r1, r9
 8012790:	f7f5 ff3a 	bl	8008608 <__aeabi_dmul>
 8012794:	a35c      	add	r3, pc, #368	; (adr r3, 8012908 <__ieee754_pow+0x9f8>)
 8012796:	e9d3 2300 	ldrd	r2, r3, [r3]
 801279a:	4604      	mov	r4, r0
 801279c:	460d      	mov	r5, r1
 801279e:	f7f5 ff33 	bl	8008608 <__aeabi_dmul>
 80127a2:	a35b      	add	r3, pc, #364	; (adr r3, 8012910 <__ieee754_pow+0xa00>)
 80127a4:	e9d3 2300 	ldrd	r2, r3, [r3]
 80127a8:	f7f5 fd76 	bl	8008298 <__aeabi_dsub>
 80127ac:	4622      	mov	r2, r4
 80127ae:	462b      	mov	r3, r5
 80127b0:	f7f5 ff2a 	bl	8008608 <__aeabi_dmul>
 80127b4:	a358      	add	r3, pc, #352	; (adr r3, 8012918 <__ieee754_pow+0xa08>)
 80127b6:	e9d3 2300 	ldrd	r2, r3, [r3]
 80127ba:	f7f5 fd6f 	bl	800829c <__adddf3>
 80127be:	4622      	mov	r2, r4
 80127c0:	462b      	mov	r3, r5
 80127c2:	f7f5 ff21 	bl	8008608 <__aeabi_dmul>
 80127c6:	a356      	add	r3, pc, #344	; (adr r3, 8012920 <__ieee754_pow+0xa10>)
 80127c8:	e9d3 2300 	ldrd	r2, r3, [r3]
 80127cc:	f7f5 fd64 	bl	8008298 <__aeabi_dsub>
 80127d0:	4622      	mov	r2, r4
 80127d2:	462b      	mov	r3, r5
 80127d4:	f7f5 ff18 	bl	8008608 <__aeabi_dmul>
 80127d8:	a353      	add	r3, pc, #332	; (adr r3, 8012928 <__ieee754_pow+0xa18>)
 80127da:	e9d3 2300 	ldrd	r2, r3, [r3]
 80127de:	f7f5 fd5d 	bl	800829c <__adddf3>
 80127e2:	4622      	mov	r2, r4
 80127e4:	462b      	mov	r3, r5
 80127e6:	f7f5 ff0f 	bl	8008608 <__aeabi_dmul>
 80127ea:	4602      	mov	r2, r0
 80127ec:	460b      	mov	r3, r1
 80127ee:	4640      	mov	r0, r8
 80127f0:	4649      	mov	r1, r9
 80127f2:	f7f5 fd51 	bl	8008298 <__aeabi_dsub>
 80127f6:	4604      	mov	r4, r0
 80127f8:	460d      	mov	r5, r1
 80127fa:	4602      	mov	r2, r0
 80127fc:	460b      	mov	r3, r1
 80127fe:	4640      	mov	r0, r8
 8012800:	4649      	mov	r1, r9
 8012802:	f7f5 ff01 	bl	8008608 <__aeabi_dmul>
 8012806:	2200      	movs	r2, #0
 8012808:	ec41 0b19 	vmov	d9, r0, r1
 801280c:	f04f 4380 	mov.w	r3, #1073741824	; 0x40000000
 8012810:	4620      	mov	r0, r4
 8012812:	4629      	mov	r1, r5
 8012814:	f7f5 fd40 	bl	8008298 <__aeabi_dsub>
 8012818:	4602      	mov	r2, r0
 801281a:	460b      	mov	r3, r1
 801281c:	ec51 0b19 	vmov	r0, r1, d9
 8012820:	f7f6 f81c 	bl	800885c <__aeabi_ddiv>
 8012824:	4632      	mov	r2, r6
 8012826:	4604      	mov	r4, r0
 8012828:	460d      	mov	r5, r1
 801282a:	463b      	mov	r3, r7
 801282c:	4640      	mov	r0, r8
 801282e:	4649      	mov	r1, r9
 8012830:	f7f5 feea 	bl	8008608 <__aeabi_dmul>
 8012834:	4632      	mov	r2, r6
 8012836:	463b      	mov	r3, r7
 8012838:	f7f5 fd30 	bl	800829c <__adddf3>
 801283c:	4602      	mov	r2, r0
 801283e:	460b      	mov	r3, r1
 8012840:	4620      	mov	r0, r4
 8012842:	4629      	mov	r1, r5
 8012844:	f7f5 fd28 	bl	8008298 <__aeabi_dsub>
 8012848:	4642      	mov	r2, r8
 801284a:	464b      	mov	r3, r9
 801284c:	f7f5 fd24 	bl	8008298 <__aeabi_dsub>
 8012850:	460b      	mov	r3, r1
 8012852:	4602      	mov	r2, r0
 8012854:	493a      	ldr	r1, [pc, #232]	; (8012940 <__ieee754_pow+0xa30>)
 8012856:	2000      	movs	r0, #0
 8012858:	f7f5 fd1e 	bl	8008298 <__aeabi_dsub>
 801285c:	e9cd 0100 	strd	r0, r1, [sp]
 8012860:	9b01      	ldr	r3, [sp, #4]
 8012862:	eb03 530a 	add.w	r3, r3, sl, lsl #20
 8012866:	f5b3 1f80 	cmp.w	r3, #1048576	; 0x100000
 801286a:	da2f      	bge.n	80128cc <__ieee754_pow+0x9bc>
 801286c:	4650      	mov	r0, sl
 801286e:	ed9d 0b00 	vldr	d0, [sp]
 8012872:	f000 f9cd 	bl	8012c10 <scalbn>
 8012876:	ec51 0b10 	vmov	r0, r1, d0
 801287a:	ec53 2b18 	vmov	r2, r3, d8
 801287e:	f7ff bbe0 	b.w	8012042 <__ieee754_pow+0x132>
 8012882:	4b30      	ldr	r3, [pc, #192]	; (8012944 <__ieee754_pow+0xa34>)
 8012884:	f021 4600 	bic.w	r6, r1, #2147483648	; 0x80000000
 8012888:	429e      	cmp	r6, r3
 801288a:	f77f af0b 	ble.w	80126a4 <__ieee754_pow+0x794>
 801288e:	4b2e      	ldr	r3, [pc, #184]	; (8012948 <__ieee754_pow+0xa38>)
 8012890:	440b      	add	r3, r1
 8012892:	4303      	orrs	r3, r0
 8012894:	d00b      	beq.n	80128ae <__ieee754_pow+0x99e>
 8012896:	a326      	add	r3, pc, #152	; (adr r3, 8012930 <__ieee754_pow+0xa20>)
 8012898:	e9d3 2300 	ldrd	r2, r3, [r3]
 801289c:	ec51 0b18 	vmov	r0, r1, d8
 80128a0:	f7f5 feb2 	bl	8008608 <__aeabi_dmul>
 80128a4:	a322      	add	r3, pc, #136	; (adr r3, 8012930 <__ieee754_pow+0xa20>)
 80128a6:	e9d3 2300 	ldrd	r2, r3, [r3]
 80128aa:	f7ff bbca 	b.w	8012042 <__ieee754_pow+0x132>
 80128ae:	4622      	mov	r2, r4
 80128b0:	462b      	mov	r3, r5
 80128b2:	f7f5 fcf1 	bl	8008298 <__aeabi_dsub>
 80128b6:	4642      	mov	r2, r8
 80128b8:	464b      	mov	r3, r9
 80128ba:	f7f6 f92b 	bl	8008b14 <__aeabi_dcmpge>
 80128be:	2800      	cmp	r0, #0
 80128c0:	f43f aef0 	beq.w	80126a4 <__ieee754_pow+0x794>
 80128c4:	e7e7      	b.n	8012896 <__ieee754_pow+0x986>
 80128c6:	f04f 0a00 	mov.w	sl, #0
 80128ca:	e717      	b.n	80126fc <__ieee754_pow+0x7ec>
 80128cc:	e9dd 0100 	ldrd	r0, r1, [sp]
 80128d0:	4619      	mov	r1, r3
 80128d2:	e7d2      	b.n	801287a <__ieee754_pow+0x96a>
 80128d4:	491a      	ldr	r1, [pc, #104]	; (8012940 <__ieee754_pow+0xa30>)
 80128d6:	2000      	movs	r0, #0
 80128d8:	f7ff bb9e 	b.w	8012018 <__ieee754_pow+0x108>
 80128dc:	e9dd 0102 	ldrd	r0, r1, [sp, #8]
 80128e0:	f7ff bb9a 	b.w	8012018 <__ieee754_pow+0x108>
 80128e4:	9000      	str	r0, [sp, #0]
 80128e6:	f7ff bb76 	b.w	8011fd6 <__ieee754_pow+0xc6>
 80128ea:	2100      	movs	r1, #0
 80128ec:	f7ff bb60 	b.w	8011fb0 <__ieee754_pow+0xa0>
 80128f0:	00000000 	.word	0x00000000
 80128f4:	3fe62e43 	.word	0x3fe62e43
 80128f8:	fefa39ef 	.word	0xfefa39ef
 80128fc:	3fe62e42 	.word	0x3fe62e42
 8012900:	0ca86c39 	.word	0x0ca86c39
 8012904:	be205c61 	.word	0xbe205c61
 8012908:	72bea4d0 	.word	0x72bea4d0
 801290c:	3e663769 	.word	0x3e663769
 8012910:	c5d26bf1 	.word	0xc5d26bf1
 8012914:	3ebbbd41 	.word	0x3ebbbd41
 8012918:	af25de2c 	.word	0xaf25de2c
 801291c:	3f11566a 	.word	0x3f11566a
 8012920:	16bebd93 	.word	0x16bebd93
 8012924:	3f66c16c 	.word	0x3f66c16c
 8012928:	5555553e 	.word	0x5555553e
 801292c:	3fc55555 	.word	0x3fc55555
 8012930:	c2f8f359 	.word	0xc2f8f359
 8012934:	01a56e1f 	.word	0x01a56e1f
 8012938:	3fe00000 	.word	0x3fe00000
 801293c:	000fffff 	.word	0x000fffff
 8012940:	3ff00000 	.word	0x3ff00000
 8012944:	4090cbff 	.word	0x4090cbff
 8012948:	3f6f3400 	.word	0x3f6f3400
 801294c:	652b82fe 	.word	0x652b82fe
 8012950:	3c971547 	.word	0x3c971547

08012954 <__ieee754_sqrt>:
 8012954:	e92d 41f0 	stmdb	sp!, {r4, r5, r6, r7, r8, lr}
 8012958:	ec55 4b10 	vmov	r4, r5, d0
 801295c:	4e56      	ldr	r6, [pc, #344]	; (8012ab8 <__ieee754_sqrt+0x164>)
 801295e:	43ae      	bics	r6, r5
 8012960:	ee10 0a10 	vmov	r0, s0
 8012964:	ee10 3a10 	vmov	r3, s0
 8012968:	4629      	mov	r1, r5
 801296a:	462a      	mov	r2, r5
 801296c:	d110      	bne.n	8012990 <__ieee754_sqrt+0x3c>
 801296e:	ee10 2a10 	vmov	r2, s0
 8012972:	462b      	mov	r3, r5
 8012974:	f7f5 fe48 	bl	8008608 <__aeabi_dmul>
 8012978:	4602      	mov	r2, r0
 801297a:	460b      	mov	r3, r1
 801297c:	4620      	mov	r0, r4
 801297e:	4629      	mov	r1, r5
 8012980:	f7f5 fc8c 	bl	800829c <__adddf3>
 8012984:	4604      	mov	r4, r0
 8012986:	460d      	mov	r5, r1
 8012988:	ec45 4b10 	vmov	d0, r4, r5
 801298c:	e8bd 81f0 	ldmia.w	sp!, {r4, r5, r6, r7, r8, pc}
 8012990:	2d00      	cmp	r5, #0
 8012992:	dc10      	bgt.n	80129b6 <__ieee754_sqrt+0x62>
 8012994:	f025 4600 	bic.w	r6, r5, #2147483648	; 0x80000000
 8012998:	4330      	orrs	r0, r6
 801299a:	d0f5      	beq.n	8012988 <__ieee754_sqrt+0x34>
 801299c:	b15d      	cbz	r5, 80129b6 <__ieee754_sqrt+0x62>
 801299e:	ee10 2a10 	vmov	r2, s0
 80129a2:	462b      	mov	r3, r5
 80129a4:	ee10 0a10 	vmov	r0, s0
 80129a8:	f7f5 fc76 	bl	8008298 <__aeabi_dsub>
 80129ac:	4602      	mov	r2, r0
 80129ae:	460b      	mov	r3, r1
 80129b0:	f7f5 ff54 	bl	800885c <__aeabi_ddiv>
 80129b4:	e7e6      	b.n	8012984 <__ieee754_sqrt+0x30>
 80129b6:	1509      	asrs	r1, r1, #20
 80129b8:	d076      	beq.n	8012aa8 <__ieee754_sqrt+0x154>
 80129ba:	f3c2 0213 	ubfx	r2, r2, #0, #20
 80129be:	07ce      	lsls	r6, r1, #31
 80129c0:	f442 1080 	orr.w	r0, r2, #1048576	; 0x100000
 80129c4:	bf5e      	ittt	pl
 80129c6:	0fda      	lsrpl	r2, r3, #31
 80129c8:	005b      	lslpl	r3, r3, #1
 80129ca:	eb02 0040 	addpl.w	r0, r2, r0, lsl #1
 80129ce:	0fda      	lsrs	r2, r3, #31
 80129d0:	f2a1 35ff 	subw	r5, r1, #1023	; 0x3ff
 80129d4:	eb02 0240 	add.w	r2, r2, r0, lsl #1
 80129d8:	2000      	movs	r0, #0
 80129da:	106d      	asrs	r5, r5, #1
 80129dc:	005b      	lsls	r3, r3, #1
 80129de:	f04f 0e16 	mov.w	lr, #22
 80129e2:	4684      	mov	ip, r0
 80129e4:	f44f 1100 	mov.w	r1, #2097152	; 0x200000
 80129e8:	eb0c 0401 	add.w	r4, ip, r1
 80129ec:	4294      	cmp	r4, r2
 80129ee:	bfde      	ittt	le
 80129f0:	1b12      	suble	r2, r2, r4
 80129f2:	eb04 0c01 	addle.w	ip, r4, r1
 80129f6:	1840      	addle	r0, r0, r1
 80129f8:	0052      	lsls	r2, r2, #1
 80129fa:	f1be 0e01 	subs.w	lr, lr, #1
 80129fe:	eb02 72d3 	add.w	r2, r2, r3, lsr #31
 8012a02:	ea4f 0151 	mov.w	r1, r1, lsr #1
 8012a06:	ea4f 0343 	mov.w	r3, r3, lsl #1
 8012a0a:	d1ed      	bne.n	80129e8 <__ieee754_sqrt+0x94>
 8012a0c:	4671      	mov	r1, lr
 8012a0e:	2720      	movs	r7, #32
 8012a10:	f04f 4400 	mov.w	r4, #2147483648	; 0x80000000
 8012a14:	4562      	cmp	r2, ip
 8012a16:	eb04 060e 	add.w	r6, r4, lr
 8012a1a:	dc02      	bgt.n	8012a22 <__ieee754_sqrt+0xce>
 8012a1c:	d113      	bne.n	8012a46 <__ieee754_sqrt+0xf2>
 8012a1e:	429e      	cmp	r6, r3
 8012a20:	d811      	bhi.n	8012a46 <__ieee754_sqrt+0xf2>
 8012a22:	2e00      	cmp	r6, #0
 8012a24:	eb06 0e04 	add.w	lr, r6, r4
 8012a28:	da43      	bge.n	8012ab2 <__ieee754_sqrt+0x15e>
 8012a2a:	f1be 0f00 	cmp.w	lr, #0
 8012a2e:	db40      	blt.n	8012ab2 <__ieee754_sqrt+0x15e>
 8012a30:	f10c 0801 	add.w	r8, ip, #1
 8012a34:	eba2 020c 	sub.w	r2, r2, ip
 8012a38:	429e      	cmp	r6, r3
 8012a3a:	bf88      	it	hi
 8012a3c:	f102 32ff 	addhi.w	r2, r2, #4294967295	; 0xffffffff
 8012a40:	1b9b      	subs	r3, r3, r6
 8012a42:	4421      	add	r1, r4
 8012a44:	46c4      	mov	ip, r8
 8012a46:	0052      	lsls	r2, r2, #1
 8012a48:	3f01      	subs	r7, #1
 8012a4a:	eb02 72d3 	add.w	r2, r2, r3, lsr #31
 8012a4e:	ea4f 0454 	mov.w	r4, r4, lsr #1
 8012a52:	ea4f 0343 	mov.w	r3, r3, lsl #1
 8012a56:	d1dd      	bne.n	8012a14 <__ieee754_sqrt+0xc0>
 8012a58:	4313      	orrs	r3, r2
 8012a5a:	d006      	beq.n	8012a6a <__ieee754_sqrt+0x116>
 8012a5c:	1c4c      	adds	r4, r1, #1
 8012a5e:	bf13      	iteet	ne
 8012a60:	3101      	addne	r1, #1
 8012a62:	3001      	addeq	r0, #1
 8012a64:	4639      	moveq	r1, r7
 8012a66:	f021 0101 	bicne.w	r1, r1, #1
 8012a6a:	1043      	asrs	r3, r0, #1
 8012a6c:	f103 537f 	add.w	r3, r3, #1069547520	; 0x3fc00000
 8012a70:	0849      	lsrs	r1, r1, #1
 8012a72:	f503 1300 	add.w	r3, r3, #2097152	; 0x200000
 8012a76:	07c2      	lsls	r2, r0, #31
 8012a78:	bf48      	it	mi
 8012a7a:	f041 4100 	orrmi.w	r1, r1, #2147483648	; 0x80000000
 8012a7e:	eb03 5705 	add.w	r7, r3, r5, lsl #20
 8012a82:	460c      	mov	r4, r1
 8012a84:	463d      	mov	r5, r7
 8012a86:	e77f      	b.n	8012988 <__ieee754_sqrt+0x34>
 8012a88:	0ada      	lsrs	r2, r3, #11
 8012a8a:	3815      	subs	r0, #21
 8012a8c:	055b      	lsls	r3, r3, #21
 8012a8e:	2a00      	cmp	r2, #0
 8012a90:	d0fa      	beq.n	8012a88 <__ieee754_sqrt+0x134>
 8012a92:	02d7      	lsls	r7, r2, #11
 8012a94:	d50a      	bpl.n	8012aac <__ieee754_sqrt+0x158>
 8012a96:	f1c1 0420 	rsb	r4, r1, #32
 8012a9a:	fa23 f404 	lsr.w	r4, r3, r4
 8012a9e:	1e4d      	subs	r5, r1, #1
 8012aa0:	408b      	lsls	r3, r1
 8012aa2:	4322      	orrs	r2, r4
 8012aa4:	1b41      	subs	r1, r0, r5
 8012aa6:	e788      	b.n	80129ba <__ieee754_sqrt+0x66>
 8012aa8:	4608      	mov	r0, r1
 8012aaa:	e7f0      	b.n	8012a8e <__ieee754_sqrt+0x13a>
 8012aac:	0052      	lsls	r2, r2, #1
 8012aae:	3101      	adds	r1, #1
 8012ab0:	e7ef      	b.n	8012a92 <__ieee754_sqrt+0x13e>
 8012ab2:	46e0      	mov	r8, ip
 8012ab4:	e7be      	b.n	8012a34 <__ieee754_sqrt+0xe0>
 8012ab6:	bf00      	nop
 8012ab8:	7ff00000 	.word	0x7ff00000

08012abc <fabs>:
 8012abc:	ec51 0b10 	vmov	r0, r1, d0
 8012ac0:	ee10 2a10 	vmov	r2, s0
 8012ac4:	f021 4300 	bic.w	r3, r1, #2147483648	; 0x80000000
 8012ac8:	ec43 2b10 	vmov	d0, r2, r3
 8012acc:	4770      	bx	lr

08012ace <finite>:
 8012ace:	b082      	sub	sp, #8
 8012ad0:	ed8d 0b00 	vstr	d0, [sp]
 8012ad4:	9801      	ldr	r0, [sp, #4]
 8012ad6:	f040 4000 	orr.w	r0, r0, #2147483648	; 0x80000000
 8012ada:	f500 1080 	add.w	r0, r0, #1048576	; 0x100000
 8012ade:	0fc0      	lsrs	r0, r0, #31
 8012ae0:	b002      	add	sp, #8
 8012ae2:	4770      	bx	lr
 8012ae4:	0000      	movs	r0, r0
	...

08012ae8 <nan>:
 8012ae8:	ed9f 0b01 	vldr	d0, [pc, #4]	; 8012af0 <nan+0x8>
 8012aec:	4770      	bx	lr
 8012aee:	bf00      	nop
 8012af0:	00000000 	.word	0x00000000
 8012af4:	7ff80000 	.word	0x7ff80000

08012af8 <rint>:
 8012af8:	b5f7      	push	{r0, r1, r2, r4, r5, r6, r7, lr}
 8012afa:	ec51 0b10 	vmov	r0, r1, d0
 8012afe:	f3c1 520a 	ubfx	r2, r1, #20, #11
 8012b02:	f2a2 36ff 	subw	r6, r2, #1023	; 0x3ff
 8012b06:	2e13      	cmp	r6, #19
 8012b08:	ee10 4a10 	vmov	r4, s0
 8012b0c:	460b      	mov	r3, r1
 8012b0e:	ea4f 75d1 	mov.w	r5, r1, lsr #31
 8012b12:	dc58      	bgt.n	8012bc6 <rint+0xce>
 8012b14:	2e00      	cmp	r6, #0
 8012b16:	da2b      	bge.n	8012b70 <rint+0x78>
 8012b18:	f021 4200 	bic.w	r2, r1, #2147483648	; 0x80000000
 8012b1c:	4302      	orrs	r2, r0
 8012b1e:	d023      	beq.n	8012b68 <rint+0x70>
 8012b20:	f3c1 0213 	ubfx	r2, r1, #0, #20
 8012b24:	4302      	orrs	r2, r0
 8012b26:	4254      	negs	r4, r2
 8012b28:	4314      	orrs	r4, r2
 8012b2a:	0c4b      	lsrs	r3, r1, #17
 8012b2c:	0b24      	lsrs	r4, r4, #12
 8012b2e:	045b      	lsls	r3, r3, #17
 8012b30:	f404 2400 	and.w	r4, r4, #524288	; 0x80000
 8012b34:	ea44 0103 	orr.w	r1, r4, r3
 8012b38:	4b32      	ldr	r3, [pc, #200]	; (8012c04 <rint+0x10c>)
 8012b3a:	eb03 03c5 	add.w	r3, r3, r5, lsl #3
 8012b3e:	e9d3 6700 	ldrd	r6, r7, [r3]
 8012b42:	4602      	mov	r2, r0
 8012b44:	460b      	mov	r3, r1
 8012b46:	4630      	mov	r0, r6
 8012b48:	4639      	mov	r1, r7
 8012b4a:	f7f5 fba7 	bl	800829c <__adddf3>
 8012b4e:	e9cd 0100 	strd	r0, r1, [sp]
 8012b52:	463b      	mov	r3, r7
 8012b54:	e9dd 0100 	ldrd	r0, r1, [sp]
 8012b58:	4632      	mov	r2, r6
 8012b5a:	f7f5 fb9d 	bl	8008298 <__aeabi_dsub>
 8012b5e:	f021 4300 	bic.w	r3, r1, #2147483648	; 0x80000000
 8012b62:	ea43 77c5 	orr.w	r7, r3, r5, lsl #31
 8012b66:	4639      	mov	r1, r7
 8012b68:	ec41 0b10 	vmov	d0, r0, r1
 8012b6c:	b003      	add	sp, #12
 8012b6e:	bdf0      	pop	{r4, r5, r6, r7, pc}
 8012b70:	4a25      	ldr	r2, [pc, #148]	; (8012c08 <rint+0x110>)
 8012b72:	4132      	asrs	r2, r6
 8012b74:	ea01 0702 	and.w	r7, r1, r2
 8012b78:	4307      	orrs	r7, r0
 8012b7a:	d0f5      	beq.n	8012b68 <rint+0x70>
 8012b7c:	0851      	lsrs	r1, r2, #1
 8012b7e:	ea03 0252 	and.w	r2, r3, r2, lsr #1
 8012b82:	4314      	orrs	r4, r2
 8012b84:	d00c      	beq.n	8012ba0 <rint+0xa8>
 8012b86:	ea23 0201 	bic.w	r2, r3, r1
 8012b8a:	f44f 2380 	mov.w	r3, #262144	; 0x40000
 8012b8e:	2e13      	cmp	r6, #19
 8012b90:	fa43 f606 	asr.w	r6, r3, r6
 8012b94:	bf0c      	ite	eq
 8012b96:	f04f 4400 	moveq.w	r4, #2147483648	; 0x80000000
 8012b9a:	2400      	movne	r4, #0
 8012b9c:	ea42 0306 	orr.w	r3, r2, r6
 8012ba0:	4918      	ldr	r1, [pc, #96]	; (8012c04 <rint+0x10c>)
 8012ba2:	eb01 05c5 	add.w	r5, r1, r5, lsl #3
 8012ba6:	4622      	mov	r2, r4
 8012ba8:	e9d5 4500 	ldrd	r4, r5, [r5]
 8012bac:	4620      	mov	r0, r4
 8012bae:	4629      	mov	r1, r5
 8012bb0:	f7f5 fb74 	bl	800829c <__adddf3>
 8012bb4:	e9cd 0100 	strd	r0, r1, [sp]
 8012bb8:	e9dd 0100 	ldrd	r0, r1, [sp]
 8012bbc:	4622      	mov	r2, r4
 8012bbe:	462b      	mov	r3, r5
 8012bc0:	f7f5 fb6a 	bl	8008298 <__aeabi_dsub>
 8012bc4:	e7d0      	b.n	8012b68 <rint+0x70>
 8012bc6:	2e33      	cmp	r6, #51	; 0x33
 8012bc8:	dd07      	ble.n	8012bda <rint+0xe2>
 8012bca:	f5b6 6f80 	cmp.w	r6, #1024	; 0x400
 8012bce:	d1cb      	bne.n	8012b68 <rint+0x70>
 8012bd0:	ee10 2a10 	vmov	r2, s0
 8012bd4:	f7f5 fb62 	bl	800829c <__adddf3>
 8012bd8:	e7c6      	b.n	8012b68 <rint+0x70>
 8012bda:	f2a2 4213 	subw	r2, r2, #1043	; 0x413
 8012bde:	f04f 36ff 	mov.w	r6, #4294967295	; 0xffffffff
 8012be2:	40d6      	lsrs	r6, r2
 8012be4:	4230      	tst	r0, r6
 8012be6:	d0bf      	beq.n	8012b68 <rint+0x70>
 8012be8:	ea14 0056 	ands.w	r0, r4, r6, lsr #1
 8012bec:	ea4f 0156 	mov.w	r1, r6, lsr #1
 8012bf0:	bf1f      	itttt	ne
 8012bf2:	ea24 0101 	bicne.w	r1, r4, r1
 8012bf6:	f04f 4480 	movne.w	r4, #1073741824	; 0x40000000
 8012bfa:	fa44 f202 	asrne.w	r2, r4, r2
 8012bfe:	ea41 0402 	orrne.w	r4, r1, r2
 8012c02:	e7cd      	b.n	8012ba0 <rint+0xa8>
 8012c04:	080170a0 	.word	0x080170a0
 8012c08:	000fffff 	.word	0x000fffff
 8012c0c:	00000000 	.word	0x00000000

08012c10 <scalbn>:
 8012c10:	b570      	push	{r4, r5, r6, lr}
 8012c12:	ec55 4b10 	vmov	r4, r5, d0
 8012c16:	f3c5 520a 	ubfx	r2, r5, #20, #11
 8012c1a:	4606      	mov	r6, r0
 8012c1c:	462b      	mov	r3, r5
 8012c1e:	b99a      	cbnz	r2, 8012c48 <scalbn+0x38>
 8012c20:	f025 4300 	bic.w	r3, r5, #2147483648	; 0x80000000
 8012c24:	4323      	orrs	r3, r4
 8012c26:	d036      	beq.n	8012c96 <scalbn+0x86>
 8012c28:	4b39      	ldr	r3, [pc, #228]	; (8012d10 <scalbn+0x100>)
 8012c2a:	4629      	mov	r1, r5
 8012c2c:	ee10 0a10 	vmov	r0, s0
 8012c30:	2200      	movs	r2, #0
 8012c32:	f7f5 fce9 	bl	8008608 <__aeabi_dmul>
 8012c36:	4b37      	ldr	r3, [pc, #220]	; (8012d14 <scalbn+0x104>)
 8012c38:	429e      	cmp	r6, r3
 8012c3a:	4604      	mov	r4, r0
 8012c3c:	460d      	mov	r5, r1
 8012c3e:	da10      	bge.n	8012c62 <scalbn+0x52>
 8012c40:	a32b      	add	r3, pc, #172	; (adr r3, 8012cf0 <scalbn+0xe0>)
 8012c42:	e9d3 2300 	ldrd	r2, r3, [r3]
 8012c46:	e03a      	b.n	8012cbe <scalbn+0xae>
 8012c48:	f240 71ff 	movw	r1, #2047	; 0x7ff
 8012c4c:	428a      	cmp	r2, r1
 8012c4e:	d10c      	bne.n	8012c6a <scalbn+0x5a>
 8012c50:	ee10 2a10 	vmov	r2, s0
 8012c54:	4620      	mov	r0, r4
 8012c56:	4629      	mov	r1, r5
 8012c58:	f7f5 fb20 	bl	800829c <__adddf3>
 8012c5c:	4604      	mov	r4, r0
 8012c5e:	460d      	mov	r5, r1
 8012c60:	e019      	b.n	8012c96 <scalbn+0x86>
 8012c62:	f3c1 520a 	ubfx	r2, r1, #20, #11
 8012c66:	460b      	mov	r3, r1
 8012c68:	3a36      	subs	r2, #54	; 0x36
 8012c6a:	4432      	add	r2, r6
 8012c6c:	f240 71fe 	movw	r1, #2046	; 0x7fe
 8012c70:	428a      	cmp	r2, r1
 8012c72:	dd08      	ble.n	8012c86 <scalbn+0x76>
 8012c74:	2d00      	cmp	r5, #0
 8012c76:	a120      	add	r1, pc, #128	; (adr r1, 8012cf8 <scalbn+0xe8>)
 8012c78:	e9d1 0100 	ldrd	r0, r1, [r1]
 8012c7c:	da1c      	bge.n	8012cb8 <scalbn+0xa8>
 8012c7e:	a120      	add	r1, pc, #128	; (adr r1, 8012d00 <scalbn+0xf0>)
 8012c80:	e9d1 0100 	ldrd	r0, r1, [r1]
 8012c84:	e018      	b.n	8012cb8 <scalbn+0xa8>
 8012c86:	2a00      	cmp	r2, #0
 8012c88:	dd08      	ble.n	8012c9c <scalbn+0x8c>
 8012c8a:	f023 43ff 	bic.w	r3, r3, #2139095040	; 0x7f800000
 8012c8e:	f423 03e0 	bic.w	r3, r3, #7340032	; 0x700000
 8012c92:	ea43 5502 	orr.w	r5, r3, r2, lsl #20
 8012c96:	ec45 4b10 	vmov	d0, r4, r5
 8012c9a:	bd70      	pop	{r4, r5, r6, pc}
 8012c9c:	f112 0f35 	cmn.w	r2, #53	; 0x35
 8012ca0:	da19      	bge.n	8012cd6 <scalbn+0xc6>
 8012ca2:	f24c 3350 	movw	r3, #50000	; 0xc350
 8012ca6:	429e      	cmp	r6, r3
 8012ca8:	f005 4300 	and.w	r3, r5, #2147483648	; 0x80000000
 8012cac:	dd0a      	ble.n	8012cc4 <scalbn+0xb4>
 8012cae:	a112      	add	r1, pc, #72	; (adr r1, 8012cf8 <scalbn+0xe8>)
 8012cb0:	e9d1 0100 	ldrd	r0, r1, [r1]
 8012cb4:	2b00      	cmp	r3, #0
 8012cb6:	d1e2      	bne.n	8012c7e <scalbn+0x6e>
 8012cb8:	a30f      	add	r3, pc, #60	; (adr r3, 8012cf8 <scalbn+0xe8>)
 8012cba:	e9d3 2300 	ldrd	r2, r3, [r3]
 8012cbe:	f7f5 fca3 	bl	8008608 <__aeabi_dmul>
 8012cc2:	e7cb      	b.n	8012c5c <scalbn+0x4c>
 8012cc4:	a10a      	add	r1, pc, #40	; (adr r1, 8012cf0 <scalbn+0xe0>)
 8012cc6:	e9d1 0100 	ldrd	r0, r1, [r1]
 8012cca:	2b00      	cmp	r3, #0
 8012ccc:	d0b8      	beq.n	8012c40 <scalbn+0x30>
 8012cce:	a10e      	add	r1, pc, #56	; (adr r1, 8012d08 <scalbn+0xf8>)
 8012cd0:	e9d1 0100 	ldrd	r0, r1, [r1]
 8012cd4:	e7b4      	b.n	8012c40 <scalbn+0x30>
 8012cd6:	f023 43ff 	bic.w	r3, r3, #2139095040	; 0x7f800000
 8012cda:	3236      	adds	r2, #54	; 0x36
 8012cdc:	f423 03e0 	bic.w	r3, r3, #7340032	; 0x700000
 8012ce0:	ea43 5102 	orr.w	r1, r3, r2, lsl #20
 8012ce4:	4620      	mov	r0, r4
 8012ce6:	4b0c      	ldr	r3, [pc, #48]	; (8012d18 <scalbn+0x108>)
 8012ce8:	2200      	movs	r2, #0
 8012cea:	e7e8      	b.n	8012cbe <scalbn+0xae>
 8012cec:	f3af 8000 	nop.w
 8012cf0:	c2f8f359 	.word	0xc2f8f359
 8012cf4:	01a56e1f 	.word	0x01a56e1f
 8012cf8:	8800759c 	.word	0x8800759c
 8012cfc:	7e37e43c 	.word	0x7e37e43c
 8012d00:	8800759c 	.word	0x8800759c
 8012d04:	fe37e43c 	.word	0xfe37e43c
 8012d08:	c2f8f359 	.word	0xc2f8f359
 8012d0c:	81a56e1f 	.word	0x81a56e1f
 8012d10:	43500000 	.word	0x43500000
 8012d14:	ffff3cb0 	.word	0xffff3cb0
 8012d18:	3c900000 	.word	0x3c900000

08012d1c <_init>:
 8012d1c:	b5f8      	push	{r3, r4, r5, r6, r7, lr}
 8012d1e:	bf00      	nop
 8012d20:	bcf8      	pop	{r3, r4, r5, r6, r7}
 8012d22:	bc08      	pop	{r3}
 8012d24:	469e      	mov	lr, r3
 8012d26:	4770      	bx	lr

08012d28 <_fini>:
 8012d28:	b5f8      	push	{r3, r4, r5, r6, r7, lr}
 8012d2a:	bf00      	nop
 8012d2c:	bcf8      	pop	{r3, r4, r5, r6, r7}
 8012d2e:	bc08      	pop	{r3}
 8012d30:	469e      	mov	lr, r3
 8012d32:	4770      	bx	lr
